   1              		.cpu cortex-m4
   2              		.eabi_attribute 27, 1
   3              		.eabi_attribute 20, 1
   4              		.eabi_attribute 21, 1
   5              		.eabi_attribute 23, 3
   6              		.eabi_attribute 24, 1
   7              		.eabi_attribute 25, 1
   8              		.eabi_attribute 26, 1
   9              		.eabi_attribute 30, 1
  10              		.eabi_attribute 34, 1
  11              		.eabi_attribute 18, 4
  12              		.file	"xmc4_scu.c"
  13              		.text
  14              	.Ltext0:
  15              		.cfi_sections	.debug_frame
  16              		.section	.text.XMC_SCU_lDelay,"ax",%progbits
  17              		.align	1
  18              		.syntax unified
  19              		.thumb
  20              		.thumb_func
  21              		.fpu fpv4-sp-d16
  23              	XMC_SCU_lDelay:
  24              	.LFB162:
  25              		.file 1 "/opt/XMClib/XMC_Peripheral_Library_v2.1.16/XMCLib/src/xmc4_scu.c"
   1:/opt/XMClib/XMC_Peripheral_Library_v2.1.16/XMCLib/src/xmc4_scu.c **** /**
   2:/opt/XMClib/XMC_Peripheral_Library_v2.1.16/XMCLib/src/xmc4_scu.c ****  * @file xmc4_scu.c
   3:/opt/XMClib/XMC_Peripheral_Library_v2.1.16/XMCLib/src/xmc4_scu.c ****  * @date 2016-06-15
   4:/opt/XMClib/XMC_Peripheral_Library_v2.1.16/XMCLib/src/xmc4_scu.c ****  *
   5:/opt/XMClib/XMC_Peripheral_Library_v2.1.16/XMCLib/src/xmc4_scu.c ****  * @cond
   6:/opt/XMClib/XMC_Peripheral_Library_v2.1.16/XMCLib/src/xmc4_scu.c ****  **************************************************************************************************
   7:/opt/XMClib/XMC_Peripheral_Library_v2.1.16/XMCLib/src/xmc4_scu.c ****  * XMClib v2.1.16 - XMC Peripheral Driver Library 
   8:/opt/XMClib/XMC_Peripheral_Library_v2.1.16/XMCLib/src/xmc4_scu.c ****  *
   9:/opt/XMClib/XMC_Peripheral_Library_v2.1.16/XMCLib/src/xmc4_scu.c ****  * Copyright (c) 2015-2017, Infineon Technologies AG
  10:/opt/XMClib/XMC_Peripheral_Library_v2.1.16/XMCLib/src/xmc4_scu.c ****  * All rights reserved.                        
  11:/opt/XMClib/XMC_Peripheral_Library_v2.1.16/XMCLib/src/xmc4_scu.c ****  *                                             
  12:/opt/XMClib/XMC_Peripheral_Library_v2.1.16/XMCLib/src/xmc4_scu.c ****  * Redistribution and use in source and binary forms, with or without modification,are permitted pr
  13:/opt/XMClib/XMC_Peripheral_Library_v2.1.16/XMCLib/src/xmc4_scu.c ****  * following conditions are met:   
  14:/opt/XMClib/XMC_Peripheral_Library_v2.1.16/XMCLib/src/xmc4_scu.c ****  *                                                                              
  15:/opt/XMClib/XMC_Peripheral_Library_v2.1.16/XMCLib/src/xmc4_scu.c ****  * Redistributions of source code must retain the above copyright notice, this list of conditions a
  16:/opt/XMClib/XMC_Peripheral_Library_v2.1.16/XMCLib/src/xmc4_scu.c ****  * disclaimer.                        
  17:/opt/XMClib/XMC_Peripheral_Library_v2.1.16/XMCLib/src/xmc4_scu.c ****  * 
  18:/opt/XMClib/XMC_Peripheral_Library_v2.1.16/XMCLib/src/xmc4_scu.c ****  * Redistributions in binary form must reproduce the above copyright notice, this list of condition
  19:/opt/XMClib/XMC_Peripheral_Library_v2.1.16/XMCLib/src/xmc4_scu.c ****  * disclaimer in the documentation and/or other materials provided with the distribution.          
  20:/opt/XMClib/XMC_Peripheral_Library_v2.1.16/XMCLib/src/xmc4_scu.c ****  * 
  21:/opt/XMClib/XMC_Peripheral_Library_v2.1.16/XMCLib/src/xmc4_scu.c ****  * Neither the name of the copyright holders nor the names of its contributors may be used to endor
  22:/opt/XMClib/XMC_Peripheral_Library_v2.1.16/XMCLib/src/xmc4_scu.c ****  * products derived from this software without specific prior written permission.                  
  23:/opt/XMClib/XMC_Peripheral_Library_v2.1.16/XMCLib/src/xmc4_scu.c ****  *                                                                              
  24:/opt/XMClib/XMC_Peripheral_Library_v2.1.16/XMCLib/src/xmc4_scu.c ****  * THIS SOFTWARE IS PROVIDED BY THE COPYRIGHT HOLDERS AND CONTRIBUTORS "AS IS" AND ANY EXPRESS OR I
  25:/opt/XMClib/XMC_Peripheral_Library_v2.1.16/XMCLib/src/xmc4_scu.c ****  * INCLUDING, BUT NOT LIMITED TO, THE IMPLIED WARRANTIES OF MERCHANTABILITY AND FITNESS FOR A PARTI
  26:/opt/XMClib/XMC_Peripheral_Library_v2.1.16/XMCLib/src/xmc4_scu.c ****  * DISCLAIMED. IN NO EVENT SHALL THE COPYRIGHT HOLDER OR CONTRIBUTORS BE LIABLE  FOR ANY DIRECT, IN
  27:/opt/XMClib/XMC_Peripheral_Library_v2.1.16/XMCLib/src/xmc4_scu.c ****  * SPECIAL, EXEMPLARY, OR CONSEQUENTIAL DAMAGES (INCLUDING, BUT NOT LIMITED TO, PROCUREMENT OF SUBS
  28:/opt/XMClib/XMC_Peripheral_Library_v2.1.16/XMCLib/src/xmc4_scu.c ****  * SERVICES; LOSS OF USE, DATA, OR PROFITS; OR BUSINESS INTERRUPTION) HOWEVER CAUSED AND ON ANY THE
  29:/opt/XMClib/XMC_Peripheral_Library_v2.1.16/XMCLib/src/xmc4_scu.c ****  * WHETHER IN CONTRACT, STRICT LIABILITY,OR TORT (INCLUDING NEGLIGENCE OR OTHERWISE) ARISING IN ANY
  30:/opt/XMClib/XMC_Peripheral_Library_v2.1.16/XMCLib/src/xmc4_scu.c ****  * OF THIS SOFTWARE, EVEN IF ADVISED OF THE POSSIBILITY OF SUCH DAMAGE.                            
  31:/opt/XMClib/XMC_Peripheral_Library_v2.1.16/XMCLib/src/xmc4_scu.c ****  *                                                                              
  32:/opt/XMClib/XMC_Peripheral_Library_v2.1.16/XMCLib/src/xmc4_scu.c ****  * To improve the quality of the software, users are encouraged to share modifications, enhancement
  33:/opt/XMClib/XMC_Peripheral_Library_v2.1.16/XMCLib/src/xmc4_scu.c ****  * Infineon Technologies AG dave@infineon.com).                                                    
  34:/opt/XMClib/XMC_Peripheral_Library_v2.1.16/XMCLib/src/xmc4_scu.c ****  **************************************************************************************************
  35:/opt/XMClib/XMC_Peripheral_Library_v2.1.16/XMCLib/src/xmc4_scu.c ****  *
  36:/opt/XMClib/XMC_Peripheral_Library_v2.1.16/XMCLib/src/xmc4_scu.c ****  * Change History
  37:/opt/XMClib/XMC_Peripheral_Library_v2.1.16/XMCLib/src/xmc4_scu.c ****  * --------------
  38:/opt/XMClib/XMC_Peripheral_Library_v2.1.16/XMCLib/src/xmc4_scu.c ****  *
  39:/opt/XMClib/XMC_Peripheral_Library_v2.1.16/XMCLib/src/xmc4_scu.c ****  * 2015-02-20:
  40:/opt/XMClib/XMC_Peripheral_Library_v2.1.16/XMCLib/src/xmc4_scu.c ****  *     - Initial <br>
  41:/opt/XMClib/XMC_Peripheral_Library_v2.1.16/XMCLib/src/xmc4_scu.c ****  *      
  42:/opt/XMClib/XMC_Peripheral_Library_v2.1.16/XMCLib/src/xmc4_scu.c ****  * 2015-05-20:
  43:/opt/XMClib/XMC_Peripheral_Library_v2.1.16/XMCLib/src/xmc4_scu.c ****  *     - XMC_ASSERT() hanging issues have fixed.  <br>
  44:/opt/XMClib/XMC_Peripheral_Library_v2.1.16/XMCLib/src/xmc4_scu.c ****  *     - Line indentation aligned with 120 characters. <br>
  45:/opt/XMClib/XMC_Peripheral_Library_v2.1.16/XMCLib/src/xmc4_scu.c ****  *     
  46:/opt/XMClib/XMC_Peripheral_Library_v2.1.16/XMCLib/src/xmc4_scu.c ****  * 2015-06-20:
  47:/opt/XMClib/XMC_Peripheral_Library_v2.1.16/XMCLib/src/xmc4_scu.c ****  *     - XMC_SCU_INTERRUPT_EnableEvent,XMC_SCU_INTERRUPT_DisableEvent,
  48:/opt/XMClib/XMC_Peripheral_Library_v2.1.16/XMCLib/src/xmc4_scu.c ****  *     - XMC_SCU_INTERRUPT_TriggerEvent,XMC_SCU_INTERUPT_GetEventStatus,
  49:/opt/XMClib/XMC_Peripheral_Library_v2.1.16/XMCLib/src/xmc4_scu.c ****  *     - XMC_SCU_INTERRUPT_ClearEventStatus are added
  50:/opt/XMClib/XMC_Peripheral_Library_v2.1.16/XMCLib/src/xmc4_scu.c ****  *     - Added Weak implementation for OSCHP_GetFrequency()
  51:/opt/XMClib/XMC_Peripheral_Library_v2.1.16/XMCLib/src/xmc4_scu.c ****  *
  52:/opt/XMClib/XMC_Peripheral_Library_v2.1.16/XMCLib/src/xmc4_scu.c ****  * 2015-11-30:
  53:/opt/XMClib/XMC_Peripheral_Library_v2.1.16/XMCLib/src/xmc4_scu.c ****  *     - Documentation improved <br>
  54:/opt/XMClib/XMC_Peripheral_Library_v2.1.16/XMCLib/src/xmc4_scu.c ****  *     - Following API functionalities are improved
  55:/opt/XMClib/XMC_Peripheral_Library_v2.1.16/XMCLib/src/xmc4_scu.c ****  *       XMC_SCU_CLOCK_GatePeripheralClock, XMC_SCU_CLOCK_UngatePeripheralClock, XMC_SCU_CLOCK_IsPe
  56:/opt/XMClib/XMC_Peripheral_Library_v2.1.16/XMCLib/src/xmc4_scu.c ****  *       XMC_SCU_RESET_AssertPeripheralReset, XMC_SCU_RESET_DeassertPeripheralReset, XMC_SCU_RESET_
  57:/opt/XMClib/XMC_Peripheral_Library_v2.1.16/XMCLib/src/xmc4_scu.c ****  *
  58:/opt/XMClib/XMC_Peripheral_Library_v2.1.16/XMCLib/src/xmc4_scu.c ****  * 2015-12-08:
  59:/opt/XMClib/XMC_Peripheral_Library_v2.1.16/XMCLib/src/xmc4_scu.c ****  *     - XMC_SCU_GetTemperature renamed to XMC_SCU_GetTemperatureMeasurement
  60:/opt/XMClib/XMC_Peripheral_Library_v2.1.16/XMCLib/src/xmc4_scu.c ****  *
  61:/opt/XMClib/XMC_Peripheral_Library_v2.1.16/XMCLib/src/xmc4_scu.c ****  * 2016-03-09:
  62:/opt/XMClib/XMC_Peripheral_Library_v2.1.16/XMCLib/src/xmc4_scu.c ****  *     - Optimize write only registers
  63:/opt/XMClib/XMC_Peripheral_Library_v2.1.16/XMCLib/src/xmc4_scu.c ****  *     - Added XMC_SCU_HIB_SetPinMode
  64:/opt/XMClib/XMC_Peripheral_Library_v2.1.16/XMCLib/src/xmc4_scu.c ****  *     - Added XMC_SCU_HIB_GetHibernateControlStatus,
  65:/opt/XMClib/XMC_Peripheral_Library_v2.1.16/XMCLib/src/xmc4_scu.c ****  *             XMC_SCU_HIB_GetEventStatus, XMC_SCU_HIB_ClearEventStatus, XMC_SCU_HIB_TriggerEvent, 
  66:/opt/XMClib/XMC_Peripheral_Library_v2.1.16/XMCLib/src/xmc4_scu.c ****  *             XMC_SCU_HIB_EnableEvent, XMC_SCU_HIB_DisableEvent
  67:/opt/XMClib/XMC_Peripheral_Library_v2.1.16/XMCLib/src/xmc4_scu.c ****  *     - Added XMC_SCU_HIB_SetWakeupTriggerInput, XMC_SCU_HIB_SetPinMode, XMC_SCU_HIB_SetOutputPinL
  68:/opt/XMClib/XMC_Peripheral_Library_v2.1.16/XMCLib/src/xmc4_scu.c ****  *             XMC_SCU_HIB_SetInput0, XMC_SCU_HIB_EnterHibernateState
  69:/opt/XMClib/XMC_Peripheral_Library_v2.1.16/XMCLib/src/xmc4_scu.c ****  *
  70:/opt/XMClib/XMC_Peripheral_Library_v2.1.16/XMCLib/src/xmc4_scu.c ****  * 2016-04-06:
  71:/opt/XMClib/XMC_Peripheral_Library_v2.1.16/XMCLib/src/xmc4_scu.c ****  *     - Fixed XMC_SCU_ReadFromRetentionMemory functionality
  72:/opt/XMClib/XMC_Peripheral_Library_v2.1.16/XMCLib/src/xmc4_scu.c ****  *
  73:/opt/XMClib/XMC_Peripheral_Library_v2.1.16/XMCLib/src/xmc4_scu.c ****  * 2016-05-19:
  74:/opt/XMClib/XMC_Peripheral_Library_v2.1.16/XMCLib/src/xmc4_scu.c ****  *     - Changed XMC_SCU_CLOCK_StartSystemPll to avoid using floating point calculation which might
  75:/opt/XMClib/XMC_Peripheral_Library_v2.1.16/XMCLib/src/xmc4_scu.c ****  *     - Added XMC_SCU_CLOCK_IsLowPowerOscillatorStable() and XMC_SCU_CLOCK_IsHighPerformanceOscill
  76:/opt/XMClib/XMC_Peripheral_Library_v2.1.16/XMCLib/src/xmc4_scu.c ****  *     - Added XMC_SCU_CLOCK_EnableLowPowerOscillatorGeneralPurposeInput(), 
  77:/opt/XMClib/XMC_Peripheral_Library_v2.1.16/XMCLib/src/xmc4_scu.c ****  *             XMC_SCU_CLOCK_DisableLowPowerOscillatorGeneralPurposeInput(),
  78:/opt/XMClib/XMC_Peripheral_Library_v2.1.16/XMCLib/src/xmc4_scu.c ****  *             XMC_SCU_CLOCK_GetLowPowerOscillatorGeneralPurposeInputStatus()
  79:/opt/XMClib/XMC_Peripheral_Library_v2.1.16/XMCLib/src/xmc4_scu.c ****  *     - Added XMC_SCU_CLOCK_EnableHighPerformanceOscillatorGeneralPurposeInput(), 
  80:/opt/XMClib/XMC_Peripheral_Library_v2.1.16/XMCLib/src/xmc4_scu.c ****  *             XMC_SCU_CLOCK_DisableHighPerformanceOscillatorGeneralPurposeInput(),
  81:/opt/XMClib/XMC_Peripheral_Library_v2.1.16/XMCLib/src/xmc4_scu.c ****  *             XMC_SCU_CLOCK_GetHighPerformanceOscillatorGeneralPurposeInputStatus()
  82:/opt/XMClib/XMC_Peripheral_Library_v2.1.16/XMCLib/src/xmc4_scu.c ****  *
  83:/opt/XMClib/XMC_Peripheral_Library_v2.1.16/XMCLib/src/xmc4_scu.c ****  * 2016-06-15:
  84:/opt/XMClib/XMC_Peripheral_Library_v2.1.16/XMCLib/src/xmc4_scu.c ****  *     - Added XMC_SCU_HIB_EnterHibernateStateEx() which allows to select between external or inter
  85:/opt/XMClib/XMC_Peripheral_Library_v2.1.16/XMCLib/src/xmc4_scu.c ****  *     - Extended wakeup hibernate events using LPAC wakeup on events. Only available in XMC44, XMC
  86:/opt/XMClib/XMC_Peripheral_Library_v2.1.16/XMCLib/src/xmc4_scu.c ****  *     - Added LPAC APIs. Only available in XMC44, XMC42 and XMC41 series.
  87:/opt/XMClib/XMC_Peripheral_Library_v2.1.16/XMCLib/src/xmc4_scu.c ****  *
  88:/opt/XMClib/XMC_Peripheral_Library_v2.1.16/XMCLib/src/xmc4_scu.c ****  * @endcond 
  89:/opt/XMClib/XMC_Peripheral_Library_v2.1.16/XMCLib/src/xmc4_scu.c ****  *
  90:/opt/XMClib/XMC_Peripheral_Library_v2.1.16/XMCLib/src/xmc4_scu.c ****  */
  91:/opt/XMClib/XMC_Peripheral_Library_v2.1.16/XMCLib/src/xmc4_scu.c **** 
  92:/opt/XMClib/XMC_Peripheral_Library_v2.1.16/XMCLib/src/xmc4_scu.c **** /**
  93:/opt/XMClib/XMC_Peripheral_Library_v2.1.16/XMCLib/src/xmc4_scu.c ****  *
  94:/opt/XMClib/XMC_Peripheral_Library_v2.1.16/XMCLib/src/xmc4_scu.c ****  * @brief SCU low level driver API prototype definition for XMC4 family of microcontrollers. 
  95:/opt/XMClib/XMC_Peripheral_Library_v2.1.16/XMCLib/src/xmc4_scu.c ****  *
  96:/opt/XMClib/XMC_Peripheral_Library_v2.1.16/XMCLib/src/xmc4_scu.c ****  * <b>Detailed description of file:</b> <br>
  97:/opt/XMClib/XMC_Peripheral_Library_v2.1.16/XMCLib/src/xmc4_scu.c ****  * APIs provided in this file cover the following functional blocks of SCU: <br>
  98:/opt/XMClib/XMC_Peripheral_Library_v2.1.16/XMCLib/src/xmc4_scu.c ****  * -- GCU (APIs prefixed with XMC_SCU_GEN_) <br>
  99:/opt/XMClib/XMC_Peripheral_Library_v2.1.16/XMCLib/src/xmc4_scu.c ****  * ------ Temperature Monitoring, Bootmode selection, CCU Start, Comparator configuration etc  <br>
 100:/opt/XMClib/XMC_Peripheral_Library_v2.1.16/XMCLib/src/xmc4_scu.c ****  * -- CCU (APIs prefixed with XMC_SCU_CLOCK_) <br>
 101:/opt/XMClib/XMC_Peripheral_Library_v2.1.16/XMCLib/src/xmc4_scu.c ****  * ------ Clock sources init, Clock tree init, Clock gating, Sleep Management etc <br>
 102:/opt/XMClib/XMC_Peripheral_Library_v2.1.16/XMCLib/src/xmc4_scu.c ****  * -- RCU (APIs prefixed with XMC_SCU_RESET_) <br>
 103:/opt/XMClib/XMC_Peripheral_Library_v2.1.16/XMCLib/src/xmc4_scu.c ****  * ------ Reset Init, Cause, Manual Reset Assert/Deassert <br>
 104:/opt/XMClib/XMC_Peripheral_Library_v2.1.16/XMCLib/src/xmc4_scu.c ****  * -- INTERRUPT (APIs prefixed with XMC_SCU_INTERRUPT_) <br>
 105:/opt/XMClib/XMC_Peripheral_Library_v2.1.16/XMCLib/src/xmc4_scu.c ****  * ------ Init, Manual Assert/Deassert, Acknowledge etc <br>
 106:/opt/XMClib/XMC_Peripheral_Library_v2.1.16/XMCLib/src/xmc4_scu.c ****  * -- PARITY (APIs prefixed with XMC_SCU_PARITY_) <br>
 107:/opt/XMClib/XMC_Peripheral_Library_v2.1.16/XMCLib/src/xmc4_scu.c ****  * ------ Init, Acknowledge etc <br>
 108:/opt/XMClib/XMC_Peripheral_Library_v2.1.16/XMCLib/src/xmc4_scu.c ****  * -- HIBERNATION (APIs prefixed with XMC_SCU_HIB_) <br>
 109:/opt/XMClib/XMC_Peripheral_Library_v2.1.16/XMCLib/src/xmc4_scu.c ****  * ------ Hibernation entry/exit config, entry/wakeup sequences, LPAC configuration etc <br>
 110:/opt/XMClib/XMC_Peripheral_Library_v2.1.16/XMCLib/src/xmc4_scu.c ****  * -- TRAP (APIs prefixed with XMC_SCU_TRAP_) <br>
 111:/opt/XMClib/XMC_Peripheral_Library_v2.1.16/XMCLib/src/xmc4_scu.c ****  * ------ Init, Enable/Disable, Acknowledge etc <br>
 112:/opt/XMClib/XMC_Peripheral_Library_v2.1.16/XMCLib/src/xmc4_scu.c ****  *
 113:/opt/XMClib/XMC_Peripheral_Library_v2.1.16/XMCLib/src/xmc4_scu.c ****  */
 114:/opt/XMClib/XMC_Peripheral_Library_v2.1.16/XMCLib/src/xmc4_scu.c **** 
 115:/opt/XMClib/XMC_Peripheral_Library_v2.1.16/XMCLib/src/xmc4_scu.c **** /**************************************************************************************************
 116:/opt/XMClib/XMC_Peripheral_Library_v2.1.16/XMCLib/src/xmc4_scu.c ****  * HEADER FILES
 117:/opt/XMClib/XMC_Peripheral_Library_v2.1.16/XMCLib/src/xmc4_scu.c ****  **************************************************************************************************
 118:/opt/XMClib/XMC_Peripheral_Library_v2.1.16/XMCLib/src/xmc4_scu.c **** #include <xmc_scu.h>
 119:/opt/XMClib/XMC_Peripheral_Library_v2.1.16/XMCLib/src/xmc4_scu.c **** 
 120:/opt/XMClib/XMC_Peripheral_Library_v2.1.16/XMCLib/src/xmc4_scu.c **** #if UC_FAMILY == XMC4
 121:/opt/XMClib/XMC_Peripheral_Library_v2.1.16/XMCLib/src/xmc4_scu.c **** 
 122:/opt/XMClib/XMC_Peripheral_Library_v2.1.16/XMCLib/src/xmc4_scu.c **** /**************************************************************************************************
 123:/opt/XMClib/XMC_Peripheral_Library_v2.1.16/XMCLib/src/xmc4_scu.c ****  * MACROS
 124:/opt/XMClib/XMC_Peripheral_Library_v2.1.16/XMCLib/src/xmc4_scu.c ****  **************************************************************************************************
 125:/opt/XMClib/XMC_Peripheral_Library_v2.1.16/XMCLib/src/xmc4_scu.c **** #define FOSCREF   (2500000UL)    /**< Oscillator reference frequency (fOSCREF) monitored by Oscilla
 126:/opt/XMClib/XMC_Peripheral_Library_v2.1.16/XMCLib/src/xmc4_scu.c **** #define FREQ_1MHZ (1000000UL)    /**< Used during calculation. */
 127:/opt/XMClib/XMC_Peripheral_Library_v2.1.16/XMCLib/src/xmc4_scu.c **** 
 128:/opt/XMClib/XMC_Peripheral_Library_v2.1.16/XMCLib/src/xmc4_scu.c **** #ifndef OFI_FREQUENCY
 129:/opt/XMClib/XMC_Peripheral_Library_v2.1.16/XMCLib/src/xmc4_scu.c **** #define OFI_FREQUENCY (24000000UL)    /**< Fast internal backup clock source. */
 130:/opt/XMClib/XMC_Peripheral_Library_v2.1.16/XMCLib/src/xmc4_scu.c **** #endif
 131:/opt/XMClib/XMC_Peripheral_Library_v2.1.16/XMCLib/src/xmc4_scu.c **** 
 132:/opt/XMClib/XMC_Peripheral_Library_v2.1.16/XMCLib/src/xmc4_scu.c **** #ifndef OSI_FREQUENCY
 133:/opt/XMClib/XMC_Peripheral_Library_v2.1.16/XMCLib/src/xmc4_scu.c **** #define OSI_FREQUENCY (32768UL)    /**< Internal slow clock source. */
 134:/opt/XMClib/XMC_Peripheral_Library_v2.1.16/XMCLib/src/xmc4_scu.c **** #endif
 135:/opt/XMClib/XMC_Peripheral_Library_v2.1.16/XMCLib/src/xmc4_scu.c **** 
 136:/opt/XMClib/XMC_Peripheral_Library_v2.1.16/XMCLib/src/xmc4_scu.c **** #ifndef OSCHP_FREQUENCY
 137:/opt/XMClib/XMC_Peripheral_Library_v2.1.16/XMCLib/src/xmc4_scu.c **** #define OSCHP_FREQUENCY (12000000U)    /**< External crystal High Precision Oscillator. */
 138:/opt/XMClib/XMC_Peripheral_Library_v2.1.16/XMCLib/src/xmc4_scu.c **** #endif
 139:/opt/XMClib/XMC_Peripheral_Library_v2.1.16/XMCLib/src/xmc4_scu.c **** 
 140:/opt/XMClib/XMC_Peripheral_Library_v2.1.16/XMCLib/src/xmc4_scu.c **** #define XMC_SCU_PLL_PLLSTAT_OSC_USABLE  (SCU_PLL_PLLSTAT_PLLHV_Msk | \
 141:/opt/XMClib/XMC_Peripheral_Library_v2.1.16/XMCLib/src/xmc4_scu.c ****                                          SCU_PLL_PLLSTAT_PLLLV_Msk | \
 142:/opt/XMClib/XMC_Peripheral_Library_v2.1.16/XMCLib/src/xmc4_scu.c ****                                          SCU_PLL_PLLSTAT_PLLSP_Msk)  /**< Used to verify the OSC fr
 143:/opt/XMClib/XMC_Peripheral_Library_v2.1.16/XMCLib/src/xmc4_scu.c ****                                                                           usable or not.*/
 144:/opt/XMClib/XMC_Peripheral_Library_v2.1.16/XMCLib/src/xmc4_scu.c **** 
 145:/opt/XMClib/XMC_Peripheral_Library_v2.1.16/XMCLib/src/xmc4_scu.c **** #define XMC_SCU_ORC_ADC_START_GROUP    (0UL)    /**< The ADC group whose channel input is compared 
 146:/opt/XMClib/XMC_Peripheral_Library_v2.1.16/XMCLib/src/xmc4_scu.c ****                                                      Comparator (ORC) to serves the purpose of over
 147:/opt/XMClib/XMC_Peripheral_Library_v2.1.16/XMCLib/src/xmc4_scu.c ****                                                      for analog input pins of the chip and ORC star
 148:/opt/XMClib/XMC_Peripheral_Library_v2.1.16/XMCLib/src/xmc4_scu.c ****                                                      this group number. */
 149:/opt/XMClib/XMC_Peripheral_Library_v2.1.16/XMCLib/src/xmc4_scu.c **** #define XMC_SCU_ORC_ADC_END_GROUP      (1UL)    /**< The ADC group whose channel input is compared 
 150:/opt/XMClib/XMC_Peripheral_Library_v2.1.16/XMCLib/src/xmc4_scu.c ****                                                      Comparator (ORC) to serves the purpose of over
 151:/opt/XMClib/XMC_Peripheral_Library_v2.1.16/XMCLib/src/xmc4_scu.c ****                                                      for analog input pins of the chip and ORC end 
 152:/opt/XMClib/XMC_Peripheral_Library_v2.1.16/XMCLib/src/xmc4_scu.c ****                                                      this group number. */
 153:/opt/XMClib/XMC_Peripheral_Library_v2.1.16/XMCLib/src/xmc4_scu.c **** #define XMC_SCU_ORC_START_ADC_CHANNEL  (6UL)    /**< The ADC channel whose channel input is compare
 154:/opt/XMClib/XMC_Peripheral_Library_v2.1.16/XMCLib/src/xmc4_scu.c ****                                                      Comparator (ORC) to serves the purpose of over
 155:/opt/XMClib/XMC_Peripheral_Library_v2.1.16/XMCLib/src/xmc4_scu.c ****                                                      for analog input pins of the chip and ORC star
 156:/opt/XMClib/XMC_Peripheral_Library_v2.1.16/XMCLib/src/xmc4_scu.c ****                                                      this channel number. */
 157:/opt/XMClib/XMC_Peripheral_Library_v2.1.16/XMCLib/src/xmc4_scu.c **** #define XMC_SCU_ORC_END_ADC_CHANNEL    (7UL)    /**< The ADC channel whose channel input is compare
 158:/opt/XMClib/XMC_Peripheral_Library_v2.1.16/XMCLib/src/xmc4_scu.c ****                                                      Comparator (ORC) to serves the purpose of over
 159:/opt/XMClib/XMC_Peripheral_Library_v2.1.16/XMCLib/src/xmc4_scu.c ****                                                      for analog input pins of the chip and ORC ends
 160:/opt/XMClib/XMC_Peripheral_Library_v2.1.16/XMCLib/src/xmc4_scu.c ****                                                      this channel number. */
 161:/opt/XMClib/XMC_Peripheral_Library_v2.1.16/XMCLib/src/xmc4_scu.c **** 
 162:/opt/XMClib/XMC_Peripheral_Library_v2.1.16/XMCLib/src/xmc4_scu.c **** #define XMC_SCU_CHECK_GRPNUM(GROUP_NUM)   (((GROUP_NUM) == XMC_SCU_ORC_ADC_START_GROUP) || \
 163:/opt/XMClib/XMC_Peripheral_Library_v2.1.16/XMCLib/src/xmc4_scu.c ****                                         ((GROUP_NUM) == XMC_SCU_ORC_ADC_END_GROUP) ) /**< Used to v
 164:/opt/XMClib/XMC_Peripheral_Library_v2.1.16/XMCLib/src/xmc4_scu.c ****                                                                                       provided ADC 
 165:/opt/XMClib/XMC_Peripheral_Library_v2.1.16/XMCLib/src/xmc4_scu.c ****                                                                                       within specif
 166:/opt/XMClib/XMC_Peripheral_Library_v2.1.16/XMCLib/src/xmc4_scu.c ****                                                                                       end group num
 167:/opt/XMClib/XMC_Peripheral_Library_v2.1.16/XMCLib/src/xmc4_scu.c ****                                         
 168:/opt/XMClib/XMC_Peripheral_Library_v2.1.16/XMCLib/src/xmc4_scu.c **** #define XMC_SCU_CHECK_CHNUM(CH_NUM)       (((CH_NUM) == XMC_SCU_ORC_START_ADC_CHANNEL) || \
 169:/opt/XMClib/XMC_Peripheral_Library_v2.1.16/XMCLib/src/xmc4_scu.c ****                                         ((CH_NUM) == XMC_SCU_ORC_END_ADC_CHANNEL) )  /**< Used to v
 170:/opt/XMClib/XMC_Peripheral_Library_v2.1.16/XMCLib/src/xmc4_scu.c ****                                                                                       provided ADC 
 171:/opt/XMClib/XMC_Peripheral_Library_v2.1.16/XMCLib/src/xmc4_scu.c ****                                                                                       within specif
 172:/opt/XMClib/XMC_Peripheral_Library_v2.1.16/XMCLib/src/xmc4_scu.c ****                                                                                       end channel n
 173:/opt/XMClib/XMC_Peripheral_Library_v2.1.16/XMCLib/src/xmc4_scu.c **** 
 174:/opt/XMClib/XMC_Peripheral_Library_v2.1.16/XMCLib/src/xmc4_scu.c **** #define XMC_SCU_INTERRUPT_EVENT_MAX            (32U)      /**< Maximum supported SCU events. */
 175:/opt/XMClib/XMC_Peripheral_Library_v2.1.16/XMCLib/src/xmc4_scu.c **** 
 176:/opt/XMClib/XMC_Peripheral_Library_v2.1.16/XMCLib/src/xmc4_scu.c **** #define SCU_HIBERNATE_HDCR_HIBIOSEL_Size (4U)
 177:/opt/XMClib/XMC_Peripheral_Library_v2.1.16/XMCLib/src/xmc4_scu.c **** 
 178:/opt/XMClib/XMC_Peripheral_Library_v2.1.16/XMCLib/src/xmc4_scu.c **** #define SCU_HIBERNATE_OSCULCTRL_MODE_OSC_POWER_DOWN (0x2U)
 179:/opt/XMClib/XMC_Peripheral_Library_v2.1.16/XMCLib/src/xmc4_scu.c **** 
 180:/opt/XMClib/XMC_Peripheral_Library_v2.1.16/XMCLib/src/xmc4_scu.c **** #define XMC_SCU_POWER_LSB13V (0.0058F)
 181:/opt/XMClib/XMC_Peripheral_Library_v2.1.16/XMCLib/src/xmc4_scu.c **** #define XMC_SCU_POWER_LSB33V (0.0225F)
 182:/opt/XMClib/XMC_Peripheral_Library_v2.1.16/XMCLib/src/xmc4_scu.c **** 
 183:/opt/XMClib/XMC_Peripheral_Library_v2.1.16/XMCLib/src/xmc4_scu.c **** /**************************************************************************************************
 184:/opt/XMClib/XMC_Peripheral_Library_v2.1.16/XMCLib/src/xmc4_scu.c ****  * LOCAL DATA
 185:/opt/XMClib/XMC_Peripheral_Library_v2.1.16/XMCLib/src/xmc4_scu.c ****  **************************************************************************************************
 186:/opt/XMClib/XMC_Peripheral_Library_v2.1.16/XMCLib/src/xmc4_scu.c **** XMC_SCU_INTERRUPT_EVENT_HANDLER_t event_handler_list[XMC_SCU_INTERRUPT_EVENT_MAX]; /**< For registe
 187:/opt/XMClib/XMC_Peripheral_Library_v2.1.16/XMCLib/src/xmc4_scu.c ****                                                                                         functions o
 188:/opt/XMClib/XMC_Peripheral_Library_v2.1.16/XMCLib/src/xmc4_scu.c ****                                                                                         occurrence.
 189:/opt/XMClib/XMC_Peripheral_Library_v2.1.16/XMCLib/src/xmc4_scu.c **** 
 190:/opt/XMClib/XMC_Peripheral_Library_v2.1.16/XMCLib/src/xmc4_scu.c **** /**************************************************************************************************
 191:/opt/XMClib/XMC_Peripheral_Library_v2.1.16/XMCLib/src/xmc4_scu.c ****  * LOCAL ROUTINES
 192:/opt/XMClib/XMC_Peripheral_Library_v2.1.16/XMCLib/src/xmc4_scu.c ****  **************************************************************************************************
 193:/opt/XMClib/XMC_Peripheral_Library_v2.1.16/XMCLib/src/xmc4_scu.c ****  #if defined(UC_ID)
 194:/opt/XMClib/XMC_Peripheral_Library_v2.1.16/XMCLib/src/xmc4_scu.c **** /* This is a non-weak function, which retrieves high precision external oscillator frequency. */
 195:/opt/XMClib/XMC_Peripheral_Library_v2.1.16/XMCLib/src/xmc4_scu.c **** __WEAK uint32_t OSCHP_GetFrequency(void)
 196:/opt/XMClib/XMC_Peripheral_Library_v2.1.16/XMCLib/src/xmc4_scu.c **** {
 197:/opt/XMClib/XMC_Peripheral_Library_v2.1.16/XMCLib/src/xmc4_scu.c ****   return (OSCHP_FREQUENCY);
 198:/opt/XMClib/XMC_Peripheral_Library_v2.1.16/XMCLib/src/xmc4_scu.c **** }
 199:/opt/XMClib/XMC_Peripheral_Library_v2.1.16/XMCLib/src/xmc4_scu.c **** #endif
 200:/opt/XMClib/XMC_Peripheral_Library_v2.1.16/XMCLib/src/xmc4_scu.c **** 
 201:/opt/XMClib/XMC_Peripheral_Library_v2.1.16/XMCLib/src/xmc4_scu.c **** /* This is a local function used to generate the delay until register get updated with new configur
 202:/opt/XMClib/XMC_Peripheral_Library_v2.1.16/XMCLib/src/xmc4_scu.c **** static void XMC_SCU_lDelay(uint32_t cycles);
 203:/opt/XMClib/XMC_Peripheral_Library_v2.1.16/XMCLib/src/xmc4_scu.c **** 
 204:/opt/XMClib/XMC_Peripheral_Library_v2.1.16/XMCLib/src/xmc4_scu.c **** /**************************************************************************************************
 205:/opt/XMClib/XMC_Peripheral_Library_v2.1.16/XMCLib/src/xmc4_scu.c ****  * API IMPLEMENTATION
 206:/opt/XMClib/XMC_Peripheral_Library_v2.1.16/XMCLib/src/xmc4_scu.c ****  **************************************************************************************************
 207:/opt/XMClib/XMC_Peripheral_Library_v2.1.16/XMCLib/src/xmc4_scu.c **** /* This is a local function used to generate the delay until register get updated with new configur
 208:/opt/XMClib/XMC_Peripheral_Library_v2.1.16/XMCLib/src/xmc4_scu.c **** void XMC_SCU_lDelay(uint32_t delay)
 209:/opt/XMClib/XMC_Peripheral_Library_v2.1.16/XMCLib/src/xmc4_scu.c **** {
  26              		.loc 1 209 0
  27              		.cfi_startproc
  28              		@ args = 0, pretend = 0, frame = 0
  29              		@ frame_needed = 0, uses_anonymous_args = 0
  30              	.LVL0:
  31 0000 10B5     		push	{r4, lr}
  32              	.LCFI0:
  33              		.cfi_def_cfa_offset 8
  34              		.cfi_offset 4, -8
  35              		.cfi_offset 14, -4
  36 0002 0446     		mov	r4, r0
 210:/opt/XMClib/XMC_Peripheral_Library_v2.1.16/XMCLib/src/xmc4_scu.c ****   uint32_t i;
 211:/opt/XMClib/XMC_Peripheral_Library_v2.1.16/XMCLib/src/xmc4_scu.c **** 
 212:/opt/XMClib/XMC_Peripheral_Library_v2.1.16/XMCLib/src/xmc4_scu.c ****   SystemCoreClockUpdate();
  37              		.loc 1 212 0
  38 0004 FFF7FEFF 		bl	SystemCoreClockUpdate
  39              	.LVL1:
 213:/opt/XMClib/XMC_Peripheral_Library_v2.1.16/XMCLib/src/xmc4_scu.c ****   delay =  delay * (uint32_t)(SystemCoreClock / FREQ_1MHZ);
  40              		.loc 1 213 0
  41 0008 074B     		ldr	r3, .L6
  42 000a 1868     		ldr	r0, [r3]
  43 000c 074B     		ldr	r3, .L6+4
  44 000e A3FB0030 		umull	r3, r0, r3, r0
  45 0012 800C     		lsrs	r0, r0, #18
  46 0014 04FB00F0 		mul	r0, r4, r0
  47              	.LVL2:
 214:/opt/XMClib/XMC_Peripheral_Library_v2.1.16/XMCLib/src/xmc4_scu.c **** 
 215:/opt/XMClib/XMC_Peripheral_Library_v2.1.16/XMCLib/src/xmc4_scu.c ****   for (i = 0U; i < delay; ++i)
  48              		.loc 1 215 0
  49 0018 20B1     		cbz	r0, .L1
  50 001a 0023     		movs	r3, #0
  51              	.LVL3:
  52              	.L3:
 216:/opt/XMClib/XMC_Peripheral_Library_v2.1.16/XMCLib/src/xmc4_scu.c ****   {
 217:/opt/XMClib/XMC_Peripheral_Library_v2.1.16/XMCLib/src/xmc4_scu.c ****     __NOP();
  53              		.loc 1 217 0 discriminator 3
  54              		.syntax unified
  55              	@ 217 "/opt/XMClib/XMC_Peripheral_Library_v2.1.16/XMCLib/src/xmc4_scu.c" 1
  56 001c 00BF     		nop
  57              	@ 0 "" 2
 215:/opt/XMClib/XMC_Peripheral_Library_v2.1.16/XMCLib/src/xmc4_scu.c ****   {
  58              		.loc 1 215 0 discriminator 3
  59              		.thumb
  60              		.syntax unified
  61 001e 0133     		adds	r3, r3, #1
  62              	.LVL4:
  63 0020 9842     		cmp	r0, r3
  64 0022 FBD1     		bne	.L3
  65              	.LVL5:
  66              	.L1:
 218:/opt/XMClib/XMC_Peripheral_Library_v2.1.16/XMCLib/src/xmc4_scu.c ****   }
 219:/opt/XMClib/XMC_Peripheral_Library_v2.1.16/XMCLib/src/xmc4_scu.c **** }
  67              		.loc 1 219 0
  68 0024 10BD     		pop	{r4, pc}
  69              	.L7:
  70 0026 00BF     		.align	2
  71              	.L6:
  72 0028 00000000 		.word	SystemCoreClock
  73 002c 83DE1B43 		.word	1125899907
  74              		.cfi_endproc
  75              	.LFE162:
  77              		.section	.text.XMC_SCU_INTERRUPT_EnableEvent,"ax",%progbits
  78              		.align	1
  79              		.global	XMC_SCU_INTERRUPT_EnableEvent
  80              		.syntax unified
  81              		.thumb
  82              		.thumb_func
  83              		.fpu fpv4-sp-d16
  85              	XMC_SCU_INTERRUPT_EnableEvent:
  86              	.LFB163:
 220:/opt/XMClib/XMC_Peripheral_Library_v2.1.16/XMCLib/src/xmc4_scu.c **** 
 221:/opt/XMClib/XMC_Peripheral_Library_v2.1.16/XMCLib/src/xmc4_scu.c **** /* API to enable the SCU event */
 222:/opt/XMClib/XMC_Peripheral_Library_v2.1.16/XMCLib/src/xmc4_scu.c **** void XMC_SCU_INTERRUPT_EnableEvent(const XMC_SCU_INTERRUPT_EVENT_t event)
 223:/opt/XMClib/XMC_Peripheral_Library_v2.1.16/XMCLib/src/xmc4_scu.c **** {
  87              		.loc 1 223 0
  88              		.cfi_startproc
  89              		@ args = 0, pretend = 0, frame = 0
  90              		@ frame_needed = 0, uses_anonymous_args = 0
  91              		@ link register save eliminated.
  92              	.LVL6:
 224:/opt/XMClib/XMC_Peripheral_Library_v2.1.16/XMCLib/src/xmc4_scu.c ****   SCU_INTERRUPT->SRMSK |= (uint32_t)event;
  93              		.loc 1 224 0
  94 0000 024A     		ldr	r2, .L9
  95 0002 9368     		ldr	r3, [r2, #8]
  96 0004 1843     		orrs	r0, r0, r3
  97              	.LVL7:
  98 0006 9060     		str	r0, [r2, #8]
 225:/opt/XMClib/XMC_Peripheral_Library_v2.1.16/XMCLib/src/xmc4_scu.c **** }
  99              		.loc 1 225 0
 100 0008 7047     		bx	lr
 101              	.L10:
 102 000a 00BF     		.align	2
 103              	.L9:
 104 000c 74400050 		.word	1342193780
 105              		.cfi_endproc
 106              	.LFE163:
 108              		.section	.text.XMC_SCU_INTERRUPT_DisableEvent,"ax",%progbits
 109              		.align	1
 110              		.global	XMC_SCU_INTERRUPT_DisableEvent
 111              		.syntax unified
 112              		.thumb
 113              		.thumb_func
 114              		.fpu fpv4-sp-d16
 116              	XMC_SCU_INTERRUPT_DisableEvent:
 117              	.LFB164:
 226:/opt/XMClib/XMC_Peripheral_Library_v2.1.16/XMCLib/src/xmc4_scu.c **** 
 227:/opt/XMClib/XMC_Peripheral_Library_v2.1.16/XMCLib/src/xmc4_scu.c **** /* API to disable the SCU event */
 228:/opt/XMClib/XMC_Peripheral_Library_v2.1.16/XMCLib/src/xmc4_scu.c **** void XMC_SCU_INTERRUPT_DisableEvent(const XMC_SCU_INTERRUPT_EVENT_t event)
 229:/opt/XMClib/XMC_Peripheral_Library_v2.1.16/XMCLib/src/xmc4_scu.c **** {
 118              		.loc 1 229 0
 119              		.cfi_startproc
 120              		@ args = 0, pretend = 0, frame = 0
 121              		@ frame_needed = 0, uses_anonymous_args = 0
 122              		@ link register save eliminated.
 123              	.LVL8:
 230:/opt/XMClib/XMC_Peripheral_Library_v2.1.16/XMCLib/src/xmc4_scu.c ****   SCU_INTERRUPT->SRMSK &= (uint32_t)~event;
 124              		.loc 1 230 0
 125 0000 024A     		ldr	r2, .L12
 126 0002 9368     		ldr	r3, [r2, #8]
 127 0004 23EA0000 		bic	r0, r3, r0
 128              	.LVL9:
 129 0008 9060     		str	r0, [r2, #8]
 231:/opt/XMClib/XMC_Peripheral_Library_v2.1.16/XMCLib/src/xmc4_scu.c **** }
 130              		.loc 1 231 0
 131 000a 7047     		bx	lr
 132              	.L13:
 133              		.align	2
 134              	.L12:
 135 000c 74400050 		.word	1342193780
 136              		.cfi_endproc
 137              	.LFE164:
 139              		.section	.text.XMC_SCU_INTERRUPT_TriggerEvent,"ax",%progbits
 140              		.align	1
 141              		.global	XMC_SCU_INTERRUPT_TriggerEvent
 142              		.syntax unified
 143              		.thumb
 144              		.thumb_func
 145              		.fpu fpv4-sp-d16
 147              	XMC_SCU_INTERRUPT_TriggerEvent:
 148              	.LFB165:
 232:/opt/XMClib/XMC_Peripheral_Library_v2.1.16/XMCLib/src/xmc4_scu.c **** 
 233:/opt/XMClib/XMC_Peripheral_Library_v2.1.16/XMCLib/src/xmc4_scu.c **** /* API to trigger the SCU event */
 234:/opt/XMClib/XMC_Peripheral_Library_v2.1.16/XMCLib/src/xmc4_scu.c **** void XMC_SCU_INTERRUPT_TriggerEvent(const XMC_SCU_INTERRUPT_EVENT_t event)
 235:/opt/XMClib/XMC_Peripheral_Library_v2.1.16/XMCLib/src/xmc4_scu.c **** {
 149              		.loc 1 235 0
 150              		.cfi_startproc
 151              		@ args = 0, pretend = 0, frame = 0
 152              		@ frame_needed = 0, uses_anonymous_args = 0
 153              		@ link register save eliminated.
 154              	.LVL10:
 236:/opt/XMClib/XMC_Peripheral_Library_v2.1.16/XMCLib/src/xmc4_scu.c ****   SCU_INTERRUPT->SRSET |= (uint32_t)event;
 155              		.loc 1 236 0
 156 0000 024A     		ldr	r2, .L15
 157 0002 1369     		ldr	r3, [r2, #16]
 158 0004 1843     		orrs	r0, r0, r3
 159              	.LVL11:
 160 0006 1061     		str	r0, [r2, #16]
 237:/opt/XMClib/XMC_Peripheral_Library_v2.1.16/XMCLib/src/xmc4_scu.c **** }
 161              		.loc 1 237 0
 162 0008 7047     		bx	lr
 163              	.L16:
 164 000a 00BF     		.align	2
 165              	.L15:
 166 000c 74400050 		.word	1342193780
 167              		.cfi_endproc
 168              	.LFE165:
 170              		.section	.text.XMC_SCU_INTERUPT_GetEventStatus,"ax",%progbits
 171              		.align	1
 172              		.global	XMC_SCU_INTERUPT_GetEventStatus
 173              		.syntax unified
 174              		.thumb
 175              		.thumb_func
 176              		.fpu fpv4-sp-d16
 178              	XMC_SCU_INTERUPT_GetEventStatus:
 179              	.LFB166:
 238:/opt/XMClib/XMC_Peripheral_Library_v2.1.16/XMCLib/src/xmc4_scu.c **** 
 239:/opt/XMClib/XMC_Peripheral_Library_v2.1.16/XMCLib/src/xmc4_scu.c **** /* API to retrieve the SCU event status */
 240:/opt/XMClib/XMC_Peripheral_Library_v2.1.16/XMCLib/src/xmc4_scu.c **** XMC_SCU_INTERRUPT_EVENT_t XMC_SCU_INTERUPT_GetEventStatus(void)
 241:/opt/XMClib/XMC_Peripheral_Library_v2.1.16/XMCLib/src/xmc4_scu.c **** {
 180              		.loc 1 241 0
 181              		.cfi_startproc
 182              		@ args = 0, pretend = 0, frame = 0
 183              		@ frame_needed = 0, uses_anonymous_args = 0
 184              		@ link register save eliminated.
 242:/opt/XMClib/XMC_Peripheral_Library_v2.1.16/XMCLib/src/xmc4_scu.c ****   return (SCU_INTERRUPT->SRRAW);
 185              		.loc 1 242 0
 186 0000 014B     		ldr	r3, .L18
 187 0002 5868     		ldr	r0, [r3, #4]
 243:/opt/XMClib/XMC_Peripheral_Library_v2.1.16/XMCLib/src/xmc4_scu.c **** }
 188              		.loc 1 243 0
 189 0004 7047     		bx	lr
 190              	.L19:
 191 0006 00BF     		.align	2
 192              	.L18:
 193 0008 74400050 		.word	1342193780
 194              		.cfi_endproc
 195              	.LFE166:
 197              		.section	.text.XMC_SCU_INTERRUPT_ClearEventStatus,"ax",%progbits
 198              		.align	1
 199              		.global	XMC_SCU_INTERRUPT_ClearEventStatus
 200              		.syntax unified
 201              		.thumb
 202              		.thumb_func
 203              		.fpu fpv4-sp-d16
 205              	XMC_SCU_INTERRUPT_ClearEventStatus:
 206              	.LFB167:
 244:/opt/XMClib/XMC_Peripheral_Library_v2.1.16/XMCLib/src/xmc4_scu.c **** 
 245:/opt/XMClib/XMC_Peripheral_Library_v2.1.16/XMCLib/src/xmc4_scu.c **** /* API to clear the SCU event status */
 246:/opt/XMClib/XMC_Peripheral_Library_v2.1.16/XMCLib/src/xmc4_scu.c **** void XMC_SCU_INTERRUPT_ClearEventStatus(const XMC_SCU_INTERRUPT_EVENT_t event)
 247:/opt/XMClib/XMC_Peripheral_Library_v2.1.16/XMCLib/src/xmc4_scu.c **** {
 207              		.loc 1 247 0
 208              		.cfi_startproc
 209              		@ args = 0, pretend = 0, frame = 0
 210              		@ frame_needed = 0, uses_anonymous_args = 0
 211              		@ link register save eliminated.
 212              	.LVL12:
 248:/opt/XMClib/XMC_Peripheral_Library_v2.1.16/XMCLib/src/xmc4_scu.c ****   SCU_INTERRUPT->SRCLR = (uint32_t)event;
 213              		.loc 1 248 0
 214 0000 014B     		ldr	r3, .L21
 215 0002 D860     		str	r0, [r3, #12]
 249:/opt/XMClib/XMC_Peripheral_Library_v2.1.16/XMCLib/src/xmc4_scu.c **** }
 216              		.loc 1 249 0
 217 0004 7047     		bx	lr
 218              	.L22:
 219 0006 00BF     		.align	2
 220              	.L21:
 221 0008 74400050 		.word	1342193780
 222              		.cfi_endproc
 223              	.LFE167:
 225              		.section	.text.XMC_SCU_GetBootMode,"ax",%progbits
 226              		.align	1
 227              		.global	XMC_SCU_GetBootMode
 228              		.syntax unified
 229              		.thumb
 230              		.thumb_func
 231              		.fpu fpv4-sp-d16
 233              	XMC_SCU_GetBootMode:
 234              	.LFB168:
 250:/opt/XMClib/XMC_Peripheral_Library_v2.1.16/XMCLib/src/xmc4_scu.c **** 
 251:/opt/XMClib/XMC_Peripheral_Library_v2.1.16/XMCLib/src/xmc4_scu.c **** 
 252:/opt/XMClib/XMC_Peripheral_Library_v2.1.16/XMCLib/src/xmc4_scu.c **** /* API to retrieve the currently deployed device bootmode */
 253:/opt/XMClib/XMC_Peripheral_Library_v2.1.16/XMCLib/src/xmc4_scu.c **** uint32_t XMC_SCU_GetBootMode(void)
 254:/opt/XMClib/XMC_Peripheral_Library_v2.1.16/XMCLib/src/xmc4_scu.c **** {
 235              		.loc 1 254 0
 236              		.cfi_startproc
 237              		@ args = 0, pretend = 0, frame = 0
 238              		@ frame_needed = 0, uses_anonymous_args = 0
 239              		@ link register save eliminated.
 255:/opt/XMClib/XMC_Peripheral_Library_v2.1.16/XMCLib/src/xmc4_scu.c ****   return (uint32_t)(SCU_GENERAL->STCON & SCU_GENERAL_STCON_SWCON_Msk);
 240              		.loc 1 255 0
 241 0000 024B     		ldr	r3, .L24
 242 0002 1869     		ldr	r0, [r3, #16]
 256:/opt/XMClib/XMC_Peripheral_Library_v2.1.16/XMCLib/src/xmc4_scu.c **** }
 243              		.loc 1 256 0
 244 0004 00F47060 		and	r0, r0, #3840
 245 0008 7047     		bx	lr
 246              	.L25:
 247 000a 00BF     		.align	2
 248              	.L24:
 249 000c 00400050 		.word	1342193664
 250              		.cfi_endproc
 251              	.LFE168:
 253              		.section	.text.XMC_SCU_SetBootMode,"ax",%progbits
 254              		.align	1
 255              		.global	XMC_SCU_SetBootMode
 256              		.syntax unified
 257              		.thumb
 258              		.thumb_func
 259              		.fpu fpv4-sp-d16
 261              	XMC_SCU_SetBootMode:
 262              	.LFB169:
 257:/opt/XMClib/XMC_Peripheral_Library_v2.1.16/XMCLib/src/xmc4_scu.c **** 
 258:/opt/XMClib/XMC_Peripheral_Library_v2.1.16/XMCLib/src/xmc4_scu.c **** /* API to program a new device bootmode */
 259:/opt/XMClib/XMC_Peripheral_Library_v2.1.16/XMCLib/src/xmc4_scu.c **** void XMC_SCU_SetBootMode(const XMC_SCU_BOOTMODE_t bootmode)
 260:/opt/XMClib/XMC_Peripheral_Library_v2.1.16/XMCLib/src/xmc4_scu.c **** {
 263              		.loc 1 260 0
 264              		.cfi_startproc
 265              		@ args = 0, pretend = 0, frame = 0
 266              		@ frame_needed = 0, uses_anonymous_args = 0
 267              		@ link register save eliminated.
 268              	.LVL13:
 261:/opt/XMClib/XMC_Peripheral_Library_v2.1.16/XMCLib/src/xmc4_scu.c ****   SCU_GENERAL->STCON = (uint32_t)bootmode;
 269              		.loc 1 261 0
 270 0000 014B     		ldr	r3, .L27
 271 0002 1861     		str	r0, [r3, #16]
 262:/opt/XMClib/XMC_Peripheral_Library_v2.1.16/XMCLib/src/xmc4_scu.c **** }
 272              		.loc 1 262 0
 273 0004 7047     		bx	lr
 274              	.L28:
 275 0006 00BF     		.align	2
 276              	.L27:
 277 0008 00400050 		.word	1342193664
 278              		.cfi_endproc
 279              	.LFE169:
 281              		.section	.text.XMC_SCU_ReadGPR,"ax",%progbits
 282              		.align	1
 283              		.global	XMC_SCU_ReadGPR
 284              		.syntax unified
 285              		.thumb
 286              		.thumb_func
 287              		.fpu fpv4-sp-d16
 289              	XMC_SCU_ReadGPR:
 290              	.LFB170:
 263:/opt/XMClib/XMC_Peripheral_Library_v2.1.16/XMCLib/src/xmc4_scu.c **** 
 264:/opt/XMClib/XMC_Peripheral_Library_v2.1.16/XMCLib/src/xmc4_scu.c **** /* API to read from General purpose register */
 265:/opt/XMClib/XMC_Peripheral_Library_v2.1.16/XMCLib/src/xmc4_scu.c **** uint32_t XMC_SCU_ReadGPR(const uint32_t index)
 266:/opt/XMClib/XMC_Peripheral_Library_v2.1.16/XMCLib/src/xmc4_scu.c **** {
 291              		.loc 1 266 0
 292              		.cfi_startproc
 293              		@ args = 0, pretend = 0, frame = 0
 294              		@ frame_needed = 0, uses_anonymous_args = 0
 295              		@ link register save eliminated.
 296              	.LVL14:
 267:/opt/XMClib/XMC_Peripheral_Library_v2.1.16/XMCLib/src/xmc4_scu.c ****   return (SCU_GENERAL->GPR[index]);
 297              		.loc 1 267 0
 298 0000 8000     		lsls	r0, r0, #2
 299              	.LVL15:
 300 0002 014B     		ldr	r3, .L30
 301 0004 1858     		ldr	r0, [r3, r0]
 268:/opt/XMClib/XMC_Peripheral_Library_v2.1.16/XMCLib/src/xmc4_scu.c **** }
 302              		.loc 1 268 0
 303 0006 7047     		bx	lr
 304              	.L31:
 305              		.align	2
 306              	.L30:
 307 0008 2C400050 		.word	1342193708
 308              		.cfi_endproc
 309              	.LFE170:
 311              		.section	.text.XMC_SCU_WriteGPR,"ax",%progbits
 312              		.align	1
 313              		.global	XMC_SCU_WriteGPR
 314              		.syntax unified
 315              		.thumb
 316              		.thumb_func
 317              		.fpu fpv4-sp-d16
 319              	XMC_SCU_WriteGPR:
 320              	.LFB171:
 269:/opt/XMClib/XMC_Peripheral_Library_v2.1.16/XMCLib/src/xmc4_scu.c **** 
 270:/opt/XMClib/XMC_Peripheral_Library_v2.1.16/XMCLib/src/xmc4_scu.c **** /* API to write to GPR */
 271:/opt/XMClib/XMC_Peripheral_Library_v2.1.16/XMCLib/src/xmc4_scu.c **** void XMC_SCU_WriteGPR(const uint32_t index, const uint32_t data)
 272:/opt/XMClib/XMC_Peripheral_Library_v2.1.16/XMCLib/src/xmc4_scu.c **** {
 321              		.loc 1 272 0
 322              		.cfi_startproc
 323              		@ args = 0, pretend = 0, frame = 0
 324              		@ frame_needed = 0, uses_anonymous_args = 0
 325              		@ link register save eliminated.
 326              	.LVL16:
 273:/opt/XMClib/XMC_Peripheral_Library_v2.1.16/XMCLib/src/xmc4_scu.c ****   SCU_GENERAL->GPR[index] = data;
 327              		.loc 1 273 0
 328 0000 8000     		lsls	r0, r0, #2
 329              	.LVL17:
 330 0002 014B     		ldr	r3, .L33
 331 0004 1950     		str	r1, [r3, r0]
 274:/opt/XMClib/XMC_Peripheral_Library_v2.1.16/XMCLib/src/xmc4_scu.c **** }
 332              		.loc 1 274 0
 333 0006 7047     		bx	lr
 334              	.L34:
 335              		.align	2
 336              	.L33:
 337 0008 2C400050 		.word	1342193708
 338              		.cfi_endproc
 339              	.LFE171:
 341              		.section	.text.XMC_SCU_EnableOutOfRangeComparator,"ax",%progbits
 342              		.align	1
 343              		.global	XMC_SCU_EnableOutOfRangeComparator
 344              		.syntax unified
 345              		.thumb
 346              		.thumb_func
 347              		.fpu fpv4-sp-d16
 349              	XMC_SCU_EnableOutOfRangeComparator:
 350              	.LFB172:
 275:/opt/XMClib/XMC_Peripheral_Library_v2.1.16/XMCLib/src/xmc4_scu.c **** 
 276:/opt/XMClib/XMC_Peripheral_Library_v2.1.16/XMCLib/src/xmc4_scu.c **** /* API to enable Out of Range Comparator(ORC) for a desired group and a desired channel input */
 277:/opt/XMClib/XMC_Peripheral_Library_v2.1.16/XMCLib/src/xmc4_scu.c **** void XMC_SCU_EnableOutOfRangeComparator(const uint32_t group, const uint32_t channel)
 278:/opt/XMClib/XMC_Peripheral_Library_v2.1.16/XMCLib/src/xmc4_scu.c **** {
 351              		.loc 1 278 0
 352              		.cfi_startproc
 353              		@ args = 0, pretend = 0, frame = 0
 354              		@ frame_needed = 0, uses_anonymous_args = 0
 355              		@ link register save eliminated.
 356              	.LVL18:
 357 0000 8000     		lsls	r0, r0, #2
 358              	.LVL19:
 359 0002 00F1A040 		add	r0, r0, #1342177280
 360 0006 00F58040 		add	r0, r0, #16384
 279:/opt/XMClib/XMC_Peripheral_Library_v2.1.16/XMCLib/src/xmc4_scu.c ****   XMC_ASSERT("XMC_SCU_EnableOutOfangeComparator:Wrong Group Number",XMC_SCU_CHECK_GRPNUM(group));
 280:/opt/XMClib/XMC_Peripheral_Library_v2.1.16/XMCLib/src/xmc4_scu.c ****   XMC_ASSERT("XMC_SCU_EnableOutOfangeComparator:Wrong Channel Number",XMC_SCU_CHECK_CHNUM(channel))
 281:/opt/XMClib/XMC_Peripheral_Library_v2.1.16/XMCLib/src/xmc4_scu.c ****    
 282:/opt/XMClib/XMC_Peripheral_Library_v2.1.16/XMCLib/src/xmc4_scu.c ****   SCU_GENERAL->GORCEN[group] |= (uint32_t)(1UL << channel);
 361              		.loc 1 282 0
 362 000a D0F8A020 		ldr	r2, [r0, #160]
 363 000e 0123     		movs	r3, #1
 364 0010 03FA01F1 		lsl	r1, r3, r1
 365              	.LVL20:
 366 0014 1143     		orrs	r1, r1, r2
 367 0016 C0F8A010 		str	r1, [r0, #160]
 283:/opt/XMClib/XMC_Peripheral_Library_v2.1.16/XMCLib/src/xmc4_scu.c **** }
 368              		.loc 1 283 0
 369 001a 7047     		bx	lr
 370              		.cfi_endproc
 371              	.LFE172:
 373              		.section	.text.XMC_SCU_DisableOutOfRangeComparator,"ax",%progbits
 374              		.align	1
 375              		.global	XMC_SCU_DisableOutOfRangeComparator
 376              		.syntax unified
 377              		.thumb
 378              		.thumb_func
 379              		.fpu fpv4-sp-d16
 381              	XMC_SCU_DisableOutOfRangeComparator:
 382              	.LFB173:
 284:/opt/XMClib/XMC_Peripheral_Library_v2.1.16/XMCLib/src/xmc4_scu.c **** 
 285:/opt/XMClib/XMC_Peripheral_Library_v2.1.16/XMCLib/src/xmc4_scu.c **** /* API to enable Out of Range Comparator(ORC) for a desired group and a desired channel input */
 286:/opt/XMClib/XMC_Peripheral_Library_v2.1.16/XMCLib/src/xmc4_scu.c **** void XMC_SCU_DisableOutOfRangeComparator(const uint32_t group, const uint32_t channel)
 287:/opt/XMClib/XMC_Peripheral_Library_v2.1.16/XMCLib/src/xmc4_scu.c **** {
 383              		.loc 1 287 0
 384              		.cfi_startproc
 385              		@ args = 0, pretend = 0, frame = 0
 386              		@ frame_needed = 0, uses_anonymous_args = 0
 387              		@ link register save eliminated.
 388              	.LVL21:
 389 0000 8000     		lsls	r0, r0, #2
 390              	.LVL22:
 391 0002 00F1A040 		add	r0, r0, #1342177280
 392 0006 00F58040 		add	r0, r0, #16384
 288:/opt/XMClib/XMC_Peripheral_Library_v2.1.16/XMCLib/src/xmc4_scu.c ****   XMC_ASSERT("XMC_SCU_DisableOutOfRangeComparator:Wrong Group Number",XMC_SCU_CHECK_GRPNUM(group));
 289:/opt/XMClib/XMC_Peripheral_Library_v2.1.16/XMCLib/src/xmc4_scu.c ****   XMC_ASSERT("XMC_SCU_DisableOutOfRangeComparator:Wrong Channel Number",XMC_SCU_CHECK_CHNUM(channel
 290:/opt/XMClib/XMC_Peripheral_Library_v2.1.16/XMCLib/src/xmc4_scu.c ****    
 291:/opt/XMClib/XMC_Peripheral_Library_v2.1.16/XMCLib/src/xmc4_scu.c ****   SCU_GENERAL->GORCEN[group] &= (uint32_t)~(1UL << channel);
 393              		.loc 1 291 0
 394 000a D0F8A030 		ldr	r3, [r0, #160]
 395 000e 0122     		movs	r2, #1
 396 0010 02FA01F1 		lsl	r1, r2, r1
 397              	.LVL23:
 398 0014 23EA0103 		bic	r3, r3, r1
 399 0018 C0F8A030 		str	r3, [r0, #160]
 292:/opt/XMClib/XMC_Peripheral_Library_v2.1.16/XMCLib/src/xmc4_scu.c **** }
 400              		.loc 1 292 0
 401 001c 7047     		bx	lr
 402              		.cfi_endproc
 403              	.LFE173:
 405              		.section	.text.XMC_SCU_CalibrateTemperatureSensor,"ax",%progbits
 406              		.align	1
 407              		.global	XMC_SCU_CalibrateTemperatureSensor
 408              		.syntax unified
 409              		.thumb
 410              		.thumb_func
 411              		.fpu fpv4-sp-d16
 413              	XMC_SCU_CalibrateTemperatureSensor:
 414              	.LFB174:
 293:/opt/XMClib/XMC_Peripheral_Library_v2.1.16/XMCLib/src/xmc4_scu.c **** 
 294:/opt/XMClib/XMC_Peripheral_Library_v2.1.16/XMCLib/src/xmc4_scu.c **** /* API to calibrate temperature sensor */
 295:/opt/XMClib/XMC_Peripheral_Library_v2.1.16/XMCLib/src/xmc4_scu.c **** void XMC_SCU_CalibrateTemperatureSensor(uint32_t offset, uint32_t gain)
 296:/opt/XMClib/XMC_Peripheral_Library_v2.1.16/XMCLib/src/xmc4_scu.c **** {
 415              		.loc 1 296 0
 416              		.cfi_startproc
 417              		@ args = 0, pretend = 0, frame = 0
 418              		@ frame_needed = 0, uses_anonymous_args = 0
 419              		@ link register save eliminated.
 420              	.LVL24:
 297:/opt/XMClib/XMC_Peripheral_Library_v2.1.16/XMCLib/src/xmc4_scu.c ****   SCU_GENERAL->DTSCON = ((uint32_t)(offset << SCU_GENERAL_DTSCON_OFFSET_Pos) |
 298:/opt/XMClib/XMC_Peripheral_Library_v2.1.16/XMCLib/src/xmc4_scu.c ****                         (uint32_t)(gain << SCU_GENERAL_DTSCON_GAIN_Pos) |
 421              		.loc 1 298 0
 422 0000 C902     		lsls	r1, r1, #11
 423              	.LVL25:
 299:/opt/XMClib/XMC_Peripheral_Library_v2.1.16/XMCLib/src/xmc4_scu.c ****                         (uint32_t)(0x4UL << SCU_GENERAL_DTSCON_REFTRIM_Pos) |
 424              		.loc 1 299 0
 425 0002 41F40801 		orr	r1, r1, #8912896
 426 0006 41EA0011 		orr	r1, r1, r0, lsl #4
 297:/opt/XMClib/XMC_Peripheral_Library_v2.1.16/XMCLib/src/xmc4_scu.c ****   SCU_GENERAL->DTSCON = ((uint32_t)(offset << SCU_GENERAL_DTSCON_OFFSET_Pos) |
 427              		.loc 1 297 0
 428 000a 024B     		ldr	r3, .L38
 429 000c C3F88C10 		str	r1, [r3, #140]
 300:/opt/XMClib/XMC_Peripheral_Library_v2.1.16/XMCLib/src/xmc4_scu.c ****                         (uint32_t)(0x8UL << SCU_GENERAL_DTSCON_BGTRIM_Pos));
 301:/opt/XMClib/XMC_Peripheral_Library_v2.1.16/XMCLib/src/xmc4_scu.c **** }
 430              		.loc 1 301 0
 431 0010 7047     		bx	lr
 432              	.L39:
 433 0012 00BF     		.align	2
 434              	.L38:
 435 0014 00400050 		.word	1342193664
 436              		.cfi_endproc
 437              	.LFE174:
 439              		.section	.text.XMC_SCU_EnableTemperatureSensor,"ax",%progbits
 440              		.align	1
 441              		.global	XMC_SCU_EnableTemperatureSensor
 442              		.syntax unified
 443              		.thumb
 444              		.thumb_func
 445              		.fpu fpv4-sp-d16
 447              	XMC_SCU_EnableTemperatureSensor:
 448              	.LFB175:
 302:/opt/XMClib/XMC_Peripheral_Library_v2.1.16/XMCLib/src/xmc4_scu.c **** /* API to enable die temperature measurement by powering the DTS module. */
 303:/opt/XMClib/XMC_Peripheral_Library_v2.1.16/XMCLib/src/xmc4_scu.c **** void XMC_SCU_EnableTemperatureSensor(void)
 304:/opt/XMClib/XMC_Peripheral_Library_v2.1.16/XMCLib/src/xmc4_scu.c **** {
 449              		.loc 1 304 0
 450              		.cfi_startproc
 451              		@ args = 0, pretend = 0, frame = 0
 452              		@ frame_needed = 0, uses_anonymous_args = 0
 453              		@ link register save eliminated.
 305:/opt/XMClib/XMC_Peripheral_Library_v2.1.16/XMCLib/src/xmc4_scu.c ****   SCU_GENERAL->DTSCON &= (uint32_t)~(SCU_GENERAL_DTSCON_PWD_Msk);
 454              		.loc 1 305 0
 455 0000 034A     		ldr	r2, .L41
 456 0002 D2F88C30 		ldr	r3, [r2, #140]
 457 0006 23F00103 		bic	r3, r3, #1
 458 000a C2F88C30 		str	r3, [r2, #140]
 306:/opt/XMClib/XMC_Peripheral_Library_v2.1.16/XMCLib/src/xmc4_scu.c **** }
 459              		.loc 1 306 0
 460 000e 7047     		bx	lr
 461              	.L42:
 462              		.align	2
 463              	.L41:
 464 0010 00400050 		.word	1342193664
 465              		.cfi_endproc
 466              	.LFE175:
 468              		.section	.text.XMC_SCU_DisableTemperatureSensor,"ax",%progbits
 469              		.align	1
 470              		.global	XMC_SCU_DisableTemperatureSensor
 471              		.syntax unified
 472              		.thumb
 473              		.thumb_func
 474              		.fpu fpv4-sp-d16
 476              	XMC_SCU_DisableTemperatureSensor:
 477              	.LFB176:
 307:/opt/XMClib/XMC_Peripheral_Library_v2.1.16/XMCLib/src/xmc4_scu.c **** 
 308:/opt/XMClib/XMC_Peripheral_Library_v2.1.16/XMCLib/src/xmc4_scu.c **** /* API to disable die temperature measurement by powering the DTS module off. */
 309:/opt/XMClib/XMC_Peripheral_Library_v2.1.16/XMCLib/src/xmc4_scu.c **** void XMC_SCU_DisableTemperatureSensor(void)
 310:/opt/XMClib/XMC_Peripheral_Library_v2.1.16/XMCLib/src/xmc4_scu.c **** {
 478              		.loc 1 310 0
 479              		.cfi_startproc
 480              		@ args = 0, pretend = 0, frame = 0
 481              		@ frame_needed = 0, uses_anonymous_args = 0
 482              		@ link register save eliminated.
 311:/opt/XMClib/XMC_Peripheral_Library_v2.1.16/XMCLib/src/xmc4_scu.c ****   SCU_GENERAL->DTSCON |= (uint32_t)SCU_GENERAL_DTSCON_PWD_Msk;
 483              		.loc 1 311 0
 484 0000 034A     		ldr	r2, .L44
 485 0002 D2F88C30 		ldr	r3, [r2, #140]
 486 0006 43F00103 		orr	r3, r3, #1
 487 000a C2F88C30 		str	r3, [r2, #140]
 312:/opt/XMClib/XMC_Peripheral_Library_v2.1.16/XMCLib/src/xmc4_scu.c **** }
 488              		.loc 1 312 0
 489 000e 7047     		bx	lr
 490              	.L45:
 491              		.align	2
 492              	.L44:
 493 0010 00400050 		.word	1342193664
 494              		.cfi_endproc
 495              	.LFE176:
 497              		.section	.text.XMC_SCU_IsTemperatureSensorEnabled,"ax",%progbits
 498              		.align	1
 499              		.global	XMC_SCU_IsTemperatureSensorEnabled
 500              		.syntax unified
 501              		.thumb
 502              		.thumb_func
 503              		.fpu fpv4-sp-d16
 505              	XMC_SCU_IsTemperatureSensorEnabled:
 506              	.LFB177:
 313:/opt/XMClib/XMC_Peripheral_Library_v2.1.16/XMCLib/src/xmc4_scu.c **** 
 314:/opt/XMClib/XMC_Peripheral_Library_v2.1.16/XMCLib/src/xmc4_scu.c **** /* API to provide the die temperature sensor power status. */
 315:/opt/XMClib/XMC_Peripheral_Library_v2.1.16/XMCLib/src/xmc4_scu.c **** bool XMC_SCU_IsTemperatureSensorEnabled(void)
 316:/opt/XMClib/XMC_Peripheral_Library_v2.1.16/XMCLib/src/xmc4_scu.c **** {
 507              		.loc 1 316 0
 508              		.cfi_startproc
 509              		@ args = 0, pretend = 0, frame = 0
 510              		@ frame_needed = 0, uses_anonymous_args = 0
 511              		@ link register save eliminated.
 317:/opt/XMClib/XMC_Peripheral_Library_v2.1.16/XMCLib/src/xmc4_scu.c ****   return ((SCU_GENERAL->DTSCON & SCU_GENERAL_DTSCON_PWD_Msk) == 0U);
 512              		.loc 1 317 0
 513 0000 034B     		ldr	r3, .L47
 514 0002 D3F88C00 		ldr	r0, [r3, #140]
 515 0006 80F00100 		eor	r0, r0, #1
 318:/opt/XMClib/XMC_Peripheral_Library_v2.1.16/XMCLib/src/xmc4_scu.c **** }
 516              		.loc 1 318 0
 517 000a 00F00100 		and	r0, r0, #1
 518 000e 7047     		bx	lr
 519              	.L48:
 520              		.align	2
 521              	.L47:
 522 0010 00400050 		.word	1342193664
 523              		.cfi_endproc
 524              	.LFE177:
 526              		.section	.text.XMC_SCU_IsTemperatureSensorReady,"ax",%progbits
 527              		.align	1
 528              		.global	XMC_SCU_IsTemperatureSensorReady
 529              		.syntax unified
 530              		.thumb
 531              		.thumb_func
 532              		.fpu fpv4-sp-d16
 534              	XMC_SCU_IsTemperatureSensorReady:
 535              	.LFB178:
 319:/opt/XMClib/XMC_Peripheral_Library_v2.1.16/XMCLib/src/xmc4_scu.c **** 
 320:/opt/XMClib/XMC_Peripheral_Library_v2.1.16/XMCLib/src/xmc4_scu.c **** /* API to check if the die temperature sensor is ready to start a measurement. */
 321:/opt/XMClib/XMC_Peripheral_Library_v2.1.16/XMCLib/src/xmc4_scu.c **** bool XMC_SCU_IsTemperatureSensorReady(void)
 322:/opt/XMClib/XMC_Peripheral_Library_v2.1.16/XMCLib/src/xmc4_scu.c **** {
 536              		.loc 1 322 0
 537              		.cfi_startproc
 538              		@ args = 0, pretend = 0, frame = 0
 539              		@ frame_needed = 0, uses_anonymous_args = 0
 540              		@ link register save eliminated.
 323:/opt/XMClib/XMC_Peripheral_Library_v2.1.16/XMCLib/src/xmc4_scu.c ****   return ((SCU_GENERAL->DTSSTAT & SCU_GENERAL_DTSSTAT_RDY_Msk) != 0U);
 541              		.loc 1 323 0
 542 0000 024B     		ldr	r3, .L50
 543 0002 D3F89000 		ldr	r0, [r3, #144]
 324:/opt/XMClib/XMC_Peripheral_Library_v2.1.16/XMCLib/src/xmc4_scu.c **** }
 544              		.loc 1 324 0
 545 0006 C0F38030 		ubfx	r0, r0, #14, #1
 546 000a 7047     		bx	lr
 547              	.L51:
 548              		.align	2
 549              	.L50:
 550 000c 00400050 		.word	1342193664
 551              		.cfi_endproc
 552              	.LFE178:
 554              		.section	.text.XMC_SCU_GetTemperatureMeasurement,"ax",%progbits
 555              		.align	1
 556              		.global	XMC_SCU_GetTemperatureMeasurement
 557              		.syntax unified
 558              		.thumb
 559              		.thumb_func
 560              		.fpu fpv4-sp-d16
 562              	XMC_SCU_GetTemperatureMeasurement:
 563              	.LFB180:
 325:/opt/XMClib/XMC_Peripheral_Library_v2.1.16/XMCLib/src/xmc4_scu.c **** /* API to start device temperature measurements */
 326:/opt/XMClib/XMC_Peripheral_Library_v2.1.16/XMCLib/src/xmc4_scu.c **** XMC_SCU_STATUS_t XMC_SCU_StartTemperatureMeasurement(void)
 327:/opt/XMClib/XMC_Peripheral_Library_v2.1.16/XMCLib/src/xmc4_scu.c **** {
 328:/opt/XMClib/XMC_Peripheral_Library_v2.1.16/XMCLib/src/xmc4_scu.c ****   XMC_SCU_STATUS_t status = XMC_SCU_STATUS_OK;
 329:/opt/XMClib/XMC_Peripheral_Library_v2.1.16/XMCLib/src/xmc4_scu.c **** 
 330:/opt/XMClib/XMC_Peripheral_Library_v2.1.16/XMCLib/src/xmc4_scu.c ****   if (XMC_SCU_IsTemperatureSensorEnabled() == false)
 331:/opt/XMClib/XMC_Peripheral_Library_v2.1.16/XMCLib/src/xmc4_scu.c ****   {
 332:/opt/XMClib/XMC_Peripheral_Library_v2.1.16/XMCLib/src/xmc4_scu.c ****     status = XMC_SCU_STATUS_ERROR;
 333:/opt/XMClib/XMC_Peripheral_Library_v2.1.16/XMCLib/src/xmc4_scu.c ****   }
 334:/opt/XMClib/XMC_Peripheral_Library_v2.1.16/XMCLib/src/xmc4_scu.c ****    
 335:/opt/XMClib/XMC_Peripheral_Library_v2.1.16/XMCLib/src/xmc4_scu.c ****   if (XMC_SCU_IsTemperatureSensorBusy() == true)
 336:/opt/XMClib/XMC_Peripheral_Library_v2.1.16/XMCLib/src/xmc4_scu.c ****   {
 337:/opt/XMClib/XMC_Peripheral_Library_v2.1.16/XMCLib/src/xmc4_scu.c ****     status = XMC_SCU_STATUS_BUSY;
 338:/opt/XMClib/XMC_Peripheral_Library_v2.1.16/XMCLib/src/xmc4_scu.c ****   }
 339:/opt/XMClib/XMC_Peripheral_Library_v2.1.16/XMCLib/src/xmc4_scu.c **** 
 340:/opt/XMClib/XMC_Peripheral_Library_v2.1.16/XMCLib/src/xmc4_scu.c ****   /* And start the measurement */
 341:/opt/XMClib/XMC_Peripheral_Library_v2.1.16/XMCLib/src/xmc4_scu.c ****   SCU_GENERAL->DTSCON |= (uint32_t)SCU_GENERAL_DTSCON_START_Msk;
 342:/opt/XMClib/XMC_Peripheral_Library_v2.1.16/XMCLib/src/xmc4_scu.c ****   
 343:/opt/XMClib/XMC_Peripheral_Library_v2.1.16/XMCLib/src/xmc4_scu.c ****   return (status);
 344:/opt/XMClib/XMC_Peripheral_Library_v2.1.16/XMCLib/src/xmc4_scu.c **** }
 345:/opt/XMClib/XMC_Peripheral_Library_v2.1.16/XMCLib/src/xmc4_scu.c **** 
 346:/opt/XMClib/XMC_Peripheral_Library_v2.1.16/XMCLib/src/xmc4_scu.c **** /* API to retrieve the temperature measured */
 347:/opt/XMClib/XMC_Peripheral_Library_v2.1.16/XMCLib/src/xmc4_scu.c **** uint32_t XMC_SCU_GetTemperatureMeasurement(void)
 348:/opt/XMClib/XMC_Peripheral_Library_v2.1.16/XMCLib/src/xmc4_scu.c **** {
 564              		.loc 1 348 0
 565              		.cfi_startproc
 566              		@ args = 0, pretend = 0, frame = 0
 567              		@ frame_needed = 0, uses_anonymous_args = 0
 568 0000 08B5     		push	{r3, lr}
 569              	.LCFI1:
 570              		.cfi_def_cfa_offset 8
 571              		.cfi_offset 3, -8
 572              		.cfi_offset 14, -4
 349:/opt/XMClib/XMC_Peripheral_Library_v2.1.16/XMCLib/src/xmc4_scu.c ****   uint32_t temperature;
 350:/opt/XMClib/XMC_Peripheral_Library_v2.1.16/XMCLib/src/xmc4_scu.c **** 
 351:/opt/XMClib/XMC_Peripheral_Library_v2.1.16/XMCLib/src/xmc4_scu.c ****   if (XMC_SCU_IsTemperatureSensorEnabled() == false)
 573              		.loc 1 351 0
 574 0002 FFF7FEFF 		bl	XMC_SCU_IsTemperatureSensorEnabled
 575              	.LVL26:
 576 0006 28B1     		cbz	r0, .L54
 352:/opt/XMClib/XMC_Peripheral_Library_v2.1.16/XMCLib/src/xmc4_scu.c ****   {
 353:/opt/XMClib/XMC_Peripheral_Library_v2.1.16/XMCLib/src/xmc4_scu.c ****     temperature = 0x7FFFFFFFUL;
 354:/opt/XMClib/XMC_Peripheral_Library_v2.1.16/XMCLib/src/xmc4_scu.c ****   }
 355:/opt/XMClib/XMC_Peripheral_Library_v2.1.16/XMCLib/src/xmc4_scu.c ****   else
 356:/opt/XMClib/XMC_Peripheral_Library_v2.1.16/XMCLib/src/xmc4_scu.c ****   {
 357:/opt/XMClib/XMC_Peripheral_Library_v2.1.16/XMCLib/src/xmc4_scu.c ****     temperature = (uint32_t)((SCU_GENERAL->DTSSTAT & SCU_GENERAL_DTSSTAT_RESULT_Msk) >> SCU_GENERAL
 577              		.loc 1 357 0
 578 0008 044B     		ldr	r3, .L56
 579 000a D3F89000 		ldr	r0, [r3, #144]
 580 000e C0F30900 		ubfx	r0, r0, #0, #10
 581              	.LVL27:
 582              	.L52:
 358:/opt/XMClib/XMC_Peripheral_Library_v2.1.16/XMCLib/src/xmc4_scu.c ****   }
 359:/opt/XMClib/XMC_Peripheral_Library_v2.1.16/XMCLib/src/xmc4_scu.c ****   
 360:/opt/XMClib/XMC_Peripheral_Library_v2.1.16/XMCLib/src/xmc4_scu.c ****   return ((uint32_t)temperature);
 361:/opt/XMClib/XMC_Peripheral_Library_v2.1.16/XMCLib/src/xmc4_scu.c **** }
 583              		.loc 1 361 0
 584 0012 08BD     		pop	{r3, pc}
 585              	.L54:
 353:/opt/XMClib/XMC_Peripheral_Library_v2.1.16/XMCLib/src/xmc4_scu.c ****   }
 586              		.loc 1 353 0
 587 0014 6FF00040 		mvn	r0, #-2147483648
 588              	.LVL28:
 360:/opt/XMClib/XMC_Peripheral_Library_v2.1.16/XMCLib/src/xmc4_scu.c **** }
 589              		.loc 1 360 0
 590 0018 FBE7     		b	.L52
 591              	.L57:
 592 001a 00BF     		.align	2
 593              	.L56:
 594 001c 00400050 		.word	1342193664
 595              		.cfi_endproc
 596              	.LFE180:
 598              		.section	.text.XMC_SCU_IsTemperatureSensorBusy,"ax",%progbits
 599              		.align	1
 600              		.global	XMC_SCU_IsTemperatureSensorBusy
 601              		.syntax unified
 602              		.thumb
 603              		.thumb_func
 604              		.fpu fpv4-sp-d16
 606              	XMC_SCU_IsTemperatureSensorBusy:
 607              	.LFB181:
 362:/opt/XMClib/XMC_Peripheral_Library_v2.1.16/XMCLib/src/xmc4_scu.c **** 
 363:/opt/XMClib/XMC_Peripheral_Library_v2.1.16/XMCLib/src/xmc4_scu.c **** /* API to know whether Die temperature sensor is busy */
 364:/opt/XMClib/XMC_Peripheral_Library_v2.1.16/XMCLib/src/xmc4_scu.c **** bool XMC_SCU_IsTemperatureSensorBusy(void)
 365:/opt/XMClib/XMC_Peripheral_Library_v2.1.16/XMCLib/src/xmc4_scu.c **** {
 608              		.loc 1 365 0
 609              		.cfi_startproc
 610              		@ args = 0, pretend = 0, frame = 0
 611              		@ frame_needed = 0, uses_anonymous_args = 0
 612              		@ link register save eliminated.
 366:/opt/XMClib/XMC_Peripheral_Library_v2.1.16/XMCLib/src/xmc4_scu.c ****   return ((SCU_GENERAL->DTSSTAT & SCU_GENERAL_DTSSTAT_BUSY_Msk) != 0U);
 613              		.loc 1 366 0
 614 0000 024B     		ldr	r3, .L59
 615 0002 D3F89000 		ldr	r0, [r3, #144]
 367:/opt/XMClib/XMC_Peripheral_Library_v2.1.16/XMCLib/src/xmc4_scu.c **** }
 616              		.loc 1 367 0
 617 0006 C0F3C030 		ubfx	r0, r0, #15, #1
 618 000a 7047     		bx	lr
 619              	.L60:
 620              		.align	2
 621              	.L59:
 622 000c 00400050 		.word	1342193664
 623              		.cfi_endproc
 624              	.LFE181:
 626              		.section	.text.XMC_SCU_StartTemperatureMeasurement,"ax",%progbits
 627              		.align	1
 628              		.global	XMC_SCU_StartTemperatureMeasurement
 629              		.syntax unified
 630              		.thumb
 631              		.thumb_func
 632              		.fpu fpv4-sp-d16
 634              	XMC_SCU_StartTemperatureMeasurement:
 635              	.LFB179:
 327:/opt/XMClib/XMC_Peripheral_Library_v2.1.16/XMCLib/src/xmc4_scu.c ****   XMC_SCU_STATUS_t status = XMC_SCU_STATUS_OK;
 636              		.loc 1 327 0
 637              		.cfi_startproc
 638              		@ args = 0, pretend = 0, frame = 0
 639              		@ frame_needed = 0, uses_anonymous_args = 0
 640 0000 10B5     		push	{r4, lr}
 641              	.LCFI2:
 642              		.cfi_def_cfa_offset 8
 643              		.cfi_offset 4, -8
 644              		.cfi_offset 14, -4
 645              	.LVL29:
 330:/opt/XMClib/XMC_Peripheral_Library_v2.1.16/XMCLib/src/xmc4_scu.c ****   {
 646              		.loc 1 330 0
 647 0002 FFF7FEFF 		bl	XMC_SCU_IsTemperatureSensorEnabled
 648              	.LVL30:
 649 0006 0446     		mov	r4, r0
 650              	.LVL31:
 335:/opt/XMClib/XMC_Peripheral_Library_v2.1.16/XMCLib/src/xmc4_scu.c ****   {
 651              		.loc 1 335 0
 652 0008 FFF7FEFF 		bl	XMC_SCU_IsTemperatureSensorBusy
 653              	.LVL32:
 654 000c 50B9     		cbnz	r0, .L63
 330:/opt/XMClib/XMC_Peripheral_Library_v2.1.16/XMCLib/src/xmc4_scu.c ****   {
 655              		.loc 1 330 0
 656 000e 84F00100 		eor	r0, r4, #1
 328:/opt/XMClib/XMC_Peripheral_Library_v2.1.16/XMCLib/src/xmc4_scu.c **** 
 657              		.loc 1 328 0
 658 0012 C0B2     		uxtb	r0, r0
 659              	.L62:
 660              	.LVL33:
 341:/opt/XMClib/XMC_Peripheral_Library_v2.1.16/XMCLib/src/xmc4_scu.c ****   
 661              		.loc 1 341 0
 662 0014 044A     		ldr	r2, .L65
 663 0016 D2F88C30 		ldr	r3, [r2, #140]
 664 001a 43F00203 		orr	r3, r3, #2
 665 001e C2F88C30 		str	r3, [r2, #140]
 344:/opt/XMClib/XMC_Peripheral_Library_v2.1.16/XMCLib/src/xmc4_scu.c **** 
 666              		.loc 1 344 0
 667 0022 10BD     		pop	{r4, pc}
 668              	.LVL34:
 669              	.L63:
 337:/opt/XMClib/XMC_Peripheral_Library_v2.1.16/XMCLib/src/xmc4_scu.c ****   }
 670              		.loc 1 337 0
 671 0024 0220     		movs	r0, #2
 672 0026 F5E7     		b	.L62
 673              	.L66:
 674              		.align	2
 675              	.L65:
 676 0028 00400050 		.word	1342193664
 677              		.cfi_endproc
 678              	.LFE179:
 680              		.section	.text.XMC_SCU_WriteToRetentionMemory,"ax",%progbits
 681              		.align	1
 682              		.global	XMC_SCU_WriteToRetentionMemory
 683              		.syntax unified
 684              		.thumb
 685              		.thumb_func
 686              		.fpu fpv4-sp-d16
 688              	XMC_SCU_WriteToRetentionMemory:
 689              	.LFB182:
 368:/opt/XMClib/XMC_Peripheral_Library_v2.1.16/XMCLib/src/xmc4_scu.c **** 
 369:/opt/XMClib/XMC_Peripheral_Library_v2.1.16/XMCLib/src/xmc4_scu.c **** 
 370:/opt/XMClib/XMC_Peripheral_Library_v2.1.16/XMCLib/src/xmc4_scu.c **** #if defined(SCU_GENERAL_DTEMPLIM_LOWER_Msk) && defined(SCU_GENERAL_DTEMPLIM_UPPER_Msk)
 371:/opt/XMClib/XMC_Peripheral_Library_v2.1.16/XMCLib/src/xmc4_scu.c **** /* API to determine if device temperature has gone past the ceiling */
 372:/opt/XMClib/XMC_Peripheral_Library_v2.1.16/XMCLib/src/xmc4_scu.c **** bool XMC_SCU_HighTemperature(void)
 373:/opt/XMClib/XMC_Peripheral_Library_v2.1.16/XMCLib/src/xmc4_scu.c **** {
 374:/opt/XMClib/XMC_Peripheral_Library_v2.1.16/XMCLib/src/xmc4_scu.c ****   bool ret_val;
 375:/opt/XMClib/XMC_Peripheral_Library_v2.1.16/XMCLib/src/xmc4_scu.c ****   uint32_t   dtscon;
 376:/opt/XMClib/XMC_Peripheral_Library_v2.1.16/XMCLib/src/xmc4_scu.c ****   uint32_t   dtempalarm;
 377:/opt/XMClib/XMC_Peripheral_Library_v2.1.16/XMCLib/src/xmc4_scu.c ****   dtscon = SCU_GENERAL->DTSCON;
 378:/opt/XMClib/XMC_Peripheral_Library_v2.1.16/XMCLib/src/xmc4_scu.c ****   dtscon = dtscon & SCU_GENERAL_DTSCON_PWD_Msk;
 379:/opt/XMClib/XMC_Peripheral_Library_v2.1.16/XMCLib/src/xmc4_scu.c **** 
 380:/opt/XMClib/XMC_Peripheral_Library_v2.1.16/XMCLib/src/xmc4_scu.c ****   ret_val = false;
 381:/opt/XMClib/XMC_Peripheral_Library_v2.1.16/XMCLib/src/xmc4_scu.c **** 
 382:/opt/XMClib/XMC_Peripheral_Library_v2.1.16/XMCLib/src/xmc4_scu.c ****   /* Any audit makes sense only if the DTS were powered up */  
 383:/opt/XMClib/XMC_Peripheral_Library_v2.1.16/XMCLib/src/xmc4_scu.c ****   if(dtscon)
 384:/opt/XMClib/XMC_Peripheral_Library_v2.1.16/XMCLib/src/xmc4_scu.c ****   {
 385:/opt/XMClib/XMC_Peripheral_Library_v2.1.16/XMCLib/src/xmc4_scu.c ****     /* Powered down - return false */
 386:/opt/XMClib/XMC_Peripheral_Library_v2.1.16/XMCLib/src/xmc4_scu.c ****     ret_val = false;
 387:/opt/XMClib/XMC_Peripheral_Library_v2.1.16/XMCLib/src/xmc4_scu.c ****   }
 388:/opt/XMClib/XMC_Peripheral_Library_v2.1.16/XMCLib/src/xmc4_scu.c ****   else
 389:/opt/XMClib/XMC_Peripheral_Library_v2.1.16/XMCLib/src/xmc4_scu.c ****   {
 390:/opt/XMClib/XMC_Peripheral_Library_v2.1.16/XMCLib/src/xmc4_scu.c ****     /* Powered up - Read the overflow bit and decide accordingly*/
 391:/opt/XMClib/XMC_Peripheral_Library_v2.1.16/XMCLib/src/xmc4_scu.c ****     dtempalarm = SCU_GENERAL->DTEMPALARM;
 392:/opt/XMClib/XMC_Peripheral_Library_v2.1.16/XMCLib/src/xmc4_scu.c ****     dtempalarm = dtempalarm & SCU_GENERAL_DTEMPALARM_OVERFL_Msk;
 393:/opt/XMClib/XMC_Peripheral_Library_v2.1.16/XMCLib/src/xmc4_scu.c ****     
 394:/opt/XMClib/XMC_Peripheral_Library_v2.1.16/XMCLib/src/xmc4_scu.c ****     if(dtempalarm)
 395:/opt/XMClib/XMC_Peripheral_Library_v2.1.16/XMCLib/src/xmc4_scu.c ****     {
 396:/opt/XMClib/XMC_Peripheral_Library_v2.1.16/XMCLib/src/xmc4_scu.c ****       ret_val = true;
 397:/opt/XMClib/XMC_Peripheral_Library_v2.1.16/XMCLib/src/xmc4_scu.c ****     }
 398:/opt/XMClib/XMC_Peripheral_Library_v2.1.16/XMCLib/src/xmc4_scu.c ****     else
 399:/opt/XMClib/XMC_Peripheral_Library_v2.1.16/XMCLib/src/xmc4_scu.c ****     {
 400:/opt/XMClib/XMC_Peripheral_Library_v2.1.16/XMCLib/src/xmc4_scu.c ****       ret_val = false;
 401:/opt/XMClib/XMC_Peripheral_Library_v2.1.16/XMCLib/src/xmc4_scu.c ****     }
 402:/opt/XMClib/XMC_Peripheral_Library_v2.1.16/XMCLib/src/xmc4_scu.c ****   }
 403:/opt/XMClib/XMC_Peripheral_Library_v2.1.16/XMCLib/src/xmc4_scu.c ****   return (ret_val);
 404:/opt/XMClib/XMC_Peripheral_Library_v2.1.16/XMCLib/src/xmc4_scu.c **** }
 405:/opt/XMClib/XMC_Peripheral_Library_v2.1.16/XMCLib/src/xmc4_scu.c **** 
 406:/opt/XMClib/XMC_Peripheral_Library_v2.1.16/XMCLib/src/xmc4_scu.c **** /* API to program raw values of temperature limits into the DTS */
 407:/opt/XMClib/XMC_Peripheral_Library_v2.1.16/XMCLib/src/xmc4_scu.c **** void XMC_SCU_SetRawTempLimits(const uint32_t lower_temp, const uint32_t upper_temp)
 408:/opt/XMClib/XMC_Peripheral_Library_v2.1.16/XMCLib/src/xmc4_scu.c **** {
 409:/opt/XMClib/XMC_Peripheral_Library_v2.1.16/XMCLib/src/xmc4_scu.c ****   /* Power up the DTS module */
 410:/opt/XMClib/XMC_Peripheral_Library_v2.1.16/XMCLib/src/xmc4_scu.c ****   SCU_GENERAL->DTSCON &= (uint32_t)~SCU_GENERAL_DTSCON_PWD_Msk;
 411:/opt/XMClib/XMC_Peripheral_Library_v2.1.16/XMCLib/src/xmc4_scu.c ****   SCU_GENERAL->DTEMPLIM = 0;
 412:/opt/XMClib/XMC_Peripheral_Library_v2.1.16/XMCLib/src/xmc4_scu.c ****   SCU_GENERAL->DTEMPLIM = (lower_temp & SCU_GENERAL_DTEMPLIM_LOWER_Msk);
 413:/opt/XMClib/XMC_Peripheral_Library_v2.1.16/XMCLib/src/xmc4_scu.c ****   SCU_GENERAL->DTEMPLIM |= (uint32_t)((upper_temp & SCU_GENERAL_DTEMPLIM_LOWER_Msk) << SCU_GENERAL_
 414:/opt/XMClib/XMC_Peripheral_Library_v2.1.16/XMCLib/src/xmc4_scu.c **** }
 415:/opt/XMClib/XMC_Peripheral_Library_v2.1.16/XMCLib/src/xmc4_scu.c **** 
 416:/opt/XMClib/XMC_Peripheral_Library_v2.1.16/XMCLib/src/xmc4_scu.c **** /* API to determine if device temperature has gone below the stipulated limit */
 417:/opt/XMClib/XMC_Peripheral_Library_v2.1.16/XMCLib/src/xmc4_scu.c **** bool XMC_SCU_LowTemperature(void)
 418:/opt/XMClib/XMC_Peripheral_Library_v2.1.16/XMCLib/src/xmc4_scu.c **** {
 419:/opt/XMClib/XMC_Peripheral_Library_v2.1.16/XMCLib/src/xmc4_scu.c ****   bool ret_val;
 420:/opt/XMClib/XMC_Peripheral_Library_v2.1.16/XMCLib/src/xmc4_scu.c ****   uint32_t   dtscon;
 421:/opt/XMClib/XMC_Peripheral_Library_v2.1.16/XMCLib/src/xmc4_scu.c ****   uint32_t   dtempalarm;
 422:/opt/XMClib/XMC_Peripheral_Library_v2.1.16/XMCLib/src/xmc4_scu.c ****   dtscon = SCU_GENERAL->DTSCON;
 423:/opt/XMClib/XMC_Peripheral_Library_v2.1.16/XMCLib/src/xmc4_scu.c ****   dtscon = dtscon & SCU_GENERAL_DTSCON_PWD_Msk;
 424:/opt/XMClib/XMC_Peripheral_Library_v2.1.16/XMCLib/src/xmc4_scu.c **** 
 425:/opt/XMClib/XMC_Peripheral_Library_v2.1.16/XMCLib/src/xmc4_scu.c ****   ret_val = false;
 426:/opt/XMClib/XMC_Peripheral_Library_v2.1.16/XMCLib/src/xmc4_scu.c **** 
 427:/opt/XMClib/XMC_Peripheral_Library_v2.1.16/XMCLib/src/xmc4_scu.c ****   /* Any audit makes sense only if the DTS were powered up */  
 428:/opt/XMClib/XMC_Peripheral_Library_v2.1.16/XMCLib/src/xmc4_scu.c ****   if(dtscon)
 429:/opt/XMClib/XMC_Peripheral_Library_v2.1.16/XMCLib/src/xmc4_scu.c ****   {
 430:/opt/XMClib/XMC_Peripheral_Library_v2.1.16/XMCLib/src/xmc4_scu.c ****     /* Powered down - return false */
 431:/opt/XMClib/XMC_Peripheral_Library_v2.1.16/XMCLib/src/xmc4_scu.c ****     ret_val = false;
 432:/opt/XMClib/XMC_Peripheral_Library_v2.1.16/XMCLib/src/xmc4_scu.c ****   }
 433:/opt/XMClib/XMC_Peripheral_Library_v2.1.16/XMCLib/src/xmc4_scu.c ****   else
 434:/opt/XMClib/XMC_Peripheral_Library_v2.1.16/XMCLib/src/xmc4_scu.c ****   {
 435:/opt/XMClib/XMC_Peripheral_Library_v2.1.16/XMCLib/src/xmc4_scu.c ****     /* Powered up - Read the overflow bit and decide accordingly*/
 436:/opt/XMClib/XMC_Peripheral_Library_v2.1.16/XMCLib/src/xmc4_scu.c ****     dtempalarm = SCU_GENERAL->DTEMPALARM;
 437:/opt/XMClib/XMC_Peripheral_Library_v2.1.16/XMCLib/src/xmc4_scu.c ****     dtempalarm = dtempalarm & SCU_GENERAL_DTEMPALARM_UNDERFL_Msk;
 438:/opt/XMClib/XMC_Peripheral_Library_v2.1.16/XMCLib/src/xmc4_scu.c ****     
 439:/opt/XMClib/XMC_Peripheral_Library_v2.1.16/XMCLib/src/xmc4_scu.c ****     if(dtempalarm)
 440:/opt/XMClib/XMC_Peripheral_Library_v2.1.16/XMCLib/src/xmc4_scu.c ****     {
 441:/opt/XMClib/XMC_Peripheral_Library_v2.1.16/XMCLib/src/xmc4_scu.c ****       ret_val = true;
 442:/opt/XMClib/XMC_Peripheral_Library_v2.1.16/XMCLib/src/xmc4_scu.c ****     }
 443:/opt/XMClib/XMC_Peripheral_Library_v2.1.16/XMCLib/src/xmc4_scu.c ****     else
 444:/opt/XMClib/XMC_Peripheral_Library_v2.1.16/XMCLib/src/xmc4_scu.c ****     {
 445:/opt/XMClib/XMC_Peripheral_Library_v2.1.16/XMCLib/src/xmc4_scu.c ****       ret_val = false;
 446:/opt/XMClib/XMC_Peripheral_Library_v2.1.16/XMCLib/src/xmc4_scu.c ****     }
 447:/opt/XMClib/XMC_Peripheral_Library_v2.1.16/XMCLib/src/xmc4_scu.c ****   }
 448:/opt/XMClib/XMC_Peripheral_Library_v2.1.16/XMCLib/src/xmc4_scu.c ****   
 449:/opt/XMClib/XMC_Peripheral_Library_v2.1.16/XMCLib/src/xmc4_scu.c ****   return (ret_val);
 450:/opt/XMClib/XMC_Peripheral_Library_v2.1.16/XMCLib/src/xmc4_scu.c **** }
 451:/opt/XMClib/XMC_Peripheral_Library_v2.1.16/XMCLib/src/xmc4_scu.c **** #endif  
 452:/opt/XMClib/XMC_Peripheral_Library_v2.1.16/XMCLib/src/xmc4_scu.c **** 
 453:/opt/XMClib/XMC_Peripheral_Library_v2.1.16/XMCLib/src/xmc4_scu.c **** /* API to write into Retention memory in hibernate domain */
 454:/opt/XMClib/XMC_Peripheral_Library_v2.1.16/XMCLib/src/xmc4_scu.c **** void XMC_SCU_WriteToRetentionMemory(uint32_t address, uint32_t data)
 455:/opt/XMClib/XMC_Peripheral_Library_v2.1.16/XMCLib/src/xmc4_scu.c **** {
 690              		.loc 1 455 0
 691              		.cfi_startproc
 692              		@ args = 0, pretend = 0, frame = 0
 693              		@ frame_needed = 0, uses_anonymous_args = 0
 694              		@ link register save eliminated.
 695              	.LVL35:
 456:/opt/XMClib/XMC_Peripheral_Library_v2.1.16/XMCLib/src/xmc4_scu.c ****   uint32_t rmacr;
 457:/opt/XMClib/XMC_Peripheral_Library_v2.1.16/XMCLib/src/xmc4_scu.c ****   
 458:/opt/XMClib/XMC_Peripheral_Library_v2.1.16/XMCLib/src/xmc4_scu.c ****   /* Get the address right */  
 459:/opt/XMClib/XMC_Peripheral_Library_v2.1.16/XMCLib/src/xmc4_scu.c ****   rmacr = (uint32_t)((address << SCU_GENERAL_RMACR_ADDR_Pos) & (uint32_t)SCU_GENERAL_RMACR_ADDR_Msk
 696              		.loc 1 459 0
 697 0000 0004     		lsls	r0, r0, #16
 698              	.LVL36:
 699 0002 00F47020 		and	r0, r0, #983040
 700              	.LVL37:
 460:/opt/XMClib/XMC_Peripheral_Library_v2.1.16/XMCLib/src/xmc4_scu.c ****   
 461:/opt/XMClib/XMC_Peripheral_Library_v2.1.16/XMCLib/src/xmc4_scu.c ****   /* Transfer from RMDATA to Retention memory */
 462:/opt/XMClib/XMC_Peripheral_Library_v2.1.16/XMCLib/src/xmc4_scu.c ****   rmacr |= (uint32_t)(SCU_GENERAL_RMACR_RDWR_Msk);
 701              		.loc 1 462 0
 702 0006 40F00100 		orr	r0, r0, #1
 703              	.LVL38:
 463:/opt/XMClib/XMC_Peripheral_Library_v2.1.16/XMCLib/src/xmc4_scu.c ****   
 464:/opt/XMClib/XMC_Peripheral_Library_v2.1.16/XMCLib/src/xmc4_scu.c ****   /* Write desired data into RMDATA register */  
 465:/opt/XMClib/XMC_Peripheral_Library_v2.1.16/XMCLib/src/xmc4_scu.c ****   SCU_GENERAL->RMDATA = data;
 704              		.loc 1 465 0
 705 000a 064B     		ldr	r3, .L70
 706 000c C3F8CC10 		str	r1, [r3, #204]
 466:/opt/XMClib/XMC_Peripheral_Library_v2.1.16/XMCLib/src/xmc4_scu.c ****   
 467:/opt/XMClib/XMC_Peripheral_Library_v2.1.16/XMCLib/src/xmc4_scu.c ****   /* Write address & direction of transfer into RMACR register */  
 468:/opt/XMClib/XMC_Peripheral_Library_v2.1.16/XMCLib/src/xmc4_scu.c ****   SCU_GENERAL->RMACR = rmacr;
 707              		.loc 1 468 0
 708 0010 C3F8C800 		str	r0, [r3, #200]
 469:/opt/XMClib/XMC_Peripheral_Library_v2.1.16/XMCLib/src/xmc4_scu.c ****   
 470:/opt/XMClib/XMC_Peripheral_Library_v2.1.16/XMCLib/src/xmc4_scu.c ****   /* Wait until the update of RMX register in hibernate domain is completed */
 471:/opt/XMClib/XMC_Peripheral_Library_v2.1.16/XMCLib/src/xmc4_scu.c ****   while((SCU_GENERAL->MIRRSTS) & SCU_GENERAL_MIRRSTS_RMX_Msk)
 709              		.loc 1 471 0
 710 0014 1A46     		mov	r2, r3
 711              	.L68:
 712              		.loc 1 471 0 is_stmt 0 discriminator 1
 713 0016 D2F8C430 		ldr	r3, [r2, #196]
 714 001a 13F4005F 		tst	r3, #8192
 715 001e FAD1     		bne	.L68
 472:/opt/XMClib/XMC_Peripheral_Library_v2.1.16/XMCLib/src/xmc4_scu.c ****   {
 473:/opt/XMClib/XMC_Peripheral_Library_v2.1.16/XMCLib/src/xmc4_scu.c ****   }
 474:/opt/XMClib/XMC_Peripheral_Library_v2.1.16/XMCLib/src/xmc4_scu.c **** }
 716              		.loc 1 474 0 is_stmt 1
 717 0020 7047     		bx	lr
 718              	.L71:
 719 0022 00BF     		.align	2
 720              	.L70:
 721 0024 00400050 		.word	1342193664
 722              		.cfi_endproc
 723              	.LFE182:
 725              		.section	.text.XMC_SCU_ReadFromRetentionMemory,"ax",%progbits
 726              		.align	1
 727              		.global	XMC_SCU_ReadFromRetentionMemory
 728              		.syntax unified
 729              		.thumb
 730              		.thumb_func
 731              		.fpu fpv4-sp-d16
 733              	XMC_SCU_ReadFromRetentionMemory:
 734              	.LFB183:
 475:/opt/XMClib/XMC_Peripheral_Library_v2.1.16/XMCLib/src/xmc4_scu.c **** 
 476:/opt/XMClib/XMC_Peripheral_Library_v2.1.16/XMCLib/src/xmc4_scu.c **** /* API to read from Retention memory in hibernate domain */
 477:/opt/XMClib/XMC_Peripheral_Library_v2.1.16/XMCLib/src/xmc4_scu.c **** uint32_t XMC_SCU_ReadFromRetentionMemory(uint32_t address)
 478:/opt/XMClib/XMC_Peripheral_Library_v2.1.16/XMCLib/src/xmc4_scu.c **** {
 735              		.loc 1 478 0
 736              		.cfi_startproc
 737              		@ args = 0, pretend = 0, frame = 0
 738              		@ frame_needed = 0, uses_anonymous_args = 0
 739              		@ link register save eliminated.
 740              	.LVL39:
 479:/opt/XMClib/XMC_Peripheral_Library_v2.1.16/XMCLib/src/xmc4_scu.c ****   uint32_t rmacr;
 480:/opt/XMClib/XMC_Peripheral_Library_v2.1.16/XMCLib/src/xmc4_scu.c **** 
 481:/opt/XMClib/XMC_Peripheral_Library_v2.1.16/XMCLib/src/xmc4_scu.c ****   /* Get the address right */  
 482:/opt/XMClib/XMC_Peripheral_Library_v2.1.16/XMCLib/src/xmc4_scu.c ****   rmacr = ((uint32_t)(address << SCU_GENERAL_RMACR_ADDR_Pos) & (uint32_t)SCU_GENERAL_RMACR_ADDR_Msk
 741              		.loc 1 482 0
 742 0000 0004     		lsls	r0, r0, #16
 743              	.LVL40:
 744 0002 00F47020 		and	r0, r0, #983040
 745              	.LVL41:
 483:/opt/XMClib/XMC_Peripheral_Library_v2.1.16/XMCLib/src/xmc4_scu.c ****   
 484:/opt/XMClib/XMC_Peripheral_Library_v2.1.16/XMCLib/src/xmc4_scu.c ****   /* Transfer from RMDATA to Retention memory */
 485:/opt/XMClib/XMC_Peripheral_Library_v2.1.16/XMCLib/src/xmc4_scu.c ****   rmacr &= ~((uint32_t)(SCU_GENERAL_RMACR_RDWR_Msk));
 486:/opt/XMClib/XMC_Peripheral_Library_v2.1.16/XMCLib/src/xmc4_scu.c ****   
 487:/opt/XMClib/XMC_Peripheral_Library_v2.1.16/XMCLib/src/xmc4_scu.c ****   /* Writing an adress & direction of transfer into RMACR register */  
 488:/opt/XMClib/XMC_Peripheral_Library_v2.1.16/XMCLib/src/xmc4_scu.c ****   SCU_GENERAL->RMACR = rmacr;
 746              		.loc 1 488 0
 747 0006 064B     		ldr	r3, .L75
 748 0008 C3F8C800 		str	r0, [r3, #200]
 489:/opt/XMClib/XMC_Peripheral_Library_v2.1.16/XMCLib/src/xmc4_scu.c ****   
 490:/opt/XMClib/XMC_Peripheral_Library_v2.1.16/XMCLib/src/xmc4_scu.c ****   /* Wait until the update of RMX register in hibernate domain is completed */
 491:/opt/XMClib/XMC_Peripheral_Library_v2.1.16/XMCLib/src/xmc4_scu.c ****   while((SCU_GENERAL->MIRRSTS) & SCU_GENERAL_MIRRSTS_RMX_Msk)
 749              		.loc 1 491 0
 750 000c 1A46     		mov	r2, r3
 751              	.L73:
 752              		.loc 1 491 0 is_stmt 0 discriminator 1
 753 000e D2F8C430 		ldr	r3, [r2, #196]
 754 0012 13F4005F 		tst	r3, #8192
 755 0016 FAD1     		bne	.L73
 492:/opt/XMClib/XMC_Peripheral_Library_v2.1.16/XMCLib/src/xmc4_scu.c ****   {
 493:/opt/XMClib/XMC_Peripheral_Library_v2.1.16/XMCLib/src/xmc4_scu.c ****   }
 494:/opt/XMClib/XMC_Peripheral_Library_v2.1.16/XMCLib/src/xmc4_scu.c **** 
 495:/opt/XMClib/XMC_Peripheral_Library_v2.1.16/XMCLib/src/xmc4_scu.c ****   return (SCU_GENERAL->RMDATA);
 756              		.loc 1 495 0 is_stmt 1
 757 0018 014B     		ldr	r3, .L75
 758 001a D3F8CC00 		ldr	r0, [r3, #204]
 759              	.LVL42:
 496:/opt/XMClib/XMC_Peripheral_Library_v2.1.16/XMCLib/src/xmc4_scu.c **** }
 760              		.loc 1 496 0
 761 001e 7047     		bx	lr
 762              	.L76:
 763              		.align	2
 764              	.L75:
 765 0020 00400050 		.word	1342193664
 766              		.cfi_endproc
 767              	.LFE183:
 769              		.section	.text.XMC_SCU_TRAP_Enable,"ax",%progbits
 770              		.align	1
 771              		.global	XMC_SCU_TRAP_Enable
 772              		.syntax unified
 773              		.thumb
 774              		.thumb_func
 775              		.fpu fpv4-sp-d16
 777              	XMC_SCU_TRAP_Enable:
 778              	.LFB185:
 497:/opt/XMClib/XMC_Peripheral_Library_v2.1.16/XMCLib/src/xmc4_scu.c **** 
 498:/opt/XMClib/XMC_Peripheral_Library_v2.1.16/XMCLib/src/xmc4_scu.c **** /* API to initialize the clock tree */
 499:/opt/XMClib/XMC_Peripheral_Library_v2.1.16/XMCLib/src/xmc4_scu.c **** void XMC_SCU_CLOCK_Init(const XMC_SCU_CLOCK_CONFIG_t *const config)
 500:/opt/XMClib/XMC_Peripheral_Library_v2.1.16/XMCLib/src/xmc4_scu.c **** {
 501:/opt/XMClib/XMC_Peripheral_Library_v2.1.16/XMCLib/src/xmc4_scu.c ****   XMC_ASSERT("", config->fsys_clkdiv != 0);
 502:/opt/XMClib/XMC_Peripheral_Library_v2.1.16/XMCLib/src/xmc4_scu.c ****   XMC_ASSERT("", config->fcpu_clkdiv != 0);
 503:/opt/XMClib/XMC_Peripheral_Library_v2.1.16/XMCLib/src/xmc4_scu.c ****   XMC_ASSERT("", config->fccu_clkdiv != 0);
 504:/opt/XMClib/XMC_Peripheral_Library_v2.1.16/XMCLib/src/xmc4_scu.c ****   XMC_ASSERT("", config->fperipheral_clkdiv != 0);
 505:/opt/XMClib/XMC_Peripheral_Library_v2.1.16/XMCLib/src/xmc4_scu.c ****   XMC_ASSERT("", ((config->syspll_config.p_div != 0) &&
 506:/opt/XMClib/XMC_Peripheral_Library_v2.1.16/XMCLib/src/xmc4_scu.c ****                   (config->syspll_config.mode == XMC_SCU_CLOCK_SYSPLL_MODE_NORMAL)) ||
 507:/opt/XMClib/XMC_Peripheral_Library_v2.1.16/XMCLib/src/xmc4_scu.c ****                   (config->syspll_config.mode == XMC_SCU_CLOCK_SYSPLL_MODE_PRESCALAR));
 508:/opt/XMClib/XMC_Peripheral_Library_v2.1.16/XMCLib/src/xmc4_scu.c ****   XMC_ASSERT("", ((config->syspll_config.n_div != 0) &&
 509:/opt/XMClib/XMC_Peripheral_Library_v2.1.16/XMCLib/src/xmc4_scu.c ****                   (config->syspll_config.mode == XMC_SCU_CLOCK_SYSPLL_MODE_NORMAL)) ||
 510:/opt/XMClib/XMC_Peripheral_Library_v2.1.16/XMCLib/src/xmc4_scu.c ****                   (config->syspll_config.mode == XMC_SCU_CLOCK_SYSPLL_MODE_PRESCALAR));
 511:/opt/XMClib/XMC_Peripheral_Library_v2.1.16/XMCLib/src/xmc4_scu.c ****   XMC_ASSERT("", (config->syspll_config.k_div != 0) &&
 512:/opt/XMClib/XMC_Peripheral_Library_v2.1.16/XMCLib/src/xmc4_scu.c ****                  ((config->syspll_config.mode == XMC_SCU_CLOCK_SYSPLL_MODE_NORMAL) ||
 513:/opt/XMClib/XMC_Peripheral_Library_v2.1.16/XMCLib/src/xmc4_scu.c ****                   (config->syspll_config.mode == XMC_SCU_CLOCK_SYSPLL_MODE_PRESCALAR)));
 514:/opt/XMClib/XMC_Peripheral_Library_v2.1.16/XMCLib/src/xmc4_scu.c ****   XMC_ASSERT("", ((config->fsys_clksrc == XMC_SCU_CLOCK_SYSCLKSRC_PLL) ||
 515:/opt/XMClib/XMC_Peripheral_Library_v2.1.16/XMCLib/src/xmc4_scu.c ****                  (config->fsys_clksrc == XMC_SCU_CLOCK_SYSCLKSRC_OFI)) &&
 516:/opt/XMClib/XMC_Peripheral_Library_v2.1.16/XMCLib/src/xmc4_scu.c ****                  ((config->syspll_config.mode == XMC_SCU_CLOCK_SYSPLL_MODE_NORMAL) ||
 517:/opt/XMClib/XMC_Peripheral_Library_v2.1.16/XMCLib/src/xmc4_scu.c ****                   (config->syspll_config.mode == XMC_SCU_CLOCK_SYSPLL_MODE_PRESCALAR)));
 518:/opt/XMClib/XMC_Peripheral_Library_v2.1.16/XMCLib/src/xmc4_scu.c ****   XMC_ASSERT("", ((config->fstdby_clksrc == XMC_SCU_HIB_STDBYCLKSRC_OSCULP) && (config->enable_oscu
 519:/opt/XMClib/XMC_Peripheral_Library_v2.1.16/XMCLib/src/xmc4_scu.c ****                  (config->fstdby_clksrc != XMC_SCU_HIB_STDBYCLKSRC_OSCULP));
 520:/opt/XMClib/XMC_Peripheral_Library_v2.1.16/XMCLib/src/xmc4_scu.c ****   XMC_ASSERT("", ((config->syspll_config.clksrc == XMC_SCU_CLOCK_SYSPLLCLKSRC_OSCHP) &&
 521:/opt/XMClib/XMC_Peripheral_Library_v2.1.16/XMCLib/src/xmc4_scu.c ****                  (config->enable_oschp == true)) || (config->syspll_config.clksrc != XMC_SCU_CLOCK_
 522:/opt/XMClib/XMC_Peripheral_Library_v2.1.16/XMCLib/src/xmc4_scu.c **** 
 523:/opt/XMClib/XMC_Peripheral_Library_v2.1.16/XMCLib/src/xmc4_scu.c ****   XMC_SCU_CLOCK_SetSystemClockSource(XMC_SCU_CLOCK_SYSCLKSRC_OFI);
 524:/opt/XMClib/XMC_Peripheral_Library_v2.1.16/XMCLib/src/xmc4_scu.c **** 
 525:/opt/XMClib/XMC_Peripheral_Library_v2.1.16/XMCLib/src/xmc4_scu.c ****   XMC_SCU_HIB_EnableHibernateDomain();
 526:/opt/XMClib/XMC_Peripheral_Library_v2.1.16/XMCLib/src/xmc4_scu.c **** 
 527:/opt/XMClib/XMC_Peripheral_Library_v2.1.16/XMCLib/src/xmc4_scu.c ****   if (config->enable_osculp == true)
 528:/opt/XMClib/XMC_Peripheral_Library_v2.1.16/XMCLib/src/xmc4_scu.c ****   {
 529:/opt/XMClib/XMC_Peripheral_Library_v2.1.16/XMCLib/src/xmc4_scu.c ****     XMC_SCU_CLOCK_EnableLowPowerOscillator();
 530:/opt/XMClib/XMC_Peripheral_Library_v2.1.16/XMCLib/src/xmc4_scu.c ****     while (XMC_SCU_CLOCK_IsLowPowerOscillatorStable() == false);
 531:/opt/XMClib/XMC_Peripheral_Library_v2.1.16/XMCLib/src/xmc4_scu.c ****   }
 532:/opt/XMClib/XMC_Peripheral_Library_v2.1.16/XMCLib/src/xmc4_scu.c ****   
 533:/opt/XMClib/XMC_Peripheral_Library_v2.1.16/XMCLib/src/xmc4_scu.c ****   XMC_SCU_HIB_SetStandbyClockSource(config->fstdby_clksrc);  
 534:/opt/XMClib/XMC_Peripheral_Library_v2.1.16/XMCLib/src/xmc4_scu.c ****   while (XMC_SCU_GetMirrorStatus() != 0)
 535:/opt/XMClib/XMC_Peripheral_Library_v2.1.16/XMCLib/src/xmc4_scu.c ****   {
 536:/opt/XMClib/XMC_Peripheral_Library_v2.1.16/XMCLib/src/xmc4_scu.c ****     /* Wait until update of the stanby clock source is done in the HIB domain */    
 537:/opt/XMClib/XMC_Peripheral_Library_v2.1.16/XMCLib/src/xmc4_scu.c ****   }
 538:/opt/XMClib/XMC_Peripheral_Library_v2.1.16/XMCLib/src/xmc4_scu.c **** 
 539:/opt/XMClib/XMC_Peripheral_Library_v2.1.16/XMCLib/src/xmc4_scu.c ****   XMC_SCU_CLOCK_SetBackupClockCalibrationMode(config->calibration_mode);
 540:/opt/XMClib/XMC_Peripheral_Library_v2.1.16/XMCLib/src/xmc4_scu.c **** 
 541:/opt/XMClib/XMC_Peripheral_Library_v2.1.16/XMCLib/src/xmc4_scu.c ****   XMC_SCU_CLOCK_SetSystemClockDivider((uint32_t)config->fsys_clkdiv);
 542:/opt/XMClib/XMC_Peripheral_Library_v2.1.16/XMCLib/src/xmc4_scu.c ****   XMC_SCU_CLOCK_SetCpuClockDivider((uint32_t)config->fcpu_clkdiv);
 543:/opt/XMClib/XMC_Peripheral_Library_v2.1.16/XMCLib/src/xmc4_scu.c ****   XMC_SCU_CLOCK_SetCcuClockDivider((uint32_t)config->fccu_clkdiv);
 544:/opt/XMClib/XMC_Peripheral_Library_v2.1.16/XMCLib/src/xmc4_scu.c ****   XMC_SCU_CLOCK_SetPeripheralClockDivider((uint32_t)config->fperipheral_clkdiv);
 545:/opt/XMClib/XMC_Peripheral_Library_v2.1.16/XMCLib/src/xmc4_scu.c **** 
 546:/opt/XMClib/XMC_Peripheral_Library_v2.1.16/XMCLib/src/xmc4_scu.c ****   if (config->enable_oschp == true)
 547:/opt/XMClib/XMC_Peripheral_Library_v2.1.16/XMCLib/src/xmc4_scu.c ****   {
 548:/opt/XMClib/XMC_Peripheral_Library_v2.1.16/XMCLib/src/xmc4_scu.c ****     XMC_SCU_CLOCK_EnableHighPerformanceOscillator();
 549:/opt/XMClib/XMC_Peripheral_Library_v2.1.16/XMCLib/src/xmc4_scu.c ****     while(XMC_SCU_CLOCK_IsHighPerformanceOscillatorStable() == false);
 550:/opt/XMClib/XMC_Peripheral_Library_v2.1.16/XMCLib/src/xmc4_scu.c ****   }
 551:/opt/XMClib/XMC_Peripheral_Library_v2.1.16/XMCLib/src/xmc4_scu.c **** 
 552:/opt/XMClib/XMC_Peripheral_Library_v2.1.16/XMCLib/src/xmc4_scu.c ****   if (config->syspll_config.mode == XMC_SCU_CLOCK_SYSPLL_MODE_DISABLED)
 553:/opt/XMClib/XMC_Peripheral_Library_v2.1.16/XMCLib/src/xmc4_scu.c ****   {
 554:/opt/XMClib/XMC_Peripheral_Library_v2.1.16/XMCLib/src/xmc4_scu.c ****     XMC_SCU_CLOCK_DisableSystemPll();
 555:/opt/XMClib/XMC_Peripheral_Library_v2.1.16/XMCLib/src/xmc4_scu.c ****   }
 556:/opt/XMClib/XMC_Peripheral_Library_v2.1.16/XMCLib/src/xmc4_scu.c ****   else
 557:/opt/XMClib/XMC_Peripheral_Library_v2.1.16/XMCLib/src/xmc4_scu.c ****   {
 558:/opt/XMClib/XMC_Peripheral_Library_v2.1.16/XMCLib/src/xmc4_scu.c **** 
 559:/opt/XMClib/XMC_Peripheral_Library_v2.1.16/XMCLib/src/xmc4_scu.c ****     XMC_SCU_CLOCK_EnableSystemPll();
 560:/opt/XMClib/XMC_Peripheral_Library_v2.1.16/XMCLib/src/xmc4_scu.c ****     XMC_SCU_CLOCK_StartSystemPll(config->syspll_config.clksrc,
 561:/opt/XMClib/XMC_Peripheral_Library_v2.1.16/XMCLib/src/xmc4_scu.c ****                                  config->syspll_config.mode,
 562:/opt/XMClib/XMC_Peripheral_Library_v2.1.16/XMCLib/src/xmc4_scu.c ****                                  (uint32_t)config->syspll_config.p_div,
 563:/opt/XMClib/XMC_Peripheral_Library_v2.1.16/XMCLib/src/xmc4_scu.c ****                                  (uint32_t)config->syspll_config.n_div,
 564:/opt/XMClib/XMC_Peripheral_Library_v2.1.16/XMCLib/src/xmc4_scu.c ****                                  (uint32_t)config->syspll_config.k_div);
 565:/opt/XMClib/XMC_Peripheral_Library_v2.1.16/XMCLib/src/xmc4_scu.c ****   }
 566:/opt/XMClib/XMC_Peripheral_Library_v2.1.16/XMCLib/src/xmc4_scu.c **** 
 567:/opt/XMClib/XMC_Peripheral_Library_v2.1.16/XMCLib/src/xmc4_scu.c ****   /* use SYSPLL? */
 568:/opt/XMClib/XMC_Peripheral_Library_v2.1.16/XMCLib/src/xmc4_scu.c ****   if (config->fsys_clksrc == XMC_SCU_CLOCK_SYSCLKSRC_PLL)
 569:/opt/XMClib/XMC_Peripheral_Library_v2.1.16/XMCLib/src/xmc4_scu.c ****   {
 570:/opt/XMClib/XMC_Peripheral_Library_v2.1.16/XMCLib/src/xmc4_scu.c ****     XMC_SCU_CLOCK_SetSystemClockSource(XMC_SCU_CLOCK_SYSCLKSRC_PLL);    
 571:/opt/XMClib/XMC_Peripheral_Library_v2.1.16/XMCLib/src/xmc4_scu.c ****   }
 572:/opt/XMClib/XMC_Peripheral_Library_v2.1.16/XMCLib/src/xmc4_scu.c ****   SystemCoreClockUpdate();
 573:/opt/XMClib/XMC_Peripheral_Library_v2.1.16/XMCLib/src/xmc4_scu.c **** }
 574:/opt/XMClib/XMC_Peripheral_Library_v2.1.16/XMCLib/src/xmc4_scu.c **** 
 575:/opt/XMClib/XMC_Peripheral_Library_v2.1.16/XMCLib/src/xmc4_scu.c **** /* API to enable a trap source */
 576:/opt/XMClib/XMC_Peripheral_Library_v2.1.16/XMCLib/src/xmc4_scu.c **** void XMC_SCU_TRAP_Enable(const uint32_t trap)
 577:/opt/XMClib/XMC_Peripheral_Library_v2.1.16/XMCLib/src/xmc4_scu.c **** {
 779              		.loc 1 577 0
 780              		.cfi_startproc
 781              		@ args = 0, pretend = 0, frame = 0
 782              		@ frame_needed = 0, uses_anonymous_args = 0
 783              		@ link register save eliminated.
 784              	.LVL43:
 578:/opt/XMClib/XMC_Peripheral_Library_v2.1.16/XMCLib/src/xmc4_scu.c ****   SCU_TRAP->TRAPDIS &= (uint32_t)~trap;
 785              		.loc 1 578 0
 786 0000 024A     		ldr	r2, .L78
 787 0002 9368     		ldr	r3, [r2, #8]
 788 0004 23EA0000 		bic	r0, r3, r0
 789              	.LVL44:
 790 0008 9060     		str	r0, [r2, #8]
 579:/opt/XMClib/XMC_Peripheral_Library_v2.1.16/XMCLib/src/xmc4_scu.c **** }
 791              		.loc 1 579 0
 792 000a 7047     		bx	lr
 793              	.L79:
 794              		.align	2
 795              	.L78:
 796 000c 60410050 		.word	1342194016
 797              		.cfi_endproc
 798              	.LFE185:
 800              		.section	.text.XMC_SCU_TRAP_Disable,"ax",%progbits
 801              		.align	1
 802              		.global	XMC_SCU_TRAP_Disable
 803              		.syntax unified
 804              		.thumb
 805              		.thumb_func
 806              		.fpu fpv4-sp-d16
 808              	XMC_SCU_TRAP_Disable:
 809              	.LFB186:
 580:/opt/XMClib/XMC_Peripheral_Library_v2.1.16/XMCLib/src/xmc4_scu.c **** 
 581:/opt/XMClib/XMC_Peripheral_Library_v2.1.16/XMCLib/src/xmc4_scu.c **** /* API to disable a trap source */
 582:/opt/XMClib/XMC_Peripheral_Library_v2.1.16/XMCLib/src/xmc4_scu.c **** void XMC_SCU_TRAP_Disable(const uint32_t trap)
 583:/opt/XMClib/XMC_Peripheral_Library_v2.1.16/XMCLib/src/xmc4_scu.c **** {
 810              		.loc 1 583 0
 811              		.cfi_startproc
 812              		@ args = 0, pretend = 0, frame = 0
 813              		@ frame_needed = 0, uses_anonymous_args = 0
 814              		@ link register save eliminated.
 815              	.LVL45:
 584:/opt/XMClib/XMC_Peripheral_Library_v2.1.16/XMCLib/src/xmc4_scu.c ****   SCU_TRAP->TRAPDIS |= (uint32_t)trap;
 816              		.loc 1 584 0
 817 0000 024A     		ldr	r2, .L81
 818 0002 9368     		ldr	r3, [r2, #8]
 819 0004 1843     		orrs	r0, r0, r3
 820              	.LVL46:
 821 0006 9060     		str	r0, [r2, #8]
 585:/opt/XMClib/XMC_Peripheral_Library_v2.1.16/XMCLib/src/xmc4_scu.c **** }
 822              		.loc 1 585 0
 823 0008 7047     		bx	lr
 824              	.L82:
 825 000a 00BF     		.align	2
 826              	.L81:
 827 000c 60410050 		.word	1342194016
 828              		.cfi_endproc
 829              	.LFE186:
 831              		.section	.text.XMC_SCU_TRAP_GetStatus,"ax",%progbits
 832              		.align	1
 833              		.global	XMC_SCU_TRAP_GetStatus
 834              		.syntax unified
 835              		.thumb
 836              		.thumb_func
 837              		.fpu fpv4-sp-d16
 839              	XMC_SCU_TRAP_GetStatus:
 840              	.LFB187:
 586:/opt/XMClib/XMC_Peripheral_Library_v2.1.16/XMCLib/src/xmc4_scu.c **** 
 587:/opt/XMClib/XMC_Peripheral_Library_v2.1.16/XMCLib/src/xmc4_scu.c **** /* API to determine if a trap source has generated event */
 588:/opt/XMClib/XMC_Peripheral_Library_v2.1.16/XMCLib/src/xmc4_scu.c **** uint32_t XMC_SCU_TRAP_GetStatus(void)
 589:/opt/XMClib/XMC_Peripheral_Library_v2.1.16/XMCLib/src/xmc4_scu.c **** {
 841              		.loc 1 589 0
 842              		.cfi_startproc
 843              		@ args = 0, pretend = 0, frame = 0
 844              		@ frame_needed = 0, uses_anonymous_args = 0
 845              		@ link register save eliminated.
 590:/opt/XMClib/XMC_Peripheral_Library_v2.1.16/XMCLib/src/xmc4_scu.c ****   return (SCU_TRAP->TRAPRAW);
 846              		.loc 1 590 0
 847 0000 014B     		ldr	r3, .L84
 848 0002 5868     		ldr	r0, [r3, #4]
 591:/opt/XMClib/XMC_Peripheral_Library_v2.1.16/XMCLib/src/xmc4_scu.c **** }
 849              		.loc 1 591 0
 850 0004 7047     		bx	lr
 851              	.L85:
 852 0006 00BF     		.align	2
 853              	.L84:
 854 0008 60410050 		.word	1342194016
 855              		.cfi_endproc
 856              	.LFE187:
 858              		.section	.text.XMC_SCU_TRAP_Trigger,"ax",%progbits
 859              		.align	1
 860              		.global	XMC_SCU_TRAP_Trigger
 861              		.syntax unified
 862              		.thumb
 863              		.thumb_func
 864              		.fpu fpv4-sp-d16
 866              	XMC_SCU_TRAP_Trigger:
 867              	.LFB188:
 592:/opt/XMClib/XMC_Peripheral_Library_v2.1.16/XMCLib/src/xmc4_scu.c **** 
 593:/opt/XMClib/XMC_Peripheral_Library_v2.1.16/XMCLib/src/xmc4_scu.c **** /* API to manually trigger a trap event */
 594:/opt/XMClib/XMC_Peripheral_Library_v2.1.16/XMCLib/src/xmc4_scu.c **** void XMC_SCU_TRAP_Trigger(const uint32_t trap)
 595:/opt/XMClib/XMC_Peripheral_Library_v2.1.16/XMCLib/src/xmc4_scu.c **** {
 868              		.loc 1 595 0
 869              		.cfi_startproc
 870              		@ args = 0, pretend = 0, frame = 0
 871              		@ frame_needed = 0, uses_anonymous_args = 0
 872              		@ link register save eliminated.
 873              	.LVL47:
 596:/opt/XMClib/XMC_Peripheral_Library_v2.1.16/XMCLib/src/xmc4_scu.c ****   SCU_TRAP->TRAPSET = (uint32_t)trap;
 874              		.loc 1 596 0
 875 0000 014B     		ldr	r3, .L87
 876 0002 1861     		str	r0, [r3, #16]
 597:/opt/XMClib/XMC_Peripheral_Library_v2.1.16/XMCLib/src/xmc4_scu.c **** }
 877              		.loc 1 597 0
 878 0004 7047     		bx	lr
 879              	.L88:
 880 0006 00BF     		.align	2
 881              	.L87:
 882 0008 60410050 		.word	1342194016
 883              		.cfi_endproc
 884              	.LFE188:
 886              		.section	.text.XMC_SCU_TRAP_ClearStatus,"ax",%progbits
 887              		.align	1
 888              		.global	XMC_SCU_TRAP_ClearStatus
 889              		.syntax unified
 890              		.thumb
 891              		.thumb_func
 892              		.fpu fpv4-sp-d16
 894              	XMC_SCU_TRAP_ClearStatus:
 895              	.LFB189:
 598:/opt/XMClib/XMC_Peripheral_Library_v2.1.16/XMCLib/src/xmc4_scu.c **** 
 599:/opt/XMClib/XMC_Peripheral_Library_v2.1.16/XMCLib/src/xmc4_scu.c **** /* API to clear a trap event */
 600:/opt/XMClib/XMC_Peripheral_Library_v2.1.16/XMCLib/src/xmc4_scu.c **** void XMC_SCU_TRAP_ClearStatus(const uint32_t trap)
 601:/opt/XMClib/XMC_Peripheral_Library_v2.1.16/XMCLib/src/xmc4_scu.c **** {
 896              		.loc 1 601 0
 897              		.cfi_startproc
 898              		@ args = 0, pretend = 0, frame = 0
 899              		@ frame_needed = 0, uses_anonymous_args = 0
 900              		@ link register save eliminated.
 901              	.LVL48:
 602:/opt/XMClib/XMC_Peripheral_Library_v2.1.16/XMCLib/src/xmc4_scu.c ****   SCU_TRAP->TRAPCLR = (uint32_t)trap;
 902              		.loc 1 602 0
 903 0000 014B     		ldr	r3, .L90
 904 0002 D860     		str	r0, [r3, #12]
 603:/opt/XMClib/XMC_Peripheral_Library_v2.1.16/XMCLib/src/xmc4_scu.c **** }
 905              		.loc 1 603 0
 906 0004 7047     		bx	lr
 907              	.L91:
 908 0006 00BF     		.align	2
 909              	.L90:
 910 0008 60410050 		.word	1342194016
 911              		.cfi_endproc
 912              	.LFE189:
 914              		.section	.text.XMC_SCU_PARITY_ClearStatus,"ax",%progbits
 915              		.align	1
 916              		.global	XMC_SCU_PARITY_ClearStatus
 917              		.syntax unified
 918              		.thumb
 919              		.thumb_func
 920              		.fpu fpv4-sp-d16
 922              	XMC_SCU_PARITY_ClearStatus:
 923              	.LFB190:
 604:/opt/XMClib/XMC_Peripheral_Library_v2.1.16/XMCLib/src/xmc4_scu.c **** 
 605:/opt/XMClib/XMC_Peripheral_Library_v2.1.16/XMCLib/src/xmc4_scu.c **** /* API to clear parity error event */
 606:/opt/XMClib/XMC_Peripheral_Library_v2.1.16/XMCLib/src/xmc4_scu.c **** void XMC_SCU_PARITY_ClearStatus(const uint32_t memory)
 607:/opt/XMClib/XMC_Peripheral_Library_v2.1.16/XMCLib/src/xmc4_scu.c **** {
 924              		.loc 1 607 0
 925              		.cfi_startproc
 926              		@ args = 0, pretend = 0, frame = 0
 927              		@ frame_needed = 0, uses_anonymous_args = 0
 928              		@ link register save eliminated.
 929              	.LVL49:
 608:/opt/XMClib/XMC_Peripheral_Library_v2.1.16/XMCLib/src/xmc4_scu.c ****   SCU_PARITY->PEFLAG |= (uint32_t)memory; 
 930              		.loc 1 608 0
 931 0000 024A     		ldr	r2, .L93
 932 0002 5369     		ldr	r3, [r2, #20]
 933 0004 1843     		orrs	r0, r0, r3
 934              	.LVL50:
 935 0006 5061     		str	r0, [r2, #20]
 609:/opt/XMClib/XMC_Peripheral_Library_v2.1.16/XMCLib/src/xmc4_scu.c **** }
 936              		.loc 1 609 0
 937 0008 7047     		bx	lr
 938              	.L94:
 939 000a 00BF     		.align	2
 940              	.L93:
 941 000c 3C410050 		.word	1342193980
 942              		.cfi_endproc
 943              	.LFE190:
 945              		.section	.text.XMC_SCU_PARITY_GetStatus,"ax",%progbits
 946              		.align	1
 947              		.global	XMC_SCU_PARITY_GetStatus
 948              		.syntax unified
 949              		.thumb
 950              		.thumb_func
 951              		.fpu fpv4-sp-d16
 953              	XMC_SCU_PARITY_GetStatus:
 954              	.LFB191:
 610:/opt/XMClib/XMC_Peripheral_Library_v2.1.16/XMCLib/src/xmc4_scu.c **** 
 611:/opt/XMClib/XMC_Peripheral_Library_v2.1.16/XMCLib/src/xmc4_scu.c **** /* API to determine if the specified parity error has occured or not */
 612:/opt/XMClib/XMC_Peripheral_Library_v2.1.16/XMCLib/src/xmc4_scu.c **** uint32_t XMC_SCU_PARITY_GetStatus(void)
 613:/opt/XMClib/XMC_Peripheral_Library_v2.1.16/XMCLib/src/xmc4_scu.c **** {
 955              		.loc 1 613 0
 956              		.cfi_startproc
 957              		@ args = 0, pretend = 0, frame = 0
 958              		@ frame_needed = 0, uses_anonymous_args = 0
 959              		@ link register save eliminated.
 614:/opt/XMClib/XMC_Peripheral_Library_v2.1.16/XMCLib/src/xmc4_scu.c ****   return (SCU_PARITY->PEFLAG);
 960              		.loc 1 614 0
 961 0000 014B     		ldr	r3, .L96
 962 0002 5869     		ldr	r0, [r3, #20]
 615:/opt/XMClib/XMC_Peripheral_Library_v2.1.16/XMCLib/src/xmc4_scu.c **** } 
 963              		.loc 1 615 0
 964 0004 7047     		bx	lr
 965              	.L97:
 966 0006 00BF     		.align	2
 967              	.L96:
 968 0008 3C410050 		.word	1342193980
 969              		.cfi_endproc
 970              	.LFE191:
 972              		.section	.text.XMC_SCU_PARITY_Enable,"ax",%progbits
 973              		.align	1
 974              		.global	XMC_SCU_PARITY_Enable
 975              		.syntax unified
 976              		.thumb
 977              		.thumb_func
 978              		.fpu fpv4-sp-d16
 980              	XMC_SCU_PARITY_Enable:
 981              	.LFB192:
 616:/opt/XMClib/XMC_Peripheral_Library_v2.1.16/XMCLib/src/xmc4_scu.c **** 
 617:/opt/XMClib/XMC_Peripheral_Library_v2.1.16/XMCLib/src/xmc4_scu.c **** /* API to enable parity error checking for the selected on-chip RAM type */
 618:/opt/XMClib/XMC_Peripheral_Library_v2.1.16/XMCLib/src/xmc4_scu.c **** void XMC_SCU_PARITY_Enable(const uint32_t memory)
 619:/opt/XMClib/XMC_Peripheral_Library_v2.1.16/XMCLib/src/xmc4_scu.c **** {
 982              		.loc 1 619 0
 983              		.cfi_startproc
 984              		@ args = 0, pretend = 0, frame = 0
 985              		@ frame_needed = 0, uses_anonymous_args = 0
 986              		@ link register save eliminated.
 987              	.LVL51:
 620:/opt/XMClib/XMC_Peripheral_Library_v2.1.16/XMCLib/src/xmc4_scu.c ****   SCU_PARITY->PEEN |= (uint32_t)memory; 
 988              		.loc 1 620 0
 989 0000 024A     		ldr	r2, .L99
 990 0002 1368     		ldr	r3, [r2]
 991 0004 1843     		orrs	r0, r0, r3
 992              	.LVL52:
 993 0006 1060     		str	r0, [r2]
 621:/opt/XMClib/XMC_Peripheral_Library_v2.1.16/XMCLib/src/xmc4_scu.c **** }
 994              		.loc 1 621 0
 995 0008 7047     		bx	lr
 996              	.L100:
 997 000a 00BF     		.align	2
 998              	.L99:
 999 000c 3C410050 		.word	1342193980
 1000              		.cfi_endproc
 1001              	.LFE192:
 1003              		.section	.text.XMC_SCU_PARITY_Disable,"ax",%progbits
 1004              		.align	1
 1005              		.global	XMC_SCU_PARITY_Disable
 1006              		.syntax unified
 1007              		.thumb
 1008              		.thumb_func
 1009              		.fpu fpv4-sp-d16
 1011              	XMC_SCU_PARITY_Disable:
 1012              	.LFB193:
 622:/opt/XMClib/XMC_Peripheral_Library_v2.1.16/XMCLib/src/xmc4_scu.c **** 
 623:/opt/XMClib/XMC_Peripheral_Library_v2.1.16/XMCLib/src/xmc4_scu.c **** /* API to disable parity error checking for the selected on-chip RAM type */
 624:/opt/XMClib/XMC_Peripheral_Library_v2.1.16/XMCLib/src/xmc4_scu.c **** void XMC_SCU_PARITY_Disable(const uint32_t memory)
 625:/opt/XMClib/XMC_Peripheral_Library_v2.1.16/XMCLib/src/xmc4_scu.c **** {
 1013              		.loc 1 625 0
 1014              		.cfi_startproc
 1015              		@ args = 0, pretend = 0, frame = 0
 1016              		@ frame_needed = 0, uses_anonymous_args = 0
 1017              		@ link register save eliminated.
 1018              	.LVL53:
 626:/opt/XMClib/XMC_Peripheral_Library_v2.1.16/XMCLib/src/xmc4_scu.c ****   SCU_PARITY->PEEN &= (uint32_t)~memory; 
 1019              		.loc 1 626 0
 1020 0000 024A     		ldr	r2, .L102
 1021 0002 1368     		ldr	r3, [r2]
 1022 0004 23EA0000 		bic	r0, r3, r0
 1023              	.LVL54:
 1024 0008 1060     		str	r0, [r2]
 627:/opt/XMClib/XMC_Peripheral_Library_v2.1.16/XMCLib/src/xmc4_scu.c **** }
 1025              		.loc 1 627 0
 1026 000a 7047     		bx	lr
 1027              	.L103:
 1028              		.align	2
 1029              	.L102:
 1030 000c 3C410050 		.word	1342193980
 1031              		.cfi_endproc
 1032              	.LFE193:
 1034              		.section	.text.XMC_SCU_PARITY_EnableTrapGeneration,"ax",%progbits
 1035              		.align	1
 1036              		.global	XMC_SCU_PARITY_EnableTrapGeneration
 1037              		.syntax unified
 1038              		.thumb
 1039              		.thumb_func
 1040              		.fpu fpv4-sp-d16
 1042              	XMC_SCU_PARITY_EnableTrapGeneration:
 1043              	.LFB194:
 628:/opt/XMClib/XMC_Peripheral_Library_v2.1.16/XMCLib/src/xmc4_scu.c **** 
 629:/opt/XMClib/XMC_Peripheral_Library_v2.1.16/XMCLib/src/xmc4_scu.c **** /* API to enable trap assertion for the parity error source */
 630:/opt/XMClib/XMC_Peripheral_Library_v2.1.16/XMCLib/src/xmc4_scu.c **** void XMC_SCU_PARITY_EnableTrapGeneration(const uint32_t memory)
 631:/opt/XMClib/XMC_Peripheral_Library_v2.1.16/XMCLib/src/xmc4_scu.c **** {
 1044              		.loc 1 631 0
 1045              		.cfi_startproc
 1046              		@ args = 0, pretend = 0, frame = 0
 1047              		@ frame_needed = 0, uses_anonymous_args = 0
 1048              		@ link register save eliminated.
 1049              	.LVL55:
 632:/opt/XMClib/XMC_Peripheral_Library_v2.1.16/XMCLib/src/xmc4_scu.c ****   SCU_PARITY->PETE |= (uint32_t)memory; 
 1050              		.loc 1 632 0
 1051 0000 024A     		ldr	r2, .L105
 1052 0002 9368     		ldr	r3, [r2, #8]
 1053 0004 1843     		orrs	r0, r0, r3
 1054              	.LVL56:
 1055 0006 9060     		str	r0, [r2, #8]
 633:/opt/XMClib/XMC_Peripheral_Library_v2.1.16/XMCLib/src/xmc4_scu.c **** }
 1056              		.loc 1 633 0
 1057 0008 7047     		bx	lr
 1058              	.L106:
 1059 000a 00BF     		.align	2
 1060              	.L105:
 1061 000c 3C410050 		.word	1342193980
 1062              		.cfi_endproc
 1063              	.LFE194:
 1065              		.section	.text.XMC_SCU_PARITY_DisableTrapGeneration,"ax",%progbits
 1066              		.align	1
 1067              		.global	XMC_SCU_PARITY_DisableTrapGeneration
 1068              		.syntax unified
 1069              		.thumb
 1070              		.thumb_func
 1071              		.fpu fpv4-sp-d16
 1073              	XMC_SCU_PARITY_DisableTrapGeneration:
 1074              	.LFB195:
 634:/opt/XMClib/XMC_Peripheral_Library_v2.1.16/XMCLib/src/xmc4_scu.c **** 
 635:/opt/XMClib/XMC_Peripheral_Library_v2.1.16/XMCLib/src/xmc4_scu.c **** /* API to disable the assertion of trap for the parity error source */
 636:/opt/XMClib/XMC_Peripheral_Library_v2.1.16/XMCLib/src/xmc4_scu.c **** void XMC_SCU_PARITY_DisableTrapGeneration(const uint32_t memory)
 637:/opt/XMClib/XMC_Peripheral_Library_v2.1.16/XMCLib/src/xmc4_scu.c **** {
 1075              		.loc 1 637 0
 1076              		.cfi_startproc
 1077              		@ args = 0, pretend = 0, frame = 0
 1078              		@ frame_needed = 0, uses_anonymous_args = 0
 1079              		@ link register save eliminated.
 1080              	.LVL57:
 638:/opt/XMClib/XMC_Peripheral_Library_v2.1.16/XMCLib/src/xmc4_scu.c ****   SCU_PARITY->PETE &= (uint32_t)~memory; 
 1081              		.loc 1 638 0
 1082 0000 024A     		ldr	r2, .L108
 1083 0002 9368     		ldr	r3, [r2, #8]
 1084 0004 23EA0000 		bic	r0, r3, r0
 1085              	.LVL58:
 1086 0008 9060     		str	r0, [r2, #8]
 639:/opt/XMClib/XMC_Peripheral_Library_v2.1.16/XMCLib/src/xmc4_scu.c **** }
 1087              		.loc 1 639 0
 1088 000a 7047     		bx	lr
 1089              	.L109:
 1090              		.align	2
 1091              	.L108:
 1092 000c 3C410050 		.word	1342193980
 1093              		.cfi_endproc
 1094              	.LFE195:
 1096              		.section	.text.XMC_SCU_INTERRUPT_EnableNmiRequest,"ax",%progbits
 1097              		.align	1
 1098              		.global	XMC_SCU_INTERRUPT_EnableNmiRequest
 1099              		.syntax unified
 1100              		.thumb
 1101              		.thumb_func
 1102              		.fpu fpv4-sp-d16
 1104              	XMC_SCU_INTERRUPT_EnableNmiRequest:
 1105              	.LFB196:
 640:/opt/XMClib/XMC_Peripheral_Library_v2.1.16/XMCLib/src/xmc4_scu.c **** 
 641:/opt/XMClib/XMC_Peripheral_Library_v2.1.16/XMCLib/src/xmc4_scu.c **** /* Enables a NMI source */
 642:/opt/XMClib/XMC_Peripheral_Library_v2.1.16/XMCLib/src/xmc4_scu.c **** void XMC_SCU_INTERRUPT_EnableNmiRequest(const uint32_t request)
 643:/opt/XMClib/XMC_Peripheral_Library_v2.1.16/XMCLib/src/xmc4_scu.c **** {
 1106              		.loc 1 643 0
 1107              		.cfi_startproc
 1108              		@ args = 0, pretend = 0, frame = 0
 1109              		@ frame_needed = 0, uses_anonymous_args = 0
 1110              		@ link register save eliminated.
 1111              	.LVL59:
 644:/opt/XMClib/XMC_Peripheral_Library_v2.1.16/XMCLib/src/xmc4_scu.c ****   SCU_INTERRUPT->NMIREQEN |= (uint32_t)request;
 1112              		.loc 1 644 0
 1113 0000 024A     		ldr	r2, .L111
 1114 0002 5369     		ldr	r3, [r2, #20]
 1115 0004 1843     		orrs	r0, r0, r3
 1116              	.LVL60:
 1117 0006 5061     		str	r0, [r2, #20]
 645:/opt/XMClib/XMC_Peripheral_Library_v2.1.16/XMCLib/src/xmc4_scu.c **** }
 1118              		.loc 1 645 0
 1119 0008 7047     		bx	lr
 1120              	.L112:
 1121 000a 00BF     		.align	2
 1122              	.L111:
 1123 000c 74400050 		.word	1342193780
 1124              		.cfi_endproc
 1125              	.LFE196:
 1127              		.section	.text.XMC_SCU_INTERRUPT_DisableNmiRequest,"ax",%progbits
 1128              		.align	1
 1129              		.global	XMC_SCU_INTERRUPT_DisableNmiRequest
 1130              		.syntax unified
 1131              		.thumb
 1132              		.thumb_func
 1133              		.fpu fpv4-sp-d16
 1135              	XMC_SCU_INTERRUPT_DisableNmiRequest:
 1136              	.LFB197:
 646:/opt/XMClib/XMC_Peripheral_Library_v2.1.16/XMCLib/src/xmc4_scu.c **** 
 647:/opt/XMClib/XMC_Peripheral_Library_v2.1.16/XMCLib/src/xmc4_scu.c **** /* Disables a NMI source */
 648:/opt/XMClib/XMC_Peripheral_Library_v2.1.16/XMCLib/src/xmc4_scu.c **** void XMC_SCU_INTERRUPT_DisableNmiRequest(const uint32_t request)
 649:/opt/XMClib/XMC_Peripheral_Library_v2.1.16/XMCLib/src/xmc4_scu.c **** {
 1137              		.loc 1 649 0
 1138              		.cfi_startproc
 1139              		@ args = 0, pretend = 0, frame = 0
 1140              		@ frame_needed = 0, uses_anonymous_args = 0
 1141              		@ link register save eliminated.
 1142              	.LVL61:
 650:/opt/XMClib/XMC_Peripheral_Library_v2.1.16/XMCLib/src/xmc4_scu.c ****   SCU_INTERRUPT->NMIREQEN &= (uint32_t)~request;
 1143              		.loc 1 650 0
 1144 0000 024A     		ldr	r2, .L114
 1145 0002 5369     		ldr	r3, [r2, #20]
 1146 0004 23EA0000 		bic	r0, r3, r0
 1147              	.LVL62:
 1148 0008 5061     		str	r0, [r2, #20]
 651:/opt/XMClib/XMC_Peripheral_Library_v2.1.16/XMCLib/src/xmc4_scu.c **** }
 1149              		.loc 1 651 0
 1150 000a 7047     		bx	lr
 1151              	.L115:
 1152              		.align	2
 1153              	.L114:
 1154 000c 74400050 		.word	1342193780
 1155              		.cfi_endproc
 1156              	.LFE197:
 1158              		.section	.text.XMC_SCU_RESET_AssertPeripheralReset,"ax",%progbits
 1159              		.align	1
 1160              		.global	XMC_SCU_RESET_AssertPeripheralReset
 1161              		.syntax unified
 1162              		.thumb
 1163              		.thumb_func
 1164              		.fpu fpv4-sp-d16
 1166              	XMC_SCU_RESET_AssertPeripheralReset:
 1167              	.LFB198:
 652:/opt/XMClib/XMC_Peripheral_Library_v2.1.16/XMCLib/src/xmc4_scu.c **** 
 653:/opt/XMClib/XMC_Peripheral_Library_v2.1.16/XMCLib/src/xmc4_scu.c **** /* API to manually assert a reset request */
 654:/opt/XMClib/XMC_Peripheral_Library_v2.1.16/XMCLib/src/xmc4_scu.c **** void XMC_SCU_RESET_AssertPeripheralReset(const XMC_SCU_PERIPHERAL_RESET_t peripheral)
 655:/opt/XMClib/XMC_Peripheral_Library_v2.1.16/XMCLib/src/xmc4_scu.c **** {
 1168              		.loc 1 655 0
 1169              		.cfi_startproc
 1170              		@ args = 0, pretend = 0, frame = 0
 1171              		@ frame_needed = 0, uses_anonymous_args = 0
 1172              		@ link register save eliminated.
 1173              	.LVL63:
 656:/opt/XMClib/XMC_Peripheral_Library_v2.1.16/XMCLib/src/xmc4_scu.c ****   uint32_t index = (uint32_t)((((uint32_t)peripheral) & 0xf0000000UL) >> 28UL);
 1174              		.loc 1 656 0
 1175 0000 030F     		lsrs	r3, r0, #28
 1176              	.LVL64:
 657:/opt/XMClib/XMC_Peripheral_Library_v2.1.16/XMCLib/src/xmc4_scu.c ****   uint32_t mask = (((uint32_t)peripheral) & ((uint32_t)~0xf0000000UL));
 658:/opt/XMClib/XMC_Peripheral_Library_v2.1.16/XMCLib/src/xmc4_scu.c **** 
 659:/opt/XMClib/XMC_Peripheral_Library_v2.1.16/XMCLib/src/xmc4_scu.c ****   *(uint32_t *)(&(SCU_RESET->PRSET0) + (index * 3U)) = (uint32_t)mask;
 1177              		.loc 1 659 0
 1178 0002 03EB4303 		add	r3, r3, r3, lsl #1
 1179              	.LVL65:
 657:/opt/XMClib/XMC_Peripheral_Library_v2.1.16/XMCLib/src/xmc4_scu.c ****   uint32_t mask = (((uint32_t)peripheral) & ((uint32_t)~0xf0000000UL));
 1180              		.loc 1 657 0
 1181 0006 20F07040 		bic	r0, r0, #-268435456
 1182              	.LVL66:
 1183              		.loc 1 659 0
 1184 000a 024A     		ldr	r2, .L117
 1185 000c 42F82300 		str	r0, [r2, r3, lsl #2]
 660:/opt/XMClib/XMC_Peripheral_Library_v2.1.16/XMCLib/src/xmc4_scu.c **** }
 1186              		.loc 1 660 0
 1187 0010 7047     		bx	lr
 1188              	.L118:
 1189 0012 00BF     		.align	2
 1190              	.L117:
 1191 0014 10440050 		.word	1342194704
 1192              		.cfi_endproc
 1193              	.LFE198:
 1195              		.section	.text.XMC_SCU_RESET_DeassertPeripheralReset,"ax",%progbits
 1196              		.align	1
 1197              		.global	XMC_SCU_RESET_DeassertPeripheralReset
 1198              		.syntax unified
 1199              		.thumb
 1200              		.thumb_func
 1201              		.fpu fpv4-sp-d16
 1203              	XMC_SCU_RESET_DeassertPeripheralReset:
 1204              	.LFB199:
 661:/opt/XMClib/XMC_Peripheral_Library_v2.1.16/XMCLib/src/xmc4_scu.c **** 
 662:/opt/XMClib/XMC_Peripheral_Library_v2.1.16/XMCLib/src/xmc4_scu.c **** /* API to manually de-assert a reset request */
 663:/opt/XMClib/XMC_Peripheral_Library_v2.1.16/XMCLib/src/xmc4_scu.c **** void XMC_SCU_RESET_DeassertPeripheralReset(const XMC_SCU_PERIPHERAL_RESET_t peripheral)
 664:/opt/XMClib/XMC_Peripheral_Library_v2.1.16/XMCLib/src/xmc4_scu.c **** {
 1205              		.loc 1 664 0
 1206              		.cfi_startproc
 1207              		@ args = 0, pretend = 0, frame = 0
 1208              		@ frame_needed = 0, uses_anonymous_args = 0
 1209              		@ link register save eliminated.
 1210              	.LVL67:
 665:/opt/XMClib/XMC_Peripheral_Library_v2.1.16/XMCLib/src/xmc4_scu.c ****   uint32_t index = (uint32_t)((((uint32_t)peripheral) & 0xf0000000UL) >> 28UL);
 1211              		.loc 1 665 0
 1212 0000 030F     		lsrs	r3, r0, #28
 1213              	.LVL68:
 666:/opt/XMClib/XMC_Peripheral_Library_v2.1.16/XMCLib/src/xmc4_scu.c ****   uint32_t mask = (((uint32_t)peripheral) & ((uint32_t)~0xf0000000UL));
 667:/opt/XMClib/XMC_Peripheral_Library_v2.1.16/XMCLib/src/xmc4_scu.c **** 
 668:/opt/XMClib/XMC_Peripheral_Library_v2.1.16/XMCLib/src/xmc4_scu.c ****   *(uint32_t *)(&(SCU_RESET->PRCLR0) + (index * 3U)) = (uint32_t)mask;
 1214              		.loc 1 668 0
 1215 0002 03EB4303 		add	r3, r3, r3, lsl #1
 1216              	.LVL69:
 666:/opt/XMClib/XMC_Peripheral_Library_v2.1.16/XMCLib/src/xmc4_scu.c ****   uint32_t mask = (((uint32_t)peripheral) & ((uint32_t)~0xf0000000UL));
 1217              		.loc 1 666 0
 1218 0006 20F07040 		bic	r0, r0, #-268435456
 1219              	.LVL70:
 1220              		.loc 1 668 0
 1221 000a 024A     		ldr	r2, .L120
 1222 000c 42F82300 		str	r0, [r2, r3, lsl #2]
 669:/opt/XMClib/XMC_Peripheral_Library_v2.1.16/XMCLib/src/xmc4_scu.c **** }
 1223              		.loc 1 669 0
 1224 0010 7047     		bx	lr
 1225              	.L121:
 1226 0012 00BF     		.align	2
 1227              	.L120:
 1228 0014 14440050 		.word	1342194708
 1229              		.cfi_endproc
 1230              	.LFE199:
 1232              		.section	.text.XMC_SCU_RESET_IsPeripheralResetAsserted,"ax",%progbits
 1233              		.align	1
 1234              		.global	XMC_SCU_RESET_IsPeripheralResetAsserted
 1235              		.syntax unified
 1236              		.thumb
 1237              		.thumb_func
 1238              		.fpu fpv4-sp-d16
 1240              	XMC_SCU_RESET_IsPeripheralResetAsserted:
 1241              	.LFB200:
 670:/opt/XMClib/XMC_Peripheral_Library_v2.1.16/XMCLib/src/xmc4_scu.c **** 
 671:/opt/XMClib/XMC_Peripheral_Library_v2.1.16/XMCLib/src/xmc4_scu.c **** /* Find out if the peripheral reset is asserted */
 672:/opt/XMClib/XMC_Peripheral_Library_v2.1.16/XMCLib/src/xmc4_scu.c **** bool XMC_SCU_RESET_IsPeripheralResetAsserted(const XMC_SCU_PERIPHERAL_RESET_t peripheral)
 673:/opt/XMClib/XMC_Peripheral_Library_v2.1.16/XMCLib/src/xmc4_scu.c **** {
 1242              		.loc 1 673 0
 1243              		.cfi_startproc
 1244              		@ args = 0, pretend = 0, frame = 0
 1245              		@ frame_needed = 0, uses_anonymous_args = 0
 1246              		@ link register save eliminated.
 1247              	.LVL71:
 674:/opt/XMClib/XMC_Peripheral_Library_v2.1.16/XMCLib/src/xmc4_scu.c ****   uint32_t index = (uint32_t)((((uint32_t)peripheral) & 0xf0000000UL) >> 28UL);
 1248              		.loc 1 674 0
 1249 0000 030F     		lsrs	r3, r0, #28
 1250              	.LVL72:
 675:/opt/XMClib/XMC_Peripheral_Library_v2.1.16/XMCLib/src/xmc4_scu.c ****   uint32_t mask = (((uint32_t)peripheral) & ((uint32_t)~0xf0000000UL));
 676:/opt/XMClib/XMC_Peripheral_Library_v2.1.16/XMCLib/src/xmc4_scu.c **** 
 677:/opt/XMClib/XMC_Peripheral_Library_v2.1.16/XMCLib/src/xmc4_scu.c ****   return ((*(uint32_t *)(&(SCU_RESET->PRSTAT0) + (index * 3U)) & mask) != 0U);
 1251              		.loc 1 677 0
 1252 0002 03EB4303 		add	r3, r3, r3, lsl #1
 1253              	.LVL73:
 675:/opt/XMClib/XMC_Peripheral_Library_v2.1.16/XMCLib/src/xmc4_scu.c ****   uint32_t mask = (((uint32_t)peripheral) & ((uint32_t)~0xf0000000UL));
 1254              		.loc 1 675 0
 1255 0006 20F07040 		bic	r0, r0, #-268435456
 1256              	.LVL74:
 1257              		.loc 1 677 0
 1258 000a 044A     		ldr	r2, .L123
 1259 000c 52F82330 		ldr	r3, [r2, r3, lsl #2]
 1260 0010 1842     		tst	r0, r3
 678:/opt/XMClib/XMC_Peripheral_Library_v2.1.16/XMCLib/src/xmc4_scu.c **** }
 1261              		.loc 1 678 0
 1262 0012 14BF     		ite	ne
 1263 0014 0120     		movne	r0, #1
 1264              	.LVL75:
 1265 0016 0020     		moveq	r0, #0
 1266 0018 7047     		bx	lr
 1267              	.L124:
 1268 001a 00BF     		.align	2
 1269              	.L123:
 1270 001c 0C440050 		.word	1342194700
 1271              		.cfi_endproc
 1272              	.LFE200:
 1274              		.section	.text.XMC_SCU_CLOCK_GetSystemPllClockSourceFrequency,"ax",%progbits
 1275              		.align	1
 1276              		.global	XMC_SCU_CLOCK_GetSystemPllClockSourceFrequency
 1277              		.syntax unified
 1278              		.thumb
 1279              		.thumb_func
 1280              		.fpu fpv4-sp-d16
 1282              	XMC_SCU_CLOCK_GetSystemPllClockSourceFrequency:
 1283              	.LFB202:
 679:/opt/XMClib/XMC_Peripheral_Library_v2.1.16/XMCLib/src/xmc4_scu.c **** 
 680:/opt/XMClib/XMC_Peripheral_Library_v2.1.16/XMCLib/src/xmc4_scu.c **** /*
 681:/opt/XMClib/XMC_Peripheral_Library_v2.1.16/XMCLib/src/xmc4_scu.c ****  * API to retrieve frequency of System PLL output clock
 682:/opt/XMClib/XMC_Peripheral_Library_v2.1.16/XMCLib/src/xmc4_scu.c ****  */
 683:/opt/XMClib/XMC_Peripheral_Library_v2.1.16/XMCLib/src/xmc4_scu.c **** uint32_t XMC_SCU_CLOCK_GetSystemPllClockFrequency(void)
 684:/opt/XMClib/XMC_Peripheral_Library_v2.1.16/XMCLib/src/xmc4_scu.c **** {
 685:/opt/XMClib/XMC_Peripheral_Library_v2.1.16/XMCLib/src/xmc4_scu.c ****   uint32_t clock_frequency;
 686:/opt/XMClib/XMC_Peripheral_Library_v2.1.16/XMCLib/src/xmc4_scu.c ****   uint32_t p_div;
 687:/opt/XMClib/XMC_Peripheral_Library_v2.1.16/XMCLib/src/xmc4_scu.c ****   uint32_t n_div;
 688:/opt/XMClib/XMC_Peripheral_Library_v2.1.16/XMCLib/src/xmc4_scu.c ****   uint32_t k2_div;
 689:/opt/XMClib/XMC_Peripheral_Library_v2.1.16/XMCLib/src/xmc4_scu.c **** 
 690:/opt/XMClib/XMC_Peripheral_Library_v2.1.16/XMCLib/src/xmc4_scu.c ****   clock_frequency = XMC_SCU_CLOCK_GetSystemPllClockSourceFrequency();
 691:/opt/XMClib/XMC_Peripheral_Library_v2.1.16/XMCLib/src/xmc4_scu.c ****   if(SCU_PLL->PLLSTAT & SCU_PLL_PLLSTAT_VCOBYST_Msk)
 692:/opt/XMClib/XMC_Peripheral_Library_v2.1.16/XMCLib/src/xmc4_scu.c ****   {
 693:/opt/XMClib/XMC_Peripheral_Library_v2.1.16/XMCLib/src/xmc4_scu.c ****     /* Prescalar mode - fOSC is the parent*/
 694:/opt/XMClib/XMC_Peripheral_Library_v2.1.16/XMCLib/src/xmc4_scu.c ****     clock_frequency = (uint32_t)(clock_frequency / 
 695:/opt/XMClib/XMC_Peripheral_Library_v2.1.16/XMCLib/src/xmc4_scu.c ****                       ((((SCU_PLL->PLLCON1) & SCU_PLL_PLLCON1_K1DIV_Msk) >> SCU_PLL_PLLCON1_K1DIV_P
 696:/opt/XMClib/XMC_Peripheral_Library_v2.1.16/XMCLib/src/xmc4_scu.c ****   }
 697:/opt/XMClib/XMC_Peripheral_Library_v2.1.16/XMCLib/src/xmc4_scu.c ****   else
 698:/opt/XMClib/XMC_Peripheral_Library_v2.1.16/XMCLib/src/xmc4_scu.c ****   {
 699:/opt/XMClib/XMC_Peripheral_Library_v2.1.16/XMCLib/src/xmc4_scu.c ****     p_div  = (uint32_t)((((SCU_PLL->PLLCON1) & SCU_PLL_PLLCON1_PDIV_Msk) >> SCU_PLL_PLLCON1_PDIV_Po
 700:/opt/XMClib/XMC_Peripheral_Library_v2.1.16/XMCLib/src/xmc4_scu.c ****     n_div  = (uint32_t)((((SCU_PLL->PLLCON1) & SCU_PLL_PLLCON1_NDIV_Msk) >> SCU_PLL_PLLCON1_NDIV_Po
 701:/opt/XMClib/XMC_Peripheral_Library_v2.1.16/XMCLib/src/xmc4_scu.c ****     k2_div = (uint32_t)((((SCU_PLL->PLLCON1) & SCU_PLL_PLLCON1_K2DIV_Msk) >> SCU_PLL_PLLCON1_K2DIV_
 702:/opt/XMClib/XMC_Peripheral_Library_v2.1.16/XMCLib/src/xmc4_scu.c ****        
 703:/opt/XMClib/XMC_Peripheral_Library_v2.1.16/XMCLib/src/xmc4_scu.c ****     clock_frequency = (clock_frequency * n_div) / (p_div * k2_div);
 704:/opt/XMClib/XMC_Peripheral_Library_v2.1.16/XMCLib/src/xmc4_scu.c ****   }
 705:/opt/XMClib/XMC_Peripheral_Library_v2.1.16/XMCLib/src/xmc4_scu.c **** 
 706:/opt/XMClib/XMC_Peripheral_Library_v2.1.16/XMCLib/src/xmc4_scu.c ****   return (clock_frequency);
 707:/opt/XMClib/XMC_Peripheral_Library_v2.1.16/XMCLib/src/xmc4_scu.c **** }
 708:/opt/XMClib/XMC_Peripheral_Library_v2.1.16/XMCLib/src/xmc4_scu.c **** 
 709:/opt/XMClib/XMC_Peripheral_Library_v2.1.16/XMCLib/src/xmc4_scu.c **** /**
 710:/opt/XMClib/XMC_Peripheral_Library_v2.1.16/XMCLib/src/xmc4_scu.c ****  * API to retrieve frequency of System PLL VCO input clock
 711:/opt/XMClib/XMC_Peripheral_Library_v2.1.16/XMCLib/src/xmc4_scu.c ****  */
 712:/opt/XMClib/XMC_Peripheral_Library_v2.1.16/XMCLib/src/xmc4_scu.c **** uint32_t XMC_SCU_CLOCK_GetSystemPllClockSourceFrequency(void)
 713:/opt/XMClib/XMC_Peripheral_Library_v2.1.16/XMCLib/src/xmc4_scu.c **** {
 1284              		.loc 1 713 0
 1285              		.cfi_startproc
 1286              		@ args = 0, pretend = 0, frame = 0
 1287              		@ frame_needed = 0, uses_anonymous_args = 0
 1288 0000 08B5     		push	{r3, lr}
 1289              	.LCFI3:
 1290              		.cfi_def_cfa_offset 8
 1291              		.cfi_offset 3, -8
 1292              		.cfi_offset 14, -4
 714:/opt/XMClib/XMC_Peripheral_Library_v2.1.16/XMCLib/src/xmc4_scu.c ****   uint32_t clock_frequency;
 715:/opt/XMClib/XMC_Peripheral_Library_v2.1.16/XMCLib/src/xmc4_scu.c **** 
 716:/opt/XMClib/XMC_Peripheral_Library_v2.1.16/XMCLib/src/xmc4_scu.c ****   /* Prescalar mode - fOSC is the parent*/
 717:/opt/XMClib/XMC_Peripheral_Library_v2.1.16/XMCLib/src/xmc4_scu.c ****   if((SCU_PLL->PLLCON2 & SCU_PLL_PLLCON2_PINSEL_Msk) == (uint32_t)XMC_SCU_CLOCK_SYSPLLCLKSRC_OSCHP)
 1293              		.loc 1 717 0
 1294 0002 054B     		ldr	r3, .L129
 1295 0004 DB68     		ldr	r3, [r3, #12]
 1296 0006 13F0010F 		tst	r3, #1
 1297 000a 02D1     		bne	.L127
 718:/opt/XMClib/XMC_Peripheral_Library_v2.1.16/XMCLib/src/xmc4_scu.c ****   {
 719:/opt/XMClib/XMC_Peripheral_Library_v2.1.16/XMCLib/src/xmc4_scu.c ****     clock_frequency = OSCHP_GetFrequency();
 1298              		.loc 1 719 0
 1299 000c FFF7FEFF 		bl	OSCHP_GetFrequency
 1300              	.LVL76:
 1301              	.L125:
 720:/opt/XMClib/XMC_Peripheral_Library_v2.1.16/XMCLib/src/xmc4_scu.c ****   }
 721:/opt/XMClib/XMC_Peripheral_Library_v2.1.16/XMCLib/src/xmc4_scu.c ****   else
 722:/opt/XMClib/XMC_Peripheral_Library_v2.1.16/XMCLib/src/xmc4_scu.c ****   {
 723:/opt/XMClib/XMC_Peripheral_Library_v2.1.16/XMCLib/src/xmc4_scu.c ****     clock_frequency = OFI_FREQUENCY;
 724:/opt/XMClib/XMC_Peripheral_Library_v2.1.16/XMCLib/src/xmc4_scu.c ****   }
 725:/opt/XMClib/XMC_Peripheral_Library_v2.1.16/XMCLib/src/xmc4_scu.c ****   
 726:/opt/XMClib/XMC_Peripheral_Library_v2.1.16/XMCLib/src/xmc4_scu.c ****   return (clock_frequency);
 727:/opt/XMClib/XMC_Peripheral_Library_v2.1.16/XMCLib/src/xmc4_scu.c **** }
 1302              		.loc 1 727 0
 1303 0010 08BD     		pop	{r3, pc}
 1304              	.L127:
 723:/opt/XMClib/XMC_Peripheral_Library_v2.1.16/XMCLib/src/xmc4_scu.c ****   }
 1305              		.loc 1 723 0
 1306 0012 0248     		ldr	r0, .L129+4
 1307              	.LVL77:
 726:/opt/XMClib/XMC_Peripheral_Library_v2.1.16/XMCLib/src/xmc4_scu.c **** }
 1308              		.loc 1 726 0
 1309 0014 FCE7     		b	.L125
 1310              	.L130:
 1311 0016 00BF     		.align	2
 1312              	.L129:
 1313 0018 10470050 		.word	1342195472
 1314 001c 00366E01 		.word	24000000
 1315              		.cfi_endproc
 1316              	.LFE202:
 1318              		.section	.text.XMC_SCU_CLOCK_GetSystemPllClockFrequency,"ax",%progbits
 1319              		.align	1
 1320              		.global	XMC_SCU_CLOCK_GetSystemPllClockFrequency
 1321              		.syntax unified
 1322              		.thumb
 1323              		.thumb_func
 1324              		.fpu fpv4-sp-d16
 1326              	XMC_SCU_CLOCK_GetSystemPllClockFrequency:
 1327              	.LFB201:
 684:/opt/XMClib/XMC_Peripheral_Library_v2.1.16/XMCLib/src/xmc4_scu.c ****   uint32_t clock_frequency;
 1328              		.loc 1 684 0
 1329              		.cfi_startproc
 1330              		@ args = 0, pretend = 0, frame = 0
 1331              		@ frame_needed = 0, uses_anonymous_args = 0
 1332 0000 08B5     		push	{r3, lr}
 1333              	.LCFI4:
 1334              		.cfi_def_cfa_offset 8
 1335              		.cfi_offset 3, -8
 1336              		.cfi_offset 14, -4
 690:/opt/XMClib/XMC_Peripheral_Library_v2.1.16/XMCLib/src/xmc4_scu.c ****   if(SCU_PLL->PLLSTAT & SCU_PLL_PLLSTAT_VCOBYST_Msk)
 1337              		.loc 1 690 0
 1338 0002 FFF7FEFF 		bl	XMC_SCU_CLOCK_GetSystemPllClockSourceFrequency
 1339              	.LVL78:
 691:/opt/XMClib/XMC_Peripheral_Library_v2.1.16/XMCLib/src/xmc4_scu.c ****   {
 1340              		.loc 1 691 0
 1341 0006 0F4B     		ldr	r3, .L136
 1342 0008 1B68     		ldr	r3, [r3]
 1343 000a 13F0010F 		tst	r3, #1
 1344 000e 11D1     		bne	.L135
 699:/opt/XMClib/XMC_Peripheral_Library_v2.1.16/XMCLib/src/xmc4_scu.c ****     n_div  = (uint32_t)((((SCU_PLL->PLLCON1) & SCU_PLL_PLLCON1_NDIV_Msk) >> SCU_PLL_PLLCON1_NDIV_Po
 1345              		.loc 1 699 0
 1346 0010 0C4B     		ldr	r3, .L136
 1347 0012 9A68     		ldr	r2, [r3, #8]
 1348              	.LVL79:
 700:/opt/XMClib/XMC_Peripheral_Library_v2.1.16/XMCLib/src/xmc4_scu.c ****     k2_div = (uint32_t)((((SCU_PLL->PLLCON1) & SCU_PLL_PLLCON1_K2DIV_Msk) >> SCU_PLL_PLLCON1_K2DIV_
 1349              		.loc 1 700 0
 1350 0014 9968     		ldr	r1, [r3, #8]
 1351              	.LVL80:
 701:/opt/XMClib/XMC_Peripheral_Library_v2.1.16/XMCLib/src/xmc4_scu.c ****        
 1352              		.loc 1 701 0
 1353 0016 9B68     		ldr	r3, [r3, #8]
 1354              	.LVL81:
 700:/opt/XMClib/XMC_Peripheral_Library_v2.1.16/XMCLib/src/xmc4_scu.c ****     k2_div = (uint32_t)((((SCU_PLL->PLLCON1) & SCU_PLL_PLLCON1_K2DIV_Msk) >> SCU_PLL_PLLCON1_K2DIV_
 1355              		.loc 1 700 0
 1356 0018 C1F30621 		ubfx	r1, r1, #8, #7
 1357              	.LVL82:
 703:/opt/XMClib/XMC_Peripheral_Library_v2.1.16/XMCLib/src/xmc4_scu.c ****   }
 1358              		.loc 1 703 0
 1359 001c 01FB0000 		mla	r0, r1, r0, r0
 1360              	.LVL83:
 699:/opt/XMClib/XMC_Peripheral_Library_v2.1.16/XMCLib/src/xmc4_scu.c ****     n_div  = (uint32_t)((((SCU_PLL->PLLCON1) & SCU_PLL_PLLCON1_NDIV_Msk) >> SCU_PLL_PLLCON1_NDIV_Po
 1361              		.loc 1 699 0
 1362 0020 C2F30362 		ubfx	r2, r2, #24, #4
 1363              	.LVL84:
 701:/opt/XMClib/XMC_Peripheral_Library_v2.1.16/XMCLib/src/xmc4_scu.c ****        
 1364              		.loc 1 701 0
 1365 0024 C3F30643 		ubfx	r3, r3, #16, #7
 1366              	.LVL85:
 1367 0028 0133     		adds	r3, r3, #1
 703:/opt/XMClib/XMC_Peripheral_Library_v2.1.16/XMCLib/src/xmc4_scu.c ****   }
 1368              		.loc 1 703 0
 1369 002a 02FB0333 		mla	r3, r2, r3, r3
 1370 002e B0FBF3F0 		udiv	r0, r0, r3
 1371              	.LVL86:
 1372              	.L131:
 707:/opt/XMClib/XMC_Peripheral_Library_v2.1.16/XMCLib/src/xmc4_scu.c **** 
 1373              		.loc 1 707 0
 1374 0032 08BD     		pop	{r3, pc}
 1375              	.L135:
 695:/opt/XMClib/XMC_Peripheral_Library_v2.1.16/XMCLib/src/xmc4_scu.c ****   }
 1376              		.loc 1 695 0
 1377 0034 034B     		ldr	r3, .L136
 1378 0036 9B68     		ldr	r3, [r3, #8]
 1379 0038 03F07F03 		and	r3, r3, #127
 1380 003c 0133     		adds	r3, r3, #1
 694:/opt/XMClib/XMC_Peripheral_Library_v2.1.16/XMCLib/src/xmc4_scu.c ****                       ((((SCU_PLL->PLLCON1) & SCU_PLL_PLLCON1_K1DIV_Msk) >> SCU_PLL_PLLCON1_K1DIV_P
 1381              		.loc 1 694 0
 1382 003e B0FBF3F0 		udiv	r0, r0, r3
 1383              	.LVL87:
 1384 0042 F6E7     		b	.L131
 1385              	.L137:
 1386              		.align	2
 1387              	.L136:
 1388 0044 10470050 		.word	1342195472
 1389              		.cfi_endproc
 1390              	.LFE201:
 1392              		.section	.text.XMC_SCU_CLOCK_GetUsbPllClockFrequency,"ax",%progbits
 1393              		.align	1
 1394              		.global	XMC_SCU_CLOCK_GetUsbPllClockFrequency
 1395              		.syntax unified
 1396              		.thumb
 1397              		.thumb_func
 1398              		.fpu fpv4-sp-d16
 1400              	XMC_SCU_CLOCK_GetUsbPllClockFrequency:
 1401              	.LFB203:
 728:/opt/XMClib/XMC_Peripheral_Library_v2.1.16/XMCLib/src/xmc4_scu.c **** 
 729:/opt/XMClib/XMC_Peripheral_Library_v2.1.16/XMCLib/src/xmc4_scu.c **** /*
 730:/opt/XMClib/XMC_Peripheral_Library_v2.1.16/XMCLib/src/xmc4_scu.c ****  * API to retrieve frequency of USB PLL output clock
 731:/opt/XMClib/XMC_Peripheral_Library_v2.1.16/XMCLib/src/xmc4_scu.c ****  */
 732:/opt/XMClib/XMC_Peripheral_Library_v2.1.16/XMCLib/src/xmc4_scu.c **** uint32_t XMC_SCU_CLOCK_GetUsbPllClockFrequency(void)
 733:/opt/XMClib/XMC_Peripheral_Library_v2.1.16/XMCLib/src/xmc4_scu.c **** {
 1402              		.loc 1 733 0
 1403              		.cfi_startproc
 1404              		@ args = 0, pretend = 0, frame = 0
 1405              		@ frame_needed = 0, uses_anonymous_args = 0
 1406 0000 08B5     		push	{r3, lr}
 1407              	.LCFI5:
 1408              		.cfi_def_cfa_offset 8
 1409              		.cfi_offset 3, -8
 1410              		.cfi_offset 14, -4
 734:/opt/XMClib/XMC_Peripheral_Library_v2.1.16/XMCLib/src/xmc4_scu.c ****   uint32_t clock_frequency;
 735:/opt/XMClib/XMC_Peripheral_Library_v2.1.16/XMCLib/src/xmc4_scu.c ****   uint32_t n_div;
 736:/opt/XMClib/XMC_Peripheral_Library_v2.1.16/XMCLib/src/xmc4_scu.c ****   uint32_t p_div;
 737:/opt/XMClib/XMC_Peripheral_Library_v2.1.16/XMCLib/src/xmc4_scu.c ****   
 738:/opt/XMClib/XMC_Peripheral_Library_v2.1.16/XMCLib/src/xmc4_scu.c ****   clock_frequency = OSCHP_GetFrequency();
 1411              		.loc 1 738 0
 1412 0002 FFF7FEFF 		bl	OSCHP_GetFrequency
 1413              	.LVL88:
 739:/opt/XMClib/XMC_Peripheral_Library_v2.1.16/XMCLib/src/xmc4_scu.c ****   if((SCU_PLL->USBPLLSTAT & SCU_PLL_USBPLLSTAT_VCOBYST_Msk) == 0U)
 1414              		.loc 1 739 0
 1415 0006 094B     		ldr	r3, .L141
 1416 0008 1B69     		ldr	r3, [r3, #16]
 1417 000a 13F0010F 		tst	r3, #1
 1418 000e 0CD1     		bne	.L138
 740:/opt/XMClib/XMC_Peripheral_Library_v2.1.16/XMCLib/src/xmc4_scu.c ****   {
 741:/opt/XMClib/XMC_Peripheral_Library_v2.1.16/XMCLib/src/xmc4_scu.c ****     /* Normal mode - fVCO is the parent*/
 742:/opt/XMClib/XMC_Peripheral_Library_v2.1.16/XMCLib/src/xmc4_scu.c ****     n_div = (uint32_t)((((SCU_PLL->USBPLLCON) & SCU_PLL_USBPLLCON_NDIV_Msk) >> SCU_PLL_USBPLLCON_ND
 1419              		.loc 1 742 0
 1420 0010 064B     		ldr	r3, .L141
 1421 0012 5A69     		ldr	r2, [r3, #20]
 1422              	.LVL89:
 743:/opt/XMClib/XMC_Peripheral_Library_v2.1.16/XMCLib/src/xmc4_scu.c ****     p_div = (uint32_t)((((SCU_PLL->USBPLLCON) & SCU_PLL_USBPLLCON_PDIV_Msk) >> SCU_PLL_USBPLLCON_PD
 1423              		.loc 1 743 0
 1424 0014 5B69     		ldr	r3, [r3, #20]
 1425              	.LVL90:
 742:/opt/XMClib/XMC_Peripheral_Library_v2.1.16/XMCLib/src/xmc4_scu.c ****     p_div = (uint32_t)((((SCU_PLL->USBPLLCON) & SCU_PLL_USBPLLCON_PDIV_Msk) >> SCU_PLL_USBPLLCON_PD
 1426              		.loc 1 742 0
 1427 0016 C2F30622 		ubfx	r2, r2, #8, #7
 1428              	.LVL91:
 744:/opt/XMClib/XMC_Peripheral_Library_v2.1.16/XMCLib/src/xmc4_scu.c ****     clock_frequency = (uint32_t)((clock_frequency * n_div)/ (uint32_t)(p_div * 2UL));
 1429              		.loc 1 744 0
 1430 001a 02FB0000 		mla	r0, r2, r0, r0
 1431              	.LVL92:
 743:/opt/XMClib/XMC_Peripheral_Library_v2.1.16/XMCLib/src/xmc4_scu.c ****     p_div = (uint32_t)((((SCU_PLL->USBPLLCON) & SCU_PLL_USBPLLCON_PDIV_Msk) >> SCU_PLL_USBPLLCON_PD
 1432              		.loc 1 743 0
 1433 001e C3F30363 		ubfx	r3, r3, #24, #4
 1434              	.LVL93:
 1435 0022 0133     		adds	r3, r3, #1
 1436              		.loc 1 744 0
 1437 0024 5B00     		lsls	r3, r3, #1
 1438 0026 B0FBF3F0 		udiv	r0, r0, r3
 1439              	.LVL94:
 1440              	.L138:
 745:/opt/XMClib/XMC_Peripheral_Library_v2.1.16/XMCLib/src/xmc4_scu.c ****   }
 746:/opt/XMClib/XMC_Peripheral_Library_v2.1.16/XMCLib/src/xmc4_scu.c ****   return (clock_frequency);
 747:/opt/XMClib/XMC_Peripheral_Library_v2.1.16/XMCLib/src/xmc4_scu.c **** }
 1441              		.loc 1 747 0
 1442 002a 08BD     		pop	{r3, pc}
 1443              	.L142:
 1444              		.align	2
 1445              	.L141:
 1446 002c 10470050 		.word	1342195472
 1447              		.cfi_endproc
 1448              	.LFE203:
 1450              		.section	.text.XMC_SCU_CLOCK_GetCcuClockFrequency,"ax",%progbits
 1451              		.align	1
 1452              		.global	XMC_SCU_CLOCK_GetCcuClockFrequency
 1453              		.syntax unified
 1454              		.thumb
 1455              		.thumb_func
 1456              		.fpu fpv4-sp-d16
 1458              	XMC_SCU_CLOCK_GetCcuClockFrequency:
 1459              	.LFB204:
 748:/opt/XMClib/XMC_Peripheral_Library_v2.1.16/XMCLib/src/xmc4_scu.c **** 
 749:/opt/XMClib/XMC_Peripheral_Library_v2.1.16/XMCLib/src/xmc4_scu.c **** /*
 750:/opt/XMClib/XMC_Peripheral_Library_v2.1.16/XMCLib/src/xmc4_scu.c ****  * API to retrieve frequency of CCU clock frequency
 751:/opt/XMClib/XMC_Peripheral_Library_v2.1.16/XMCLib/src/xmc4_scu.c ****  */
 752:/opt/XMClib/XMC_Peripheral_Library_v2.1.16/XMCLib/src/xmc4_scu.c **** uint32_t XMC_SCU_CLOCK_GetCcuClockFrequency(void)
 753:/opt/XMClib/XMC_Peripheral_Library_v2.1.16/XMCLib/src/xmc4_scu.c **** {
 1460              		.loc 1 753 0
 1461              		.cfi_startproc
 1462              		@ args = 0, pretend = 0, frame = 0
 1463              		@ frame_needed = 0, uses_anonymous_args = 0
 1464              		@ link register save eliminated.
 1465              	.LVL95:
 1466              	.LBB18:
 1467              	.LBB19:
 1468              		.file 2 "/opt/XMClib/XMC_Peripheral_Library_v2.1.16/XMCLib/inc/xmc4_scu.h"
   1:/opt/XMClib/XMC_Peripheral_Library_v2.1.16/XMCLib/inc/xmc4_scu.h **** /**
   2:/opt/XMClib/XMC_Peripheral_Library_v2.1.16/XMCLib/inc/xmc4_scu.h ****  * @file xmc4_scu.h
   3:/opt/XMClib/XMC_Peripheral_Library_v2.1.16/XMCLib/inc/xmc4_scu.h ****  * @date 2016-06-15
   4:/opt/XMClib/XMC_Peripheral_Library_v2.1.16/XMCLib/inc/xmc4_scu.h ****  *
   5:/opt/XMClib/XMC_Peripheral_Library_v2.1.16/XMCLib/inc/xmc4_scu.h ****  * @cond
   6:/opt/XMClib/XMC_Peripheral_Library_v2.1.16/XMCLib/inc/xmc4_scu.h ****  **************************************************************************************************
   7:/opt/XMClib/XMC_Peripheral_Library_v2.1.16/XMCLib/inc/xmc4_scu.h ****  * XMClib v2.1.16 - XMC Peripheral Driver Library 
   8:/opt/XMClib/XMC_Peripheral_Library_v2.1.16/XMCLib/inc/xmc4_scu.h ****  *
   9:/opt/XMClib/XMC_Peripheral_Library_v2.1.16/XMCLib/inc/xmc4_scu.h ****  * Copyright (c) 2015-2017, Infineon Technologies AG
  10:/opt/XMClib/XMC_Peripheral_Library_v2.1.16/XMCLib/inc/xmc4_scu.h ****  * All rights reserved.                        
  11:/opt/XMClib/XMC_Peripheral_Library_v2.1.16/XMCLib/inc/xmc4_scu.h ****  *                                             
  12:/opt/XMClib/XMC_Peripheral_Library_v2.1.16/XMCLib/inc/xmc4_scu.h ****  * Redistribution and use in source and binary forms, with or without modification,are permitted pr
  13:/opt/XMClib/XMC_Peripheral_Library_v2.1.16/XMCLib/inc/xmc4_scu.h ****  * following conditions are met:   
  14:/opt/XMClib/XMC_Peripheral_Library_v2.1.16/XMCLib/inc/xmc4_scu.h ****  *                                                                              
  15:/opt/XMClib/XMC_Peripheral_Library_v2.1.16/XMCLib/inc/xmc4_scu.h ****  * Redistributions of source code must retain the above copyright notice, this list of conditions a
  16:/opt/XMClib/XMC_Peripheral_Library_v2.1.16/XMCLib/inc/xmc4_scu.h ****  * disclaimer.                        
  17:/opt/XMClib/XMC_Peripheral_Library_v2.1.16/XMCLib/inc/xmc4_scu.h ****  * 
  18:/opt/XMClib/XMC_Peripheral_Library_v2.1.16/XMCLib/inc/xmc4_scu.h ****  * Redistributions in binary form must reproduce the above copyright notice, this list of condition
  19:/opt/XMClib/XMC_Peripheral_Library_v2.1.16/XMCLib/inc/xmc4_scu.h ****  * disclaimer in the documentation and/or other materials provided with the distribution.          
  20:/opt/XMClib/XMC_Peripheral_Library_v2.1.16/XMCLib/inc/xmc4_scu.h ****  * 
  21:/opt/XMClib/XMC_Peripheral_Library_v2.1.16/XMCLib/inc/xmc4_scu.h ****  * Neither the name of the copyright holders nor the names of its contributors may be used to endor
  22:/opt/XMClib/XMC_Peripheral_Library_v2.1.16/XMCLib/inc/xmc4_scu.h ****  * products derived from this software without specific prior written permission.                  
  23:/opt/XMClib/XMC_Peripheral_Library_v2.1.16/XMCLib/inc/xmc4_scu.h ****  *                                                                              
  24:/opt/XMClib/XMC_Peripheral_Library_v2.1.16/XMCLib/inc/xmc4_scu.h ****  * THIS SOFTWARE IS PROVIDED BY THE COPYRIGHT HOLDERS AND CONTRIBUTORS "AS IS" AND ANY EXPRESS OR I
  25:/opt/XMClib/XMC_Peripheral_Library_v2.1.16/XMCLib/inc/xmc4_scu.h ****  * INCLUDING, BUT NOT LIMITED TO, THE IMPLIED WARRANTIES OF MERCHANTABILITY AND FITNESS FOR A PARTI
  26:/opt/XMClib/XMC_Peripheral_Library_v2.1.16/XMCLib/inc/xmc4_scu.h ****  * DISCLAIMED. IN NO EVENT SHALL THE COPYRIGHT HOLDER OR CONTRIBUTORS BE LIABLE  FOR ANY DIRECT, IN
  27:/opt/XMClib/XMC_Peripheral_Library_v2.1.16/XMCLib/inc/xmc4_scu.h ****  * SPECIAL, EXEMPLARY, OR CONSEQUENTIAL DAMAGES (INCLUDING, BUT NOT LIMITED TO, PROCUREMENT OF SUBS
  28:/opt/XMClib/XMC_Peripheral_Library_v2.1.16/XMCLib/inc/xmc4_scu.h ****  * SERVICES; LOSS OF USE, DATA, OR PROFITS; OR BUSINESS INTERRUPTION) HOWEVER CAUSED AND ON ANY THE
  29:/opt/XMClib/XMC_Peripheral_Library_v2.1.16/XMCLib/inc/xmc4_scu.h ****  * WHETHER IN CONTRACT, STRICT LIABILITY,OR TORT (INCLUDING NEGLIGENCE OR OTHERWISE) ARISING IN ANY
  30:/opt/XMClib/XMC_Peripheral_Library_v2.1.16/XMCLib/inc/xmc4_scu.h ****  * OF THIS SOFTWARE, EVEN IF ADVISED OF THE POSSIBILITY OF SUCH DAMAGE.                            
  31:/opt/XMClib/XMC_Peripheral_Library_v2.1.16/XMCLib/inc/xmc4_scu.h ****  *                                                                              
  32:/opt/XMClib/XMC_Peripheral_Library_v2.1.16/XMCLib/inc/xmc4_scu.h ****  * To improve the quality of the software, users are encouraged to share modifications, enhancement
  33:/opt/XMClib/XMC_Peripheral_Library_v2.1.16/XMCLib/inc/xmc4_scu.h ****  * Infineon Technologies AG dave@infineon.com).                                                    
  34:/opt/XMClib/XMC_Peripheral_Library_v2.1.16/XMCLib/inc/xmc4_scu.h ****  **************************************************************************************************
  35:/opt/XMClib/XMC_Peripheral_Library_v2.1.16/XMCLib/inc/xmc4_scu.h ****  *
  36:/opt/XMClib/XMC_Peripheral_Library_v2.1.16/XMCLib/inc/xmc4_scu.h ****  * Change History
  37:/opt/XMClib/XMC_Peripheral_Library_v2.1.16/XMCLib/inc/xmc4_scu.h ****  * --------------
  38:/opt/XMClib/XMC_Peripheral_Library_v2.1.16/XMCLib/inc/xmc4_scu.h ****  *
  39:/opt/XMClib/XMC_Peripheral_Library_v2.1.16/XMCLib/inc/xmc4_scu.h ****  * 2015-06-20:
  40:/opt/XMClib/XMC_Peripheral_Library_v2.1.16/XMCLib/inc/xmc4_scu.h ****  *     - Initial version
  41:/opt/XMClib/XMC_Peripheral_Library_v2.1.16/XMCLib/inc/xmc4_scu.h ****  *     - Documentation improved
  42:/opt/XMClib/XMC_Peripheral_Library_v2.1.16/XMCLib/inc/xmc4_scu.h ****  *
  43:/opt/XMClib/XMC_Peripheral_Library_v2.1.16/XMCLib/inc/xmc4_scu.h ****  * 2015-11-30:
  44:/opt/XMClib/XMC_Peripheral_Library_v2.1.16/XMCLib/inc/xmc4_scu.h ****  *     - Documentation improved
  45:/opt/XMClib/XMC_Peripheral_Library_v2.1.16/XMCLib/inc/xmc4_scu.h ****  *      
  46:/opt/XMClib/XMC_Peripheral_Library_v2.1.16/XMCLib/inc/xmc4_scu.h ****  * 2016-03-09:
  47:/opt/XMClib/XMC_Peripheral_Library_v2.1.16/XMCLib/inc/xmc4_scu.h ****  *     - Added XMC_SCU_POWER_EnableMonitor/XMC_SCU_POWER_DisableMonitor
  48:/opt/XMClib/XMC_Peripheral_Library_v2.1.16/XMCLib/inc/xmc4_scu.h ****  *             XMC_SCU_POWER_GetEVRStatus, XMC_SCU_POWER_GetEVR13Voltage, XMC_SCU_POWER_GetEVR33Vol
  49:/opt/XMClib/XMC_Peripheral_Library_v2.1.16/XMCLib/inc/xmc4_scu.h ****  *     - Added XMC_SCU_HIB_GetHibernateControlStatus,
  50:/opt/XMClib/XMC_Peripheral_Library_v2.1.16/XMCLib/inc/xmc4_scu.h ****  *             XMC_SCU_HIB_GetEventStatus, XMC_SCU_HIB_ClearEventStatus, XMC_SCU_HIB_TriggerEvent, 
  51:/opt/XMClib/XMC_Peripheral_Library_v2.1.16/XMCLib/inc/xmc4_scu.h ****  *             XMC_SCU_HIB_EnableEvent, XMC_SCU_HIB_DisableEvent
  52:/opt/XMClib/XMC_Peripheral_Library_v2.1.16/XMCLib/inc/xmc4_scu.h ****  *     - Added XMC_SCU_HIB_SetWakeupTriggerInput, XMC_SCU_HIB_SetPinMode, XMC_SCU_HIB_SetOutputPinL
  53:/opt/XMClib/XMC_Peripheral_Library_v2.1.16/XMCLib/inc/xmc4_scu.h ****  *             XMC_SCU_HIB_SetInput0, XMC_SCU_HIB_EnterHibernateState
  54:/opt/XMClib/XMC_Peripheral_Library_v2.1.16/XMCLib/inc/xmc4_scu.h ****  *
  55:/opt/XMClib/XMC_Peripheral_Library_v2.1.16/XMCLib/inc/xmc4_scu.h ****  * 2016-04-15:
  56:/opt/XMClib/XMC_Peripheral_Library_v2.1.16/XMCLib/inc/xmc4_scu.h ****  *     - Fixed naming of XMC_SCU_CLOCK_DEEPSLEEP_MODE_CONFIG peripheral clock.
  57:/opt/XMClib/XMC_Peripheral_Library_v2.1.16/XMCLib/inc/xmc4_scu.h ****  *       Added enable and disable for peripheral clocks       
  58:/opt/XMClib/XMC_Peripheral_Library_v2.1.16/XMCLib/inc/xmc4_scu.h ****  * 
  59:/opt/XMClib/XMC_Peripheral_Library_v2.1.16/XMCLib/inc/xmc4_scu.h ****  * 2016-05-19:
  60:/opt/XMClib/XMC_Peripheral_Library_v2.1.16/XMCLib/inc/xmc4_scu.h ****  *     - Added XMC_SCU_CLOCK_IsLowPowerOscillatorStable() and XMC_SCU_CLOCK_IsHighPerformanceOscill
  61:/opt/XMClib/XMC_Peripheral_Library_v2.1.16/XMCLib/inc/xmc4_scu.h ****  *     - Added XMC_SCU_POWER_WaitForInterrupt() and XMC_SCU_POWER_WaitForEvent()
  62:/opt/XMClib/XMC_Peripheral_Library_v2.1.16/XMCLib/inc/xmc4_scu.h ****  *     - Added XMC_SCU_CLOCK_EnableLowPowerOscillatorGeneralPurposeInput(), 
  63:/opt/XMClib/XMC_Peripheral_Library_v2.1.16/XMCLib/inc/xmc4_scu.h ****  *             XMC_SCU_CLOCK_DisableLowPowerOscillatorGeneralPurposeInput(),
  64:/opt/XMClib/XMC_Peripheral_Library_v2.1.16/XMCLib/inc/xmc4_scu.h ****  *             XMC_SCU_CLOCK_GetLowPowerOscillatorGeneralPurposeInputStatus()
  65:/opt/XMClib/XMC_Peripheral_Library_v2.1.16/XMCLib/inc/xmc4_scu.h ****  *     - Added XMC_SCU_CLOCK_EnableHighPerformanceOscillatorGeneralPurposeInput(), 
  66:/opt/XMClib/XMC_Peripheral_Library_v2.1.16/XMCLib/inc/xmc4_scu.h ****  *             XMC_SCU_CLOCK_DisableHighPerformanceOscillatorGeneralPurposeInput(),
  67:/opt/XMClib/XMC_Peripheral_Library_v2.1.16/XMCLib/inc/xmc4_scu.h ****  *             XMC_SCU_CLOCK_GetHighPerformanceOscillatorGeneralPurposeInputStatus()
  68:/opt/XMClib/XMC_Peripheral_Library_v2.1.16/XMCLib/inc/xmc4_scu.h ****  *     - Removed XMC_SCU_INTERRUPT_EVENT_OSCULSTAT_UPDATED, XMC_SCU_INTERRUPT_EVENT_HDSTAT_UPDATED
  69:/opt/XMClib/XMC_Peripheral_Library_v2.1.16/XMCLib/inc/xmc4_scu.h ****  *
  70:/opt/XMClib/XMC_Peripheral_Library_v2.1.16/XMCLib/inc/xmc4_scu.h ****  * 2016-06-14:
  71:/opt/XMClib/XMC_Peripheral_Library_v2.1.16/XMCLib/inc/xmc4_scu.h ****  *     - Added XMC_SCU_HIB_IsWakeupEventDetected() and XMC_SCU_HIB_ClearWakeupEventDetectionStatus(
  72:/opt/XMClib/XMC_Peripheral_Library_v2.1.16/XMCLib/inc/xmc4_scu.h ****  *
  73:/opt/XMClib/XMC_Peripheral_Library_v2.1.16/XMCLib/inc/xmc4_scu.h ****  * 2016-06-15:
  74:/opt/XMClib/XMC_Peripheral_Library_v2.1.16/XMCLib/inc/xmc4_scu.h ****  *     - Added XMC_SCU_HIB_EnterHibernateStateEx() which allows to select between external or inter
  75:/opt/XMClib/XMC_Peripheral_Library_v2.1.16/XMCLib/inc/xmc4_scu.h ****  *     - Extended wakeup hibernate events using LPAC wakeup on events. Only available in XMC44, XMC
  76:/opt/XMClib/XMC_Peripheral_Library_v2.1.16/XMCLib/inc/xmc4_scu.h ****  *     - Added LPAC APIs. Only available in XMC44, XMC42 and XMC41 series.
  77:/opt/XMClib/XMC_Peripheral_Library_v2.1.16/XMCLib/inc/xmc4_scu.h ****  *
  78:/opt/XMClib/XMC_Peripheral_Library_v2.1.16/XMCLib/inc/xmc4_scu.h ****  * @endcond 
  79:/opt/XMClib/XMC_Peripheral_Library_v2.1.16/XMCLib/inc/xmc4_scu.h ****  *
  80:/opt/XMClib/XMC_Peripheral_Library_v2.1.16/XMCLib/inc/xmc4_scu.h ****  */
  81:/opt/XMClib/XMC_Peripheral_Library_v2.1.16/XMCLib/inc/xmc4_scu.h **** 
  82:/opt/XMClib/XMC_Peripheral_Library_v2.1.16/XMCLib/inc/xmc4_scu.h **** #ifndef XMC4_SCU_H
  83:/opt/XMClib/XMC_Peripheral_Library_v2.1.16/XMCLib/inc/xmc4_scu.h **** #define XMC4_SCU_H
  84:/opt/XMClib/XMC_Peripheral_Library_v2.1.16/XMCLib/inc/xmc4_scu.h **** 
  85:/opt/XMClib/XMC_Peripheral_Library_v2.1.16/XMCLib/inc/xmc4_scu.h **** /**************************************************************************************************
  86:/opt/XMClib/XMC_Peripheral_Library_v2.1.16/XMCLib/inc/xmc4_scu.h ****  * HEADER FILES
  87:/opt/XMClib/XMC_Peripheral_Library_v2.1.16/XMCLib/inc/xmc4_scu.h ****  **************************************************************************************************
  88:/opt/XMClib/XMC_Peripheral_Library_v2.1.16/XMCLib/inc/xmc4_scu.h **** 
  89:/opt/XMClib/XMC_Peripheral_Library_v2.1.16/XMCLib/inc/xmc4_scu.h **** #include "xmc_common.h"
  90:/opt/XMClib/XMC_Peripheral_Library_v2.1.16/XMCLib/inc/xmc4_scu.h **** 
  91:/opt/XMClib/XMC_Peripheral_Library_v2.1.16/XMCLib/inc/xmc4_scu.h **** #if UC_FAMILY == XMC4
  92:/opt/XMClib/XMC_Peripheral_Library_v2.1.16/XMCLib/inc/xmc4_scu.h **** 
  93:/opt/XMClib/XMC_Peripheral_Library_v2.1.16/XMCLib/inc/xmc4_scu.h **** /**
  94:/opt/XMClib/XMC_Peripheral_Library_v2.1.16/XMCLib/inc/xmc4_scu.h ****  * @addtogroup XMClib XMC Peripheral Library
  95:/opt/XMClib/XMC_Peripheral_Library_v2.1.16/XMCLib/inc/xmc4_scu.h ****  * @{
  96:/opt/XMClib/XMC_Peripheral_Library_v2.1.16/XMCLib/inc/xmc4_scu.h ****  */
  97:/opt/XMClib/XMC_Peripheral_Library_v2.1.16/XMCLib/inc/xmc4_scu.h ****  
  98:/opt/XMClib/XMC_Peripheral_Library_v2.1.16/XMCLib/inc/xmc4_scu.h **** /**
  99:/opt/XMClib/XMC_Peripheral_Library_v2.1.16/XMCLib/inc/xmc4_scu.h ****  * @addtogroup SCU
 100:/opt/XMClib/XMC_Peripheral_Library_v2.1.16/XMCLib/inc/xmc4_scu.h ****  * @{
 101:/opt/XMClib/XMC_Peripheral_Library_v2.1.16/XMCLib/inc/xmc4_scu.h ****  */
 102:/opt/XMClib/XMC_Peripheral_Library_v2.1.16/XMCLib/inc/xmc4_scu.h **** 
 103:/opt/XMClib/XMC_Peripheral_Library_v2.1.16/XMCLib/inc/xmc4_scu.h **** /**************************************************************************************************
 104:/opt/XMClib/XMC_Peripheral_Library_v2.1.16/XMCLib/inc/xmc4_scu.h ****  * MACROS
 105:/opt/XMClib/XMC_Peripheral_Library_v2.1.16/XMCLib/inc/xmc4_scu.h ****  **************************************************************************************************
 106:/opt/XMClib/XMC_Peripheral_Library_v2.1.16/XMCLib/inc/xmc4_scu.h **** #define PLL_PDIV_XTAL_8MHZ (1U)  /* PDIV value for main PLL settings, fPLL = 120MHz with fOSC = 8MH
 107:/opt/XMClib/XMC_Peripheral_Library_v2.1.16/XMCLib/inc/xmc4_scu.h **** #define PLL_NDIV_XTAL_8MHZ (89U)  /* NDIV value for main PLL settings, fPLL = 120MHz with fOSC = 8M
 108:/opt/XMClib/XMC_Peripheral_Library_v2.1.16/XMCLib/inc/xmc4_scu.h **** #define PLL_K2DIV_XTAL_8MHZ (2U)  /* K2DIV value for main PLL settings, fPLL = 120MHz with fOSC = 8
 109:/opt/XMClib/XMC_Peripheral_Library_v2.1.16/XMCLib/inc/xmc4_scu.h **** 
 110:/opt/XMClib/XMC_Peripheral_Library_v2.1.16/XMCLib/inc/xmc4_scu.h **** #define PLL_PDIV_XTAL_12MHZ (1U)  /* PDIV value for main PLL settings, fPLL = 120MHz with fOSC = 12
 111:/opt/XMClib/XMC_Peripheral_Library_v2.1.16/XMCLib/inc/xmc4_scu.h **** #define PLL_NDIV_XTAL_12MHZ (79U)  /* NDIV value for main PLL settings, fPLL = 120MHz with fOSC = 1
 112:/opt/XMClib/XMC_Peripheral_Library_v2.1.16/XMCLib/inc/xmc4_scu.h **** #define PLL_K2DIV_XTAL_12MHZ (3U)  /* K2DIV value for main PLL settings, fPLL = 120MHz with fOSC = 
 113:/opt/XMClib/XMC_Peripheral_Library_v2.1.16/XMCLib/inc/xmc4_scu.h **** 
 114:/opt/XMClib/XMC_Peripheral_Library_v2.1.16/XMCLib/inc/xmc4_scu.h **** #define PLL_PDIV_XTAL_16MHZ (1U)  /* PDIV value for main PLL settings, fPLL = 120MHz with fOSC = 16
 115:/opt/XMClib/XMC_Peripheral_Library_v2.1.16/XMCLib/inc/xmc4_scu.h **** #define PLL_NDIV_XTAL_16MHZ (59U)  /* NDIV value for main PLL settings, fPLL = 120MHz with fOSC = 1
 116:/opt/XMClib/XMC_Peripheral_Library_v2.1.16/XMCLib/inc/xmc4_scu.h **** #define PLL_K2DIV_XTAL_16MHZ (3U)  /* K2DIV value for main PLL settings, fPLL = 120MHz with fOSC = 
 117:/opt/XMClib/XMC_Peripheral_Library_v2.1.16/XMCLib/inc/xmc4_scu.h **** 
 118:/opt/XMClib/XMC_Peripheral_Library_v2.1.16/XMCLib/inc/xmc4_scu.h **** #define XMC_SCU_INTERRUPT_EVENT_WDT_WARN           SCU_INTERRUPT_SRSTAT_PRWARN_Msk /**< Watchdog pr
 119:/opt/XMClib/XMC_Peripheral_Library_v2.1.16/XMCLib/inc/xmc4_scu.h **** #define XMC_SCU_INTERRUPT_EVENT_RTC_PERIODIC       SCU_INTERRUPT_SRSTAT_PI_Msk     /**< RTC periodi
 120:/opt/XMClib/XMC_Peripheral_Library_v2.1.16/XMCLib/inc/xmc4_scu.h **** #define XMC_SCU_INTERRUPT_EVENT_RTC_ALARM          SCU_INTERRUPT_SRSTAT_AI_Msk     /**< RTC alarm e
 121:/opt/XMClib/XMC_Peripheral_Library_v2.1.16/XMCLib/inc/xmc4_scu.h **** #define XMC_SCU_INTERRUPT_EVENT_DLR_OVERRUN        SCU_INTERRUPT_SRSTAT_DLROVR_Msk /**< DLR overrun
 122:/opt/XMClib/XMC_Peripheral_Library_v2.1.16/XMCLib/inc/xmc4_scu.h **** #if defined(SCU_INTERRUPT_SRSTAT_LPACCR_Msk)
 123:/opt/XMClib/XMC_Peripheral_Library_v2.1.16/XMCLib/inc/xmc4_scu.h **** #define XMC_SCU_INTERRUPT_EVENT_LPACCR_UPDATED     SCU_INTERRUPT_SRSTAT_LPACCR_Msk /**< LPAC Contro
 124:/opt/XMClib/XMC_Peripheral_Library_v2.1.16/XMCLib/inc/xmc4_scu.h **** #endif
 125:/opt/XMClib/XMC_Peripheral_Library_v2.1.16/XMCLib/inc/xmc4_scu.h **** #if defined(SCU_INTERRUPT_SRSTAT_LPACTH0_Msk)
 126:/opt/XMClib/XMC_Peripheral_Library_v2.1.16/XMCLib/inc/xmc4_scu.h **** #define XMC_SCU_INTERRUPT_EVENT_LPACTH0_UPDATED    SCU_INTERRUPT_SRSTAT_LPACTH0_Msk /**< LPAC Thres
 127:/opt/XMClib/XMC_Peripheral_Library_v2.1.16/XMCLib/inc/xmc4_scu.h **** #endif
 128:/opt/XMClib/XMC_Peripheral_Library_v2.1.16/XMCLib/inc/xmc4_scu.h **** #if defined(SCU_INTERRUPT_SRSTAT_LPACTH1_Msk)
 129:/opt/XMClib/XMC_Peripheral_Library_v2.1.16/XMCLib/inc/xmc4_scu.h **** #define XMC_SCU_INTERRUPT_EVENT_LPACTH1_UPDATED    SCU_INTERRUPT_SRSTAT_LPACTH1_Msk  /**< LPAC Thre
 130:/opt/XMClib/XMC_Peripheral_Library_v2.1.16/XMCLib/inc/xmc4_scu.h **** #endif
 131:/opt/XMClib/XMC_Peripheral_Library_v2.1.16/XMCLib/inc/xmc4_scu.h **** #if defined(SCU_INTERRUPT_SRSTAT_LPACST_Msk)
 132:/opt/XMClib/XMC_Peripheral_Library_v2.1.16/XMCLib/inc/xmc4_scu.h **** #define XMC_SCU_INTERRUPT_EVENT_LPACST_UPDATED     SCU_INTERRUPT_SRSTAT_LPACST_Msk  /**< LPAC Statu
 133:/opt/XMClib/XMC_Peripheral_Library_v2.1.16/XMCLib/inc/xmc4_scu.h **** #endif
 134:/opt/XMClib/XMC_Peripheral_Library_v2.1.16/XMCLib/inc/xmc4_scu.h **** #if defined(SCU_INTERRUPT_SRSTAT_LPACCLR_Msk)
 135:/opt/XMClib/XMC_Peripheral_Library_v2.1.16/XMCLib/inc/xmc4_scu.h **** #define XMC_SCU_INTERRUPT_EVENT_LPACCLR_UPDATED    SCU_INTERRUPT_SRSTAT_LPACCLR_Msk /**< LPAC event
 136:/opt/XMClib/XMC_Peripheral_Library_v2.1.16/XMCLib/inc/xmc4_scu.h **** #endif
 137:/opt/XMClib/XMC_Peripheral_Library_v2.1.16/XMCLib/inc/xmc4_scu.h **** #if defined(SCU_INTERRUPT_SRSTAT_LPACSET_Msk)
 138:/opt/XMClib/XMC_Peripheral_Library_v2.1.16/XMCLib/inc/xmc4_scu.h **** #define XMC_SCU_INTERRUPT_EVENT_LPACSET_UPDATED    SCU_INTERRUPT_SRSTAT_LPACSET_Msk /**< LPAC event
 139:/opt/XMClib/XMC_Peripheral_Library_v2.1.16/XMCLib/inc/xmc4_scu.h **** #endif
 140:/opt/XMClib/XMC_Peripheral_Library_v2.1.16/XMCLib/inc/xmc4_scu.h **** #if defined(SCU_INTERRUPT_SRSTAT_HINTST_Msk)
 141:/opt/XMClib/XMC_Peripheral_Library_v2.1.16/XMCLib/inc/xmc4_scu.h **** #define XMC_SCU_INTERRUPT_EVENT_HINTST_UPDATED     SCU_INTERRUPT_SRSTAT_HINTST_Msk /**< HIB HINTST 
 142:/opt/XMClib/XMC_Peripheral_Library_v2.1.16/XMCLib/inc/xmc4_scu.h **** #endif
 143:/opt/XMClib/XMC_Peripheral_Library_v2.1.16/XMCLib/inc/xmc4_scu.h **** #if defined(SCU_INTERRUPT_SRSTAT_HINTCLR_Msk)
 144:/opt/XMClib/XMC_Peripheral_Library_v2.1.16/XMCLib/inc/xmc4_scu.h **** #define XMC_SCU_INTERRUPT_EVENT_HINTCLR_UPDATED    SCU_INTERRUPT_SRSTAT_HINTCLR_Msk /**< HIB HINTCL
 145:/opt/XMClib/XMC_Peripheral_Library_v2.1.16/XMCLib/inc/xmc4_scu.h **** #endif
 146:/opt/XMClib/XMC_Peripheral_Library_v2.1.16/XMCLib/inc/xmc4_scu.h **** #if defined(SCU_INTERRUPT_SRSTAT_HINTSET_Msk)
 147:/opt/XMClib/XMC_Peripheral_Library_v2.1.16/XMCLib/inc/xmc4_scu.h **** #define XMC_SCU_INTERRUPT_EVENT_HINTSET_UPDATED    SCU_INTERRUPT_SRSTAT_HINTSET_Msk /**< HIB HINTSE
 148:/opt/XMClib/XMC_Peripheral_Library_v2.1.16/XMCLib/inc/xmc4_scu.h **** #endif
 149:/opt/XMClib/XMC_Peripheral_Library_v2.1.16/XMCLib/inc/xmc4_scu.h **** #define XMC_SCU_INTERRUPT_EVENT_HDCLR_UPDATED      SCU_INTERRUPT_SRSTAT_HDCLR_Msk /**< HIB HDCLR re
 150:/opt/XMClib/XMC_Peripheral_Library_v2.1.16/XMCLib/inc/xmc4_scu.h **** #define XMC_SCU_INTERRUPT_EVENT_HDSET_UPDATED      SCU_INTERRUPT_SRSTAT_HDSET_Msk /**< HIB HDSET re
 151:/opt/XMClib/XMC_Peripheral_Library_v2.1.16/XMCLib/inc/xmc4_scu.h **** #define XMC_SCU_INTERRUPT_EVENT_HDCR_UPDATED       SCU_INTERRUPT_SRSTAT_HDCR_Msk /**< HIB HDCR regi
 152:/opt/XMClib/XMC_Peripheral_Library_v2.1.16/XMCLib/inc/xmc4_scu.h **** #define XMC_SCU_INTERRUPT_EVENT_OSCSICTRL_UPDATED  SCU_INTERRUPT_SRSTAT_OSCSICTRL_Msk /**< HIB OSCS
 153:/opt/XMClib/XMC_Peripheral_Library_v2.1.16/XMCLib/inc/xmc4_scu.h **** #define XMC_SCU_INTERRUPT_EVENT_OSCULCTRL_UPDATED  SCU_INTERRUPT_SRSTAT_OSCULCTRL_Msk /**< HIB OSCU
 154:/opt/XMClib/XMC_Peripheral_Library_v2.1.16/XMCLib/inc/xmc4_scu.h **** #define XMC_SCU_INTERRUPT_EVENT_RTCCTR_UPDATED     SCU_INTERRUPT_SRSTAT_RTC_CTR_Msk /**< HIB RTCCTR
 155:/opt/XMClib/XMC_Peripheral_Library_v2.1.16/XMCLib/inc/xmc4_scu.h **** #define XMC_SCU_INTERRUPT_EVENT_RTCATIM0_UPDATED   SCU_INTERRUPT_SRSTAT_RTC_ATIM0_Msk /**< HIB RTCA
 156:/opt/XMClib/XMC_Peripheral_Library_v2.1.16/XMCLib/inc/xmc4_scu.h **** #define XMC_SCU_INTERRUPT_EVENT_RTCATIM1_UPDATED   SCU_INTERRUPT_SRSTAT_RTC_ATIM1_Msk /**< HIB RTCA
 157:/opt/XMClib/XMC_Peripheral_Library_v2.1.16/XMCLib/inc/xmc4_scu.h **** #define XMC_SCU_INTERRUPT_EVENT_RTCTIM0_UPDATED    SCU_INTERRUPT_SRSTAT_RTC_TIM0_Msk /**< HIB TIM0 
 158:/opt/XMClib/XMC_Peripheral_Library_v2.1.16/XMCLib/inc/xmc4_scu.h **** #define XMC_SCU_INTERRUPT_EVENT_RTCTIM1_UPDATED    SCU_INTERRUPT_SRSTAT_RTC_TIM1_Msk /**< HIB TIM1 
 159:/opt/XMClib/XMC_Peripheral_Library_v2.1.16/XMCLib/inc/xmc4_scu.h **** #define XMC_SCU_INTERRUPT_EVENT_RMX_UPDATED        SCU_INTERRUPT_SRSTAT_RMX_Msk /**< HIB RMX regist
 160:/opt/XMClib/XMC_Peripheral_Library_v2.1.16/XMCLib/inc/xmc4_scu.h **** 
 161:/opt/XMClib/XMC_Peripheral_Library_v2.1.16/XMCLib/inc/xmc4_scu.h **** /**************************************************************************************************
 162:/opt/XMClib/XMC_Peripheral_Library_v2.1.16/XMCLib/inc/xmc4_scu.h ****  * ENUMS
 163:/opt/XMClib/XMC_Peripheral_Library_v2.1.16/XMCLib/inc/xmc4_scu.h ****  **************************************************************************************************
 164:/opt/XMClib/XMC_Peripheral_Library_v2.1.16/XMCLib/inc/xmc4_scu.h **** /**
 165:/opt/XMClib/XMC_Peripheral_Library_v2.1.16/XMCLib/inc/xmc4_scu.h ****  *  Defines Capture/Compare unit timer slice trigger, that enables synchronous start function avail
 166:/opt/XMClib/XMC_Peripheral_Library_v2.1.16/XMCLib/inc/xmc4_scu.h ****  *  CCUCON register. Use type \a XMC_SCU_CCU_TRIGGER_t for accessing these enum parameters.
 167:/opt/XMClib/XMC_Peripheral_Library_v2.1.16/XMCLib/inc/xmc4_scu.h ****  */
 168:/opt/XMClib/XMC_Peripheral_Library_v2.1.16/XMCLib/inc/xmc4_scu.h **** typedef enum XMC_SCU_CCU_TRIGGER
 169:/opt/XMClib/XMC_Peripheral_Library_v2.1.16/XMCLib/inc/xmc4_scu.h **** {
 170:/opt/XMClib/XMC_Peripheral_Library_v2.1.16/XMCLib/inc/xmc4_scu.h **** #if defined(CCU40)
 171:/opt/XMClib/XMC_Peripheral_Library_v2.1.16/XMCLib/inc/xmc4_scu.h ****   XMC_SCU_CCU_TRIGGER_CCU40 = SCU_GENERAL_CCUCON_GSC40_Msk, /**< Trigger mask used for Global Start
 172:/opt/XMClib/XMC_Peripheral_Library_v2.1.16/XMCLib/inc/xmc4_scu.h ****                                                                  CCU40 peripheral. */
 173:/opt/XMClib/XMC_Peripheral_Library_v2.1.16/XMCLib/inc/xmc4_scu.h **** #endif
 174:/opt/XMClib/XMC_Peripheral_Library_v2.1.16/XMCLib/inc/xmc4_scu.h **** #if defined(CCU41)
 175:/opt/XMClib/XMC_Peripheral_Library_v2.1.16/XMCLib/inc/xmc4_scu.h ****   XMC_SCU_CCU_TRIGGER_CCU41 = SCU_GENERAL_CCUCON_GSC41_Msk, /**< Trigger mask used for Global Start
 176:/opt/XMClib/XMC_Peripheral_Library_v2.1.16/XMCLib/inc/xmc4_scu.h ****                                                                  CCU41 peripheral. */
 177:/opt/XMClib/XMC_Peripheral_Library_v2.1.16/XMCLib/inc/xmc4_scu.h **** #endif
 178:/opt/XMClib/XMC_Peripheral_Library_v2.1.16/XMCLib/inc/xmc4_scu.h **** #if defined(CCU42)
 179:/opt/XMClib/XMC_Peripheral_Library_v2.1.16/XMCLib/inc/xmc4_scu.h ****   XMC_SCU_CCU_TRIGGER_CCU42 = SCU_GENERAL_CCUCON_GSC42_Msk, /**< Trigger mask used for Global Start
 180:/opt/XMClib/XMC_Peripheral_Library_v2.1.16/XMCLib/inc/xmc4_scu.h ****                                                                  CCU42 peripheral. */
 181:/opt/XMClib/XMC_Peripheral_Library_v2.1.16/XMCLib/inc/xmc4_scu.h **** #endif
 182:/opt/XMClib/XMC_Peripheral_Library_v2.1.16/XMCLib/inc/xmc4_scu.h **** #if defined(CCU43)
 183:/opt/XMClib/XMC_Peripheral_Library_v2.1.16/XMCLib/inc/xmc4_scu.h ****   XMC_SCU_CCU_TRIGGER_CCU43 = SCU_GENERAL_CCUCON_GSC43_Msk, /**< Trigger mask used for Global Start
 184:/opt/XMClib/XMC_Peripheral_Library_v2.1.16/XMCLib/inc/xmc4_scu.h ****                                                                  CCU43 peripheral. */
 185:/opt/XMClib/XMC_Peripheral_Library_v2.1.16/XMCLib/inc/xmc4_scu.h **** #endif
 186:/opt/XMClib/XMC_Peripheral_Library_v2.1.16/XMCLib/inc/xmc4_scu.h **** #if defined(CCU80)
 187:/opt/XMClib/XMC_Peripheral_Library_v2.1.16/XMCLib/inc/xmc4_scu.h ****   XMC_SCU_CCU_TRIGGER_CCU80 = SCU_GENERAL_CCUCON_GSC80_Msk, /**< Trigger mask used for Global Start
 188:/opt/XMClib/XMC_Peripheral_Library_v2.1.16/XMCLib/inc/xmc4_scu.h ****                                                                  CCU80 peripheral. */
 189:/opt/XMClib/XMC_Peripheral_Library_v2.1.16/XMCLib/inc/xmc4_scu.h **** #endif
 190:/opt/XMClib/XMC_Peripheral_Library_v2.1.16/XMCLib/inc/xmc4_scu.h **** #if defined(CCU81)
 191:/opt/XMClib/XMC_Peripheral_Library_v2.1.16/XMCLib/inc/xmc4_scu.h ****   XMC_SCU_CCU_TRIGGER_CCU81 = SCU_GENERAL_CCUCON_GSC81_Msk /**< Trigger mask used for Global Start 
 192:/opt/XMClib/XMC_Peripheral_Library_v2.1.16/XMCLib/inc/xmc4_scu.h ****                                                                  CCU81 peripheral. */
 193:/opt/XMClib/XMC_Peripheral_Library_v2.1.16/XMCLib/inc/xmc4_scu.h **** #endif
 194:/opt/XMClib/XMC_Peripheral_Library_v2.1.16/XMCLib/inc/xmc4_scu.h **** } XMC_SCU_CCU_TRIGGER_t;
 195:/opt/XMClib/XMC_Peripheral_Library_v2.1.16/XMCLib/inc/xmc4_scu.h **** 
 196:/opt/XMClib/XMC_Peripheral_Library_v2.1.16/XMCLib/inc/xmc4_scu.h **** /**
 197:/opt/XMClib/XMC_Peripheral_Library_v2.1.16/XMCLib/inc/xmc4_scu.h ****  *  Defines enumerations representing the status of trap cause. The cause of the trap gets automati
 198:/opt/XMClib/XMC_Peripheral_Library_v2.1.16/XMCLib/inc/xmc4_scu.h ****  *  the \a TRAPSTAT register and can be checked by user software to determine the state of the syst
 199:/opt/XMClib/XMC_Peripheral_Library_v2.1.16/XMCLib/inc/xmc4_scu.h ****  *  purpose. 
 200:/opt/XMClib/XMC_Peripheral_Library_v2.1.16/XMCLib/inc/xmc4_scu.h ****  *  Use type \a XMC_SCU_TRAP_t for accessing these enum parameters.
 201:/opt/XMClib/XMC_Peripheral_Library_v2.1.16/XMCLib/inc/xmc4_scu.h ****  */
 202:/opt/XMClib/XMC_Peripheral_Library_v2.1.16/XMCLib/inc/xmc4_scu.h **** typedef enum XMC_SCU_TRAP 
 203:/opt/XMClib/XMC_Peripheral_Library_v2.1.16/XMCLib/inc/xmc4_scu.h **** {
 204:/opt/XMClib/XMC_Peripheral_Library_v2.1.16/XMCLib/inc/xmc4_scu.h ****   XMC_SCU_TRAP_OSC_WDG      = SCU_TRAP_TRAPSTAT_SOSCWDGT_Msk, /**< OSC_HP Oscillator Watchdog trap.
 205:/opt/XMClib/XMC_Peripheral_Library_v2.1.16/XMCLib/inc/xmc4_scu.h ****   XMC_SCU_TRAP_VCO_LOCK     = SCU_TRAP_TRAPSTAT_SVCOLCKT_Msk, /**< PLL loss of lock trap. */
 206:/opt/XMClib/XMC_Peripheral_Library_v2.1.16/XMCLib/inc/xmc4_scu.h ****   XMC_SCU_TRAP_USB_VCO_LOCK = SCU_TRAP_TRAPSTAT_UVCOLCKT_Msk, /**< USB PLL loss of lock trap. */ 
 207:/opt/XMClib/XMC_Peripheral_Library_v2.1.16/XMCLib/inc/xmc4_scu.h ****   XMC_SCU_TRAP_PARITY_ERROR = SCU_TRAP_TRAPSTAT_PET_Msk,      /**< Memory Parity error trap. */  
 208:/opt/XMClib/XMC_Peripheral_Library_v2.1.16/XMCLib/inc/xmc4_scu.h ****   XMC_SCU_TRAP_BROWNOUT     = SCU_TRAP_TRAPSTAT_BRWNT_Msk,    /**< Brownout trap. */ 
 209:/opt/XMClib/XMC_Peripheral_Library_v2.1.16/XMCLib/inc/xmc4_scu.h ****   XMC_SCU_TRAP_ULP_WDG      = SCU_TRAP_TRAPSTAT_ULPWDGT_Msk,  /**< Unstable 32KHz clock trap. */ 
 210:/opt/XMClib/XMC_Peripheral_Library_v2.1.16/XMCLib/inc/xmc4_scu.h ****   XMC_SCU_TRAP_PER_BRIDGE0  = SCU_TRAP_TRAPSTAT_BWERR0T_Msk,  /**< Bad memory access of peripherals
 211:/opt/XMClib/XMC_Peripheral_Library_v2.1.16/XMCLib/inc/xmc4_scu.h ****   XMC_SCU_TRAP_PER_BRIDGE1  = SCU_TRAP_TRAPSTAT_BWERR1T_Msk,  /**< Bad memory access of peripherals
 212:/opt/XMClib/XMC_Peripheral_Library_v2.1.16/XMCLib/inc/xmc4_scu.h **** #if defined(SCU_TRAP_TRAPSTAT_TEMPHIT_Msk)
 213:/opt/XMClib/XMC_Peripheral_Library_v2.1.16/XMCLib/inc/xmc4_scu.h ****   XMC_SCU_TRAP_DIETEMP_HIGH = SCU_TRAP_TRAPSTAT_TEMPHIT_Msk,  /**< Die temperature higher than expe
 214:/opt/XMClib/XMC_Peripheral_Library_v2.1.16/XMCLib/inc/xmc4_scu.h **** #endif
 215:/opt/XMClib/XMC_Peripheral_Library_v2.1.16/XMCLib/inc/xmc4_scu.h **** #if defined(SCU_TRAP_TRAPSTAT_TEMPLOT_Msk)
 216:/opt/XMClib/XMC_Peripheral_Library_v2.1.16/XMCLib/inc/xmc4_scu.h ****   XMC_SCU_TRAP_DIETEMP_LOW  = SCU_TRAP_TRAPSTAT_TEMPLOT_Msk,  /**< Die temperature lower than expec
 217:/opt/XMClib/XMC_Peripheral_Library_v2.1.16/XMCLib/inc/xmc4_scu.h **** #endif
 218:/opt/XMClib/XMC_Peripheral_Library_v2.1.16/XMCLib/inc/xmc4_scu.h **** #if defined(ECAT0)
 219:/opt/XMClib/XMC_Peripheral_Library_v2.1.16/XMCLib/inc/xmc4_scu.h ****   XMC_SCU_TRAP_ECAT_RESET = SCU_TRAP_TRAPSTAT_ECAT0RST_Msk, /**< EtherCat Reset */ 
 220:/opt/XMClib/XMC_Peripheral_Library_v2.1.16/XMCLib/inc/xmc4_scu.h **** #endif
 221:/opt/XMClib/XMC_Peripheral_Library_v2.1.16/XMCLib/inc/xmc4_scu.h **** } XMC_SCU_TRAP_t;
 222:/opt/XMClib/XMC_Peripheral_Library_v2.1.16/XMCLib/inc/xmc4_scu.h **** 
 223:/opt/XMClib/XMC_Peripheral_Library_v2.1.16/XMCLib/inc/xmc4_scu.h **** /**
 224:/opt/XMClib/XMC_Peripheral_Library_v2.1.16/XMCLib/inc/xmc4_scu.h ****  *  Defines enumerations for different parity event generating modules that in turn generate a trap
 225:/opt/XMClib/XMC_Peripheral_Library_v2.1.16/XMCLib/inc/xmc4_scu.h ****  *  Parity can be enabled with \a PETE register in order to get the trap flag reflected in \a TRAPR
 226:/opt/XMClib/XMC_Peripheral_Library_v2.1.16/XMCLib/inc/xmc4_scu.h ****  *  configure parity error trap generation mechanism bits of \a PETE register.
 227:/opt/XMClib/XMC_Peripheral_Library_v2.1.16/XMCLib/inc/xmc4_scu.h ****  *  All the enum items are tabulated as per bits present in \a PETE register.
 228:/opt/XMClib/XMC_Peripheral_Library_v2.1.16/XMCLib/inc/xmc4_scu.h ****  *  Use type \a XMC_SCU_PARITY_t for accessing these enum parameters.
 229:/opt/XMClib/XMC_Peripheral_Library_v2.1.16/XMCLib/inc/xmc4_scu.h ****  */
 230:/opt/XMClib/XMC_Peripheral_Library_v2.1.16/XMCLib/inc/xmc4_scu.h **** typedef enum XMC_SCU_PARITY
 231:/opt/XMClib/XMC_Peripheral_Library_v2.1.16/XMCLib/inc/xmc4_scu.h **** {
 232:/opt/XMClib/XMC_Peripheral_Library_v2.1.16/XMCLib/inc/xmc4_scu.h ****   XMC_SCU_PARITY_PSRAM_MEM  = SCU_PARITY_PEEN_PEENPS_Msk,   /**< Program SRAM parity error trap. */
 233:/opt/XMClib/XMC_Peripheral_Library_v2.1.16/XMCLib/inc/xmc4_scu.h ****   XMC_SCU_PARITY_DSRAM1_MEM = SCU_PARITY_PEEN_PEENDS1_Msk,  /**< Data SRAM-1 parity error trap. */ 
 234:/opt/XMClib/XMC_Peripheral_Library_v2.1.16/XMCLib/inc/xmc4_scu.h **** #if defined(XMC_SCU_PARITY_DSRAM2_MEM)
 235:/opt/XMClib/XMC_Peripheral_Library_v2.1.16/XMCLib/inc/xmc4_scu.h ****   XMC_SCU_PARITY_DSRAM2_MEM = SCU_PARITY_PEEN_PEENDS2_Msk,  /**< Data SRAM-2 parity error trap. */ 
 236:/opt/XMClib/XMC_Peripheral_Library_v2.1.16/XMCLib/inc/xmc4_scu.h **** #endif
 237:/opt/XMClib/XMC_Peripheral_Library_v2.1.16/XMCLib/inc/xmc4_scu.h ****   XMC_SCU_PARITY_USIC0_MEM  = SCU_PARITY_PEEN_PEENU0_Msk,   /**< USIC0 memory parity error trap. */
 238:/opt/XMClib/XMC_Peripheral_Library_v2.1.16/XMCLib/inc/xmc4_scu.h **** #if defined(XMC_SCU_PARITY_USIC1_MEM)
 239:/opt/XMClib/XMC_Peripheral_Library_v2.1.16/XMCLib/inc/xmc4_scu.h ****   XMC_SCU_PARITY_USIC1_MEM  = SCU_PARITY_PEEN_PEENU1_Msk,   /**< USIC1 memory parity error trap. */
 240:/opt/XMClib/XMC_Peripheral_Library_v2.1.16/XMCLib/inc/xmc4_scu.h **** #endif
 241:/opt/XMClib/XMC_Peripheral_Library_v2.1.16/XMCLib/inc/xmc4_scu.h **** #if defined(XMC_SCU_PARITY_USIC2_MEM)
 242:/opt/XMClib/XMC_Peripheral_Library_v2.1.16/XMCLib/inc/xmc4_scu.h ****   XMC_SCU_PARITY_USIC2_MEM  = SCU_PARITY_PEEN_PEENU2_Msk,   /**< USIC2 memory parity error trap. */
 243:/opt/XMClib/XMC_Peripheral_Library_v2.1.16/XMCLib/inc/xmc4_scu.h **** #endif
 244:/opt/XMClib/XMC_Peripheral_Library_v2.1.16/XMCLib/inc/xmc4_scu.h ****   XMC_SCU_PARITY_MCAN_MEM   = SCU_PARITY_PEEN_PEENMC_Msk,   /**< CAN memory parity error trap. */
 245:/opt/XMClib/XMC_Peripheral_Library_v2.1.16/XMCLib/inc/xmc4_scu.h ****   XMC_SCU_PARITY_PMU_MEM    = SCU_PARITY_PEEN_PEENPPRF_Msk, /**< PMU Prefetch memory parity error t
 246:/opt/XMClib/XMC_Peripheral_Library_v2.1.16/XMCLib/inc/xmc4_scu.h ****   XMC_SCU_PARITY_USB_MEM    = SCU_PARITY_PEEN_PEENUSB_Msk,  /**< USB memory parity error trap. */ 
 247:/opt/XMClib/XMC_Peripheral_Library_v2.1.16/XMCLib/inc/xmc4_scu.h **** #if defined(SCU_PARITY_PEEN_PEENETH0TX_Msk)
 248:/opt/XMClib/XMC_Peripheral_Library_v2.1.16/XMCLib/inc/xmc4_scu.h ****   XMC_SCU_PARITY_ETH_TXMEM  = SCU_PARITY_PEEN_PEENETH0TX_Msk, /**< Ethernet transmit memory parity 
 249:/opt/XMClib/XMC_Peripheral_Library_v2.1.16/XMCLib/inc/xmc4_scu.h **** #endif
 250:/opt/XMClib/XMC_Peripheral_Library_v2.1.16/XMCLib/inc/xmc4_scu.h **** #if defined(SCU_PARITY_PEEN_PEENETH0RX_Msk)
 251:/opt/XMClib/XMC_Peripheral_Library_v2.1.16/XMCLib/inc/xmc4_scu.h ****   XMC_SCU_PARITY_ETH_RXMEM  = SCU_PARITY_PEEN_PEENETH0RX_Msk, /**< Ethernet receive memory parity e
 252:/opt/XMClib/XMC_Peripheral_Library_v2.1.16/XMCLib/inc/xmc4_scu.h **** #endif
 253:/opt/XMClib/XMC_Peripheral_Library_v2.1.16/XMCLib/inc/xmc4_scu.h **** #if defined(SCU_PARITY_PEEN_PEENSD0_Msk)
 254:/opt/XMClib/XMC_Peripheral_Library_v2.1.16/XMCLib/inc/xmc4_scu.h ****   XMC_SCU_PARITY_SDMMC_MEM0 = SCU_PARITY_PEEN_PEENSD0_Msk, /**< SDMMC Memory-0 parity error trap. *
 255:/opt/XMClib/XMC_Peripheral_Library_v2.1.16/XMCLib/inc/xmc4_scu.h **** #endif
 256:/opt/XMClib/XMC_Peripheral_Library_v2.1.16/XMCLib/inc/xmc4_scu.h **** #if defined(SCU_PARITY_PEEN_PEENSD1_Msk)
 257:/opt/XMClib/XMC_Peripheral_Library_v2.1.16/XMCLib/inc/xmc4_scu.h ****   XMC_SCU_PARITY_SDMMC_MEM1 = SCU_PARITY_PEEN_PEENSD1_Msk, /**< SDMMC Memory-1 parity error trap. *
 258:/opt/XMClib/XMC_Peripheral_Library_v2.1.16/XMCLib/inc/xmc4_scu.h **** #endif
 259:/opt/XMClib/XMC_Peripheral_Library_v2.1.16/XMCLib/inc/xmc4_scu.h **** } XMC_SCU_PARITY_t;
 260:/opt/XMClib/XMC_Peripheral_Library_v2.1.16/XMCLib/inc/xmc4_scu.h **** 
 261:/opt/XMClib/XMC_Peripheral_Library_v2.1.16/XMCLib/inc/xmc4_scu.h **** /**
 262:/opt/XMClib/XMC_Peripheral_Library_v2.1.16/XMCLib/inc/xmc4_scu.h ****  *  Defines the different causes for last reset. The cause of the last reset gets automatically sto
 263:/opt/XMClib/XMC_Peripheral_Library_v2.1.16/XMCLib/inc/xmc4_scu.h ****  *  the \a SCU_RSTSTAT register and can be checked by user software to determine the state of the s
 264:/opt/XMClib/XMC_Peripheral_Library_v2.1.16/XMCLib/inc/xmc4_scu.h ****  *  purpose. All the enum items are tabulated as per bits present in \a SCU_RSTSTAT register.
 265:/opt/XMClib/XMC_Peripheral_Library_v2.1.16/XMCLib/inc/xmc4_scu.h ****  *  Use type \a XMC_SCU_RESET_REASON_t for accessing these enum parameters.
 266:/opt/XMClib/XMC_Peripheral_Library_v2.1.16/XMCLib/inc/xmc4_scu.h ****  */
 267:/opt/XMClib/XMC_Peripheral_Library_v2.1.16/XMCLib/inc/xmc4_scu.h **** typedef enum XMC_SCU_RESET_REASON
 268:/opt/XMClib/XMC_Peripheral_Library_v2.1.16/XMCLib/inc/xmc4_scu.h **** {
 269:/opt/XMClib/XMC_Peripheral_Library_v2.1.16/XMCLib/inc/xmc4_scu.h ****   XMC_SCU_RESET_REASON_PORST        = (1UL << SCU_RESET_RSTSTAT_RSTSTAT_Pos), /**< Reset due to Pow
 270:/opt/XMClib/XMC_Peripheral_Library_v2.1.16/XMCLib/inc/xmc4_scu.h ****   XMC_SCU_RESET_REASON_SWD          = (2UL << SCU_RESET_RSTSTAT_RSTSTAT_Pos), /**< Reset due to Sup
 271:/opt/XMClib/XMC_Peripheral_Library_v2.1.16/XMCLib/inc/xmc4_scu.h ****   XMC_SCU_RESET_REASON_PV           = (4UL << SCU_RESET_RSTSTAT_RSTSTAT_Pos), /**< Reset due to Pow
 272:/opt/XMClib/XMC_Peripheral_Library_v2.1.16/XMCLib/inc/xmc4_scu.h ****   XMC_SCU_RESET_REASON_SW           = (8UL << SCU_RESET_RSTSTAT_RSTSTAT_Pos), /**< Reset due to Sof
 273:/opt/XMClib/XMC_Peripheral_Library_v2.1.16/XMCLib/inc/xmc4_scu.h ****   XMC_SCU_RESET_REASON_LOCKUP       = (16UL << SCU_RESET_RSTSTAT_RSTSTAT_Pos), /**< Reset due to re
 274:/opt/XMClib/XMC_Peripheral_Library_v2.1.16/XMCLib/inc/xmc4_scu.h ****   XMC_SCU_RESET_REASON_WATCHDOG     = (32UL << SCU_RESET_RSTSTAT_RSTSTAT_Pos), /**< Reset due to Wa
 275:/opt/XMClib/XMC_Peripheral_Library_v2.1.16/XMCLib/inc/xmc4_scu.h ****   XMC_SCU_RESET_REASON_PARITY_ERROR = (128UL << SCU_RESET_RSTSTAT_RSTSTAT_Pos), /**< Reset due to r
 276:/opt/XMClib/XMC_Peripheral_Library_v2.1.16/XMCLib/inc/xmc4_scu.h **** } XMC_SCU_RESET_REASON_t;
 277:/opt/XMClib/XMC_Peripheral_Library_v2.1.16/XMCLib/inc/xmc4_scu.h **** 
 278:/opt/XMClib/XMC_Peripheral_Library_v2.1.16/XMCLib/inc/xmc4_scu.h **** /**
 279:/opt/XMClib/XMC_Peripheral_Library_v2.1.16/XMCLib/inc/xmc4_scu.h ****  *  Defines enumerations for events which can lead to interrupt. These enumeration values represent
 280:/opt/XMClib/XMC_Peripheral_Library_v2.1.16/XMCLib/inc/xmc4_scu.h ****  * status of one of the bits in \a SRSTAT register. 
 281:/opt/XMClib/XMC_Peripheral_Library_v2.1.16/XMCLib/inc/xmc4_scu.h ****  *  Use type \a XMC_SCU_INTERRUPT_EVENT_t for accessing these enum parameters.
 282:/opt/XMClib/XMC_Peripheral_Library_v2.1.16/XMCLib/inc/xmc4_scu.h ****  */
 283:/opt/XMClib/XMC_Peripheral_Library_v2.1.16/XMCLib/inc/xmc4_scu.h **** typedef uint32_t XMC_SCU_INTERRUPT_EVENT_t;
 284:/opt/XMClib/XMC_Peripheral_Library_v2.1.16/XMCLib/inc/xmc4_scu.h **** 
 285:/opt/XMClib/XMC_Peripheral_Library_v2.1.16/XMCLib/inc/xmc4_scu.h ****  
 286:/opt/XMClib/XMC_Peripheral_Library_v2.1.16/XMCLib/inc/xmc4_scu.h **** /**
 287:/opt/XMClib/XMC_Peripheral_Library_v2.1.16/XMCLib/inc/xmc4_scu.h ****  *  Defines enumeration for the events that can generate non maskable interrupt(NMI).
 288:/opt/XMClib/XMC_Peripheral_Library_v2.1.16/XMCLib/inc/xmc4_scu.h ****  *  The NMI generation can be enabled with \a NMIREQEN register. The event will be reflected in \a 
 289:/opt/XMClib/XMC_Peripheral_Library_v2.1.16/XMCLib/inc/xmc4_scu.h ****  *  mirrored in the TRAPSTAT register. These enums can be used to configure NMI request generation 
 290:/opt/XMClib/XMC_Peripheral_Library_v2.1.16/XMCLib/inc/xmc4_scu.h ****  *  NMIREQEN register.  Once configured, these events can generate non maskable interrupt.
 291:/opt/XMClib/XMC_Peripheral_Library_v2.1.16/XMCLib/inc/xmc4_scu.h ****  *  All the enum items are tabulated as per bits present in \a NMIREQEN register.
 292:/opt/XMClib/XMC_Peripheral_Library_v2.1.16/XMCLib/inc/xmc4_scu.h ****  *  Use type \a XMC_SCU_NMIREQ_t for accessing these enum parameters.
 293:/opt/XMClib/XMC_Peripheral_Library_v2.1.16/XMCLib/inc/xmc4_scu.h ****  */
 294:/opt/XMClib/XMC_Peripheral_Library_v2.1.16/XMCLib/inc/xmc4_scu.h **** typedef enum XMC_SCU_NMIREQ
 295:/opt/XMClib/XMC_Peripheral_Library_v2.1.16/XMCLib/inc/xmc4_scu.h **** {
 296:/opt/XMClib/XMC_Peripheral_Library_v2.1.16/XMCLib/inc/xmc4_scu.h ****   XMC_SCU_NMIREQ_WDT_WARN = SCU_INTERRUPT_NMIREQEN_PRWARN_Msk, /**< Watchdog timer Pre-Warning even
 297:/opt/XMClib/XMC_Peripheral_Library_v2.1.16/XMCLib/inc/xmc4_scu.h ****   XMC_SCU_NMIREQ_RTC_PI   = SCU_INTERRUPT_NMIREQEN_PI_Msk,     /**< RTC Periodic event */ 
 298:/opt/XMClib/XMC_Peripheral_Library_v2.1.16/XMCLib/inc/xmc4_scu.h ****   XMC_SCU_NMIREQ_RTC_AI   = SCU_INTERRUPT_NMIREQEN_AI_Msk,     /**< RTC Alarm event */ 
 299:/opt/XMClib/XMC_Peripheral_Library_v2.1.16/XMCLib/inc/xmc4_scu.h ****   XMC_SCU_NMIREQ_ERU0_0   = SCU_INTERRUPT_NMIREQEN_ERU00_Msk,  /**< Channel 0 event of ERU0 */  
 300:/opt/XMClib/XMC_Peripheral_Library_v2.1.16/XMCLib/inc/xmc4_scu.h ****   XMC_SCU_NMIREQ_ERU0_1   = SCU_INTERRUPT_NMIREQEN_ERU01_Msk,  /**< Channel 1 event of ERU0 */ 
 301:/opt/XMClib/XMC_Peripheral_Library_v2.1.16/XMCLib/inc/xmc4_scu.h ****   XMC_SCU_NMIREQ_ERU0_2   = SCU_INTERRUPT_NMIREQEN_ERU02_Msk,  /**< Channel 2 event of ERU0 */ 
 302:/opt/XMClib/XMC_Peripheral_Library_v2.1.16/XMCLib/inc/xmc4_scu.h ****   XMC_SCU_NMIREQ_ERU0_3   = SCU_INTERRUPT_NMIREQEN_ERU03_Msk   /**< Channel 3 event of ERU0 */ 
 303:/opt/XMClib/XMC_Peripheral_Library_v2.1.16/XMCLib/inc/xmc4_scu.h **** } XMC_SCU_NMIREQ_t;
 304:/opt/XMClib/XMC_Peripheral_Library_v2.1.16/XMCLib/inc/xmc4_scu.h ****   
 305:/opt/XMClib/XMC_Peripheral_Library_v2.1.16/XMCLib/inc/xmc4_scu.h **** 
 306:/opt/XMClib/XMC_Peripheral_Library_v2.1.16/XMCLib/inc/xmc4_scu.h **** /**
 307:/opt/XMClib/XMC_Peripheral_Library_v2.1.16/XMCLib/inc/xmc4_scu.h ****  *  Defines enumeration representing different peripheral reset bits in the \a PRSTAT registers.
 308:/opt/XMClib/XMC_Peripheral_Library_v2.1.16/XMCLib/inc/xmc4_scu.h ****  *  All the enum items are tabulated as per bits present in \a PRSTAT0,  \a PRSTAT1,  \a PRSTAT2,
 309:/opt/XMClib/XMC_Peripheral_Library_v2.1.16/XMCLib/inc/xmc4_scu.h ****  *  \a PRSTAT3 registers. Use type \a XMC_SCU_PERIPHERAL_RESET_t for accessing these enum parameter
 310:/opt/XMClib/XMC_Peripheral_Library_v2.1.16/XMCLib/inc/xmc4_scu.h ****  *  Note: Release of reset should be prevented when the peripheral clock is gated in cases where ke
 311:/opt/XMClib/XMC_Peripheral_Library_v2.1.16/XMCLib/inc/xmc4_scu.h ****  *  clock and bus interface clocks are shared, in order to avoid system hang-up.
 312:/opt/XMClib/XMC_Peripheral_Library_v2.1.16/XMCLib/inc/xmc4_scu.h ****  */
 313:/opt/XMClib/XMC_Peripheral_Library_v2.1.16/XMCLib/inc/xmc4_scu.h **** typedef enum XMC_SCU_PERIPHERAL_RESET
 314:/opt/XMClib/XMC_Peripheral_Library_v2.1.16/XMCLib/inc/xmc4_scu.h **** {
 315:/opt/XMClib/XMC_Peripheral_Library_v2.1.16/XMCLib/inc/xmc4_scu.h ****   XMC_SCU_PERIPHERAL_RESET_VADC   = SCU_RESET_PRSTAT0_VADCRS_Msk,   /**< VADC reset. */ 
 316:/opt/XMClib/XMC_Peripheral_Library_v2.1.16/XMCLib/inc/xmc4_scu.h **** #if defined(DSD)
 317:/opt/XMClib/XMC_Peripheral_Library_v2.1.16/XMCLib/inc/xmc4_scu.h ****   XMC_SCU_PERIPHERAL_RESET_DSD    = SCU_RESET_PRSTAT0_DSDRS_Msk,    /**< DSD reset. */
 318:/opt/XMClib/XMC_Peripheral_Library_v2.1.16/XMCLib/inc/xmc4_scu.h **** #endif
 319:/opt/XMClib/XMC_Peripheral_Library_v2.1.16/XMCLib/inc/xmc4_scu.h ****   XMC_SCU_PERIPHERAL_RESET_CCU40  = SCU_RESET_PRSTAT0_CCU40RS_Msk,  /**< CCU40 reset. */
 320:/opt/XMClib/XMC_Peripheral_Library_v2.1.16/XMCLib/inc/xmc4_scu.h **** #if defined(CCU41)
 321:/opt/XMClib/XMC_Peripheral_Library_v2.1.16/XMCLib/inc/xmc4_scu.h ****   XMC_SCU_PERIPHERAL_RESET_CCU41  = SCU_RESET_PRSTAT0_CCU41RS_Msk,  /**< CCU41 reset. */
 322:/opt/XMClib/XMC_Peripheral_Library_v2.1.16/XMCLib/inc/xmc4_scu.h **** #endif  
 323:/opt/XMClib/XMC_Peripheral_Library_v2.1.16/XMCLib/inc/xmc4_scu.h **** #if defined(CCU42)
 324:/opt/XMClib/XMC_Peripheral_Library_v2.1.16/XMCLib/inc/xmc4_scu.h ****   XMC_SCU_PERIPHERAL_RESET_CCU42  = SCU_RESET_PRSTAT0_CCU42RS_Msk,  /**< CCU42 reset. */
 325:/opt/XMClib/XMC_Peripheral_Library_v2.1.16/XMCLib/inc/xmc4_scu.h **** #endif
 326:/opt/XMClib/XMC_Peripheral_Library_v2.1.16/XMCLib/inc/xmc4_scu.h **** #if defined(CCU80)
 327:/opt/XMClib/XMC_Peripheral_Library_v2.1.16/XMCLib/inc/xmc4_scu.h ****   XMC_SCU_PERIPHERAL_RESET_CCU80  = SCU_RESET_PRSTAT0_CCU80RS_Msk,  /**< CCU80 reset. */
 328:/opt/XMClib/XMC_Peripheral_Library_v2.1.16/XMCLib/inc/xmc4_scu.h **** #endif  
 329:/opt/XMClib/XMC_Peripheral_Library_v2.1.16/XMCLib/inc/xmc4_scu.h **** #if defined(CCU81)
 330:/opt/XMClib/XMC_Peripheral_Library_v2.1.16/XMCLib/inc/xmc4_scu.h ****   XMC_SCU_PERIPHERAL_RESET_CCU81  = SCU_RESET_PRSTAT0_CCU81RS_Msk,  /**< CCU81 reset. */
 331:/opt/XMClib/XMC_Peripheral_Library_v2.1.16/XMCLib/inc/xmc4_scu.h **** #endif
 332:/opt/XMClib/XMC_Peripheral_Library_v2.1.16/XMCLib/inc/xmc4_scu.h **** #if defined(POSIF0)
 333:/opt/XMClib/XMC_Peripheral_Library_v2.1.16/XMCLib/inc/xmc4_scu.h ****   XMC_SCU_PERIPHERAL_RESET_POSIF0 = SCU_RESET_PRSTAT0_POSIF0RS_Msk, /**< POSIF0 reset. */
 334:/opt/XMClib/XMC_Peripheral_Library_v2.1.16/XMCLib/inc/xmc4_scu.h **** #endif  
 335:/opt/XMClib/XMC_Peripheral_Library_v2.1.16/XMCLib/inc/xmc4_scu.h **** #if defined(POSIF1)
 336:/opt/XMClib/XMC_Peripheral_Library_v2.1.16/XMCLib/inc/xmc4_scu.h ****   XMC_SCU_PERIPHERAL_RESET_POSIF1 = SCU_RESET_PRSTAT0_POSIF1RS_Msk, /**< POSIF1 reset.*/
 337:/opt/XMClib/XMC_Peripheral_Library_v2.1.16/XMCLib/inc/xmc4_scu.h **** #endif
 338:/opt/XMClib/XMC_Peripheral_Library_v2.1.16/XMCLib/inc/xmc4_scu.h ****   XMC_SCU_PERIPHERAL_RESET_USIC0  = SCU_RESET_PRSTAT0_USIC0RS_Msk,  /**< USIC0 reset. */
 339:/opt/XMClib/XMC_Peripheral_Library_v2.1.16/XMCLib/inc/xmc4_scu.h ****   XMC_SCU_PERIPHERAL_RESET_ERU1   = SCU_RESET_PRSTAT0_ERU1RS_Msk,   /**< ERU1 reset. */
 340:/opt/XMClib/XMC_Peripheral_Library_v2.1.16/XMCLib/inc/xmc4_scu.h **** #if defined(HRPWM0)
 341:/opt/XMClib/XMC_Peripheral_Library_v2.1.16/XMCLib/inc/xmc4_scu.h ****   XMC_SCU_PERIPHERAL_RESET_HRPWM0 = SCU_RESET_PRSTAT0_HRPWM0RS_Msk,  /**< HRPWM0 reset. */
 342:/opt/XMClib/XMC_Peripheral_Library_v2.1.16/XMCLib/inc/xmc4_scu.h **** #endif
 343:/opt/XMClib/XMC_Peripheral_Library_v2.1.16/XMCLib/inc/xmc4_scu.h **** #if defined(CCU43)
 344:/opt/XMClib/XMC_Peripheral_Library_v2.1.16/XMCLib/inc/xmc4_scu.h ****   XMC_SCU_PERIPHERAL_RESET_CCU43  = (SCU_RESET_PRSTAT1_CCU43RS_Msk | 0x10000000UL),   /**< CCU43 re
 345:/opt/XMClib/XMC_Peripheral_Library_v2.1.16/XMCLib/inc/xmc4_scu.h **** #endif
 346:/opt/XMClib/XMC_Peripheral_Library_v2.1.16/XMCLib/inc/xmc4_scu.h **** #if defined(LEDTS0)
 347:/opt/XMClib/XMC_Peripheral_Library_v2.1.16/XMCLib/inc/xmc4_scu.h ****   XMC_SCU_PERIPHERAL_RESET_LEDTS0 = (SCU_RESET_PRSTAT1_LEDTSCU0RS_Msk | 0x10000000UL), /**< LEDTS0 
 348:/opt/XMClib/XMC_Peripheral_Library_v2.1.16/XMCLib/inc/xmc4_scu.h **** #endif  
 349:/opt/XMClib/XMC_Peripheral_Library_v2.1.16/XMCLib/inc/xmc4_scu.h **** #if defined(CAN)
 350:/opt/XMClib/XMC_Peripheral_Library_v2.1.16/XMCLib/inc/xmc4_scu.h ****   XMC_SCU_PERIPHERAL_RESET_MCAN   = (SCU_RESET_PRSTAT1_MCAN0RS_Msk | 0x10000000UL), /**< MCAN reset
 351:/opt/XMClib/XMC_Peripheral_Library_v2.1.16/XMCLib/inc/xmc4_scu.h **** #endif  
 352:/opt/XMClib/XMC_Peripheral_Library_v2.1.16/XMCLib/inc/xmc4_scu.h **** #if defined(DAC)  
 353:/opt/XMClib/XMC_Peripheral_Library_v2.1.16/XMCLib/inc/xmc4_scu.h ****   XMC_SCU_PERIPHERAL_RESET_DAC    = (SCU_RESET_PRSTAT1_DACRS_Msk | 0x10000000UL),    /**< DAC reset
 354:/opt/XMClib/XMC_Peripheral_Library_v2.1.16/XMCLib/inc/xmc4_scu.h **** #endif  
 355:/opt/XMClib/XMC_Peripheral_Library_v2.1.16/XMCLib/inc/xmc4_scu.h **** #if defined(SDMMC)
 356:/opt/XMClib/XMC_Peripheral_Library_v2.1.16/XMCLib/inc/xmc4_scu.h ****   XMC_SCU_PERIPHERAL_RESET_SDMMC  = (SCU_RESET_PRSTAT1_MMCIRS_Msk | 0x10000000UL),     /**< SDMMC r
 357:/opt/XMClib/XMC_Peripheral_Library_v2.1.16/XMCLib/inc/xmc4_scu.h **** #endif
 358:/opt/XMClib/XMC_Peripheral_Library_v2.1.16/XMCLib/inc/xmc4_scu.h **** #if defined(USIC1)
 359:/opt/XMClib/XMC_Peripheral_Library_v2.1.16/XMCLib/inc/xmc4_scu.h ****   XMC_SCU_PERIPHERAL_RESET_USIC1  = (SCU_RESET_PRSTAT1_USIC1RS_Msk | 0x10000000UL),    /**< USIC1 r
 360:/opt/XMClib/XMC_Peripheral_Library_v2.1.16/XMCLib/inc/xmc4_scu.h **** #endif  
 361:/opt/XMClib/XMC_Peripheral_Library_v2.1.16/XMCLib/inc/xmc4_scu.h **** #if defined(USIC2)
 362:/opt/XMClib/XMC_Peripheral_Library_v2.1.16/XMCLib/inc/xmc4_scu.h ****   XMC_SCU_PERIPHERAL_RESET_USIC2  = (SCU_RESET_PRSTAT1_USIC2RS_Msk | 0x10000000UL),    /**< USIC2 r
 363:/opt/XMClib/XMC_Peripheral_Library_v2.1.16/XMCLib/inc/xmc4_scu.h **** #endif
 364:/opt/XMClib/XMC_Peripheral_Library_v2.1.16/XMCLib/inc/xmc4_scu.h ****   XMC_SCU_PERIPHERAL_RESET_PORTS  = (SCU_RESET_PRSTAT1_PPORTSRS_Msk | 0x10000000UL),   /**< PORTS r
 365:/opt/XMClib/XMC_Peripheral_Library_v2.1.16/XMCLib/inc/xmc4_scu.h ****   XMC_SCU_PERIPHERAL_RESET_WDT    = (SCU_RESET_PRSTAT2_WDTRS_Msk | 0x20000000UL),      /**< WDT res
 366:/opt/XMClib/XMC_Peripheral_Library_v2.1.16/XMCLib/inc/xmc4_scu.h **** #if defined(ETH0)
 367:/opt/XMClib/XMC_Peripheral_Library_v2.1.16/XMCLib/inc/xmc4_scu.h ****   XMC_SCU_PERIPHERAL_RESET_ETH0   = (SCU_RESET_PRSTAT2_ETH0RS_Msk | 0x20000000UL),     /**< ETH0 re
 368:/opt/XMClib/XMC_Peripheral_Library_v2.1.16/XMCLib/inc/xmc4_scu.h **** #endif
 369:/opt/XMClib/XMC_Peripheral_Library_v2.1.16/XMCLib/inc/xmc4_scu.h ****   XMC_SCU_PERIPHERAL_RESET_GPDMA0 = (SCU_RESET_PRSTAT2_DMA0RS_Msk | 0x20000000UL),     /**< DMA0 re
 370:/opt/XMClib/XMC_Peripheral_Library_v2.1.16/XMCLib/inc/xmc4_scu.h **** #if defined(GPDMA1)
 371:/opt/XMClib/XMC_Peripheral_Library_v2.1.16/XMCLib/inc/xmc4_scu.h ****   XMC_SCU_PERIPHERAL_RESET_GPDMA1 = (SCU_RESET_PRSTAT2_DMA1RS_Msk | 0x20000000UL),     /**< DMA1 re
 372:/opt/XMClib/XMC_Peripheral_Library_v2.1.16/XMCLib/inc/xmc4_scu.h **** #endif
 373:/opt/XMClib/XMC_Peripheral_Library_v2.1.16/XMCLib/inc/xmc4_scu.h **** #if defined(FCE)
 374:/opt/XMClib/XMC_Peripheral_Library_v2.1.16/XMCLib/inc/xmc4_scu.h ****   XMC_SCU_PERIPHERAL_RESET_FCE    = (SCU_RESET_PRSTAT2_FCERS_Msk | 0x20000000UL),      /**< FCE res
 375:/opt/XMClib/XMC_Peripheral_Library_v2.1.16/XMCLib/inc/xmc4_scu.h **** #endif
 376:/opt/XMClib/XMC_Peripheral_Library_v2.1.16/XMCLib/inc/xmc4_scu.h **** #if defined(USB0)  
 377:/opt/XMClib/XMC_Peripheral_Library_v2.1.16/XMCLib/inc/xmc4_scu.h ****   XMC_SCU_PERIPHERAL_RESET_USB0   = (SCU_RESET_PRSTAT2_USBRS_Msk | 0x20000000UL),      /**< USB0 re
 378:/opt/XMClib/XMC_Peripheral_Library_v2.1.16/XMCLib/inc/xmc4_scu.h **** #endif  
 379:/opt/XMClib/XMC_Peripheral_Library_v2.1.16/XMCLib/inc/xmc4_scu.h **** #if defined(ECAT0)  
 380:/opt/XMClib/XMC_Peripheral_Library_v2.1.16/XMCLib/inc/xmc4_scu.h ****   XMC_SCU_PERIPHERAL_RESET_ECAT0  = (SCU_RESET_PRSTAT2_ECAT0RS_Msk | 0x20000000UL),      /**< ECAT0
 381:/opt/XMClib/XMC_Peripheral_Library_v2.1.16/XMCLib/inc/xmc4_scu.h **** #endif  
 382:/opt/XMClib/XMC_Peripheral_Library_v2.1.16/XMCLib/inc/xmc4_scu.h **** #if defined(EBU)
 383:/opt/XMClib/XMC_Peripheral_Library_v2.1.16/XMCLib/inc/xmc4_scu.h ****   XMC_SCU_PERIPHERAL_RESET_EBU    = (SCU_RESET_PRSTAT3_EBURS_Msk | 0x30000000UL)       /**< EBU res
 384:/opt/XMClib/XMC_Peripheral_Library_v2.1.16/XMCLib/inc/xmc4_scu.h **** #endif
 385:/opt/XMClib/XMC_Peripheral_Library_v2.1.16/XMCLib/inc/xmc4_scu.h **** } XMC_SCU_PERIPHERAL_RESET_t;
 386:/opt/XMClib/XMC_Peripheral_Library_v2.1.16/XMCLib/inc/xmc4_scu.h **** 
 387:/opt/XMClib/XMC_Peripheral_Library_v2.1.16/XMCLib/inc/xmc4_scu.h **** /**
 388:/opt/XMClib/XMC_Peripheral_Library_v2.1.16/XMCLib/inc/xmc4_scu.h ****  *  Defines enumerations for disabling the clocks sources of peripherals. Disabling of the peripher
 389:/opt/XMClib/XMC_Peripheral_Library_v2.1.16/XMCLib/inc/xmc4_scu.h ****  *  clock is configured via the \a CLKCLR registers.
 390:/opt/XMClib/XMC_Peripheral_Library_v2.1.16/XMCLib/inc/xmc4_scu.h ****  *  Use type \a XMC_SCU_PERIPHERAL_CLOCK_t for accessing these enum parameters.
 391:/opt/XMClib/XMC_Peripheral_Library_v2.1.16/XMCLib/inc/xmc4_scu.h ****  */
 392:/opt/XMClib/XMC_Peripheral_Library_v2.1.16/XMCLib/inc/xmc4_scu.h **** typedef enum XMC_SCU_CLOCK
 393:/opt/XMClib/XMC_Peripheral_Library_v2.1.16/XMCLib/inc/xmc4_scu.h **** {
 394:/opt/XMClib/XMC_Peripheral_Library_v2.1.16/XMCLib/inc/xmc4_scu.h ****   XMC_SCU_CLOCK_USB = SCU_CLK_CLKCLR_USBCDI_Msk, /**< USB module clock. */
 395:/opt/XMClib/XMC_Peripheral_Library_v2.1.16/XMCLib/inc/xmc4_scu.h **** #if defined(SDMMC)
 396:/opt/XMClib/XMC_Peripheral_Library_v2.1.16/XMCLib/inc/xmc4_scu.h ****   XMC_SCU_CLOCK_MMC = SCU_CLK_CLKCLR_MMCCDI_Msk, /**< MMC module clock. */
 397:/opt/XMClib/XMC_Peripheral_Library_v2.1.16/XMCLib/inc/xmc4_scu.h **** #endif
 398:/opt/XMClib/XMC_Peripheral_Library_v2.1.16/XMCLib/inc/xmc4_scu.h **** #if defined(ETH0)
 399:/opt/XMClib/XMC_Peripheral_Library_v2.1.16/XMCLib/inc/xmc4_scu.h ****   XMC_SCU_CLOCK_ETH = SCU_CLK_CLKCLR_ETH0CDI_Msk, /**< Ethernet module clock. */
 400:/opt/XMClib/XMC_Peripheral_Library_v2.1.16/XMCLib/inc/xmc4_scu.h **** #endif
 401:/opt/XMClib/XMC_Peripheral_Library_v2.1.16/XMCLib/inc/xmc4_scu.h **** #if defined(EBU)
 402:/opt/XMClib/XMC_Peripheral_Library_v2.1.16/XMCLib/inc/xmc4_scu.h ****   XMC_SCU_CLOCK_EBU = SCU_CLK_CLKCLR_EBUCDI_Msk, /**< EBU module clock. */
 403:/opt/XMClib/XMC_Peripheral_Library_v2.1.16/XMCLib/inc/xmc4_scu.h **** #endif
 404:/opt/XMClib/XMC_Peripheral_Library_v2.1.16/XMCLib/inc/xmc4_scu.h ****   XMC_SCU_CLOCK_CCU = SCU_CLK_CLKCLR_CCUCDI_Msk, /**< CCU module clock. */
 405:/opt/XMClib/XMC_Peripheral_Library_v2.1.16/XMCLib/inc/xmc4_scu.h ****   XMC_SCU_CLOCK_WDT = SCU_CLK_CLKCLR_WDTCDI_Msk  /**< WDT module clock. */
 406:/opt/XMClib/XMC_Peripheral_Library_v2.1.16/XMCLib/inc/xmc4_scu.h **** } XMC_SCU_CLOCK_t;
 407:/opt/XMClib/XMC_Peripheral_Library_v2.1.16/XMCLib/inc/xmc4_scu.h **** 
 408:/opt/XMClib/XMC_Peripheral_Library_v2.1.16/XMCLib/inc/xmc4_scu.h **** #if(UC_SERIES != XMC45)
 409:/opt/XMClib/XMC_Peripheral_Library_v2.1.16/XMCLib/inc/xmc4_scu.h **** /**
 410:/opt/XMClib/XMC_Peripheral_Library_v2.1.16/XMCLib/inc/xmc4_scu.h ****  * Defines enumeration for peripherals that support clock gating. 
 411:/opt/XMClib/XMC_Peripheral_Library_v2.1.16/XMCLib/inc/xmc4_scu.h ****  * The enumerations can be used for gating or ungating the peripheral clocks.
 412:/opt/XMClib/XMC_Peripheral_Library_v2.1.16/XMCLib/inc/xmc4_scu.h ****  * All the enum items are tabulated as per bits present in \a CGATSTAT0 register.
 413:/opt/XMClib/XMC_Peripheral_Library_v2.1.16/XMCLib/inc/xmc4_scu.h ****  * Use type \a XMC_SCU_PERIPHERAL_CLOCK_t for accessing these enum parameters.
 414:/opt/XMClib/XMC_Peripheral_Library_v2.1.16/XMCLib/inc/xmc4_scu.h ****  */
 415:/opt/XMClib/XMC_Peripheral_Library_v2.1.16/XMCLib/inc/xmc4_scu.h **** typedef enum XMC_SCU_PERIPHERAL_CLOCK
 416:/opt/XMClib/XMC_Peripheral_Library_v2.1.16/XMCLib/inc/xmc4_scu.h **** {
 417:/opt/XMClib/XMC_Peripheral_Library_v2.1.16/XMCLib/inc/xmc4_scu.h ****   XMC_SCU_PERIPHERAL_CLOCK_VADC   = SCU_CLK_CGATSTAT0_VADC_Msk,  /**< VADC peripheral gating. */
 418:/opt/XMClib/XMC_Peripheral_Library_v2.1.16/XMCLib/inc/xmc4_scu.h **** #if defined(DSD)
 419:/opt/XMClib/XMC_Peripheral_Library_v2.1.16/XMCLib/inc/xmc4_scu.h ****   XMC_SCU_PERIPHERAL_CLOCK_DSD    = SCU_CLK_CGATSTAT0_DSD_Msk,   /**< DSD peripheral gating. */
 420:/opt/XMClib/XMC_Peripheral_Library_v2.1.16/XMCLib/inc/xmc4_scu.h **** #endif
 421:/opt/XMClib/XMC_Peripheral_Library_v2.1.16/XMCLib/inc/xmc4_scu.h ****   XMC_SCU_PERIPHERAL_CLOCK_CCU40  = SCU_CLK_CGATSTAT0_CCU40_Msk,  /**< CCU40 peripheral gating. */
 422:/opt/XMClib/XMC_Peripheral_Library_v2.1.16/XMCLib/inc/xmc4_scu.h **** #if defined(CCU41)
 423:/opt/XMClib/XMC_Peripheral_Library_v2.1.16/XMCLib/inc/xmc4_scu.h ****   XMC_SCU_PERIPHERAL_CLOCK_CCU41  = SCU_CLK_CGATSTAT0_CCU41_Msk,  /**< CCU41 peripheral gating. */
 424:/opt/XMClib/XMC_Peripheral_Library_v2.1.16/XMCLib/inc/xmc4_scu.h **** #endif  
 425:/opt/XMClib/XMC_Peripheral_Library_v2.1.16/XMCLib/inc/xmc4_scu.h **** #if defined(CCU42)
 426:/opt/XMClib/XMC_Peripheral_Library_v2.1.16/XMCLib/inc/xmc4_scu.h ****   XMC_SCU_PERIPHERAL_CLOCK_CCU42  = SCU_CLK_CGATSTAT0_CCU42_Msk,  /**< CCU42 peripheral gating. */
 427:/opt/XMClib/XMC_Peripheral_Library_v2.1.16/XMCLib/inc/xmc4_scu.h **** #endif
 428:/opt/XMClib/XMC_Peripheral_Library_v2.1.16/XMCLib/inc/xmc4_scu.h **** #if defined(CCU80)
 429:/opt/XMClib/XMC_Peripheral_Library_v2.1.16/XMCLib/inc/xmc4_scu.h ****   XMC_SCU_PERIPHERAL_CLOCK_CCU80  = SCU_CLK_CGATSTAT0_CCU80_Msk,  /**< CCU80 peripheral gating. */
 430:/opt/XMClib/XMC_Peripheral_Library_v2.1.16/XMCLib/inc/xmc4_scu.h **** #endif  
 431:/opt/XMClib/XMC_Peripheral_Library_v2.1.16/XMCLib/inc/xmc4_scu.h **** #if defined(CCU81)
 432:/opt/XMClib/XMC_Peripheral_Library_v2.1.16/XMCLib/inc/xmc4_scu.h ****   XMC_SCU_PERIPHERAL_CLOCK_CCU81  = SCU_CLK_CGATSTAT0_CCU81_Msk,  /**< CCU81 peripheral gating. */
 433:/opt/XMClib/XMC_Peripheral_Library_v2.1.16/XMCLib/inc/xmc4_scu.h **** #endif
 434:/opt/XMClib/XMC_Peripheral_Library_v2.1.16/XMCLib/inc/xmc4_scu.h **** #if defined(POSIF0)
 435:/opt/XMClib/XMC_Peripheral_Library_v2.1.16/XMCLib/inc/xmc4_scu.h ****   XMC_SCU_PERIPHERAL_CLOCK_POSIF0 = SCU_CLK_CGATSTAT0_POSIF0_Msk,  /**< POSIF0 peripheral gating. *
 436:/opt/XMClib/XMC_Peripheral_Library_v2.1.16/XMCLib/inc/xmc4_scu.h **** #endif  
 437:/opt/XMClib/XMC_Peripheral_Library_v2.1.16/XMCLib/inc/xmc4_scu.h **** #if defined(POSIF1)
 438:/opt/XMClib/XMC_Peripheral_Library_v2.1.16/XMCLib/inc/xmc4_scu.h ****   XMC_SCU_PERIPHERAL_CLOCK_POSIF1 = SCU_CLK_CGATSTAT0_POSIF1_Msk,   /**< POSIF1 peripheral gating. 
 439:/opt/XMClib/XMC_Peripheral_Library_v2.1.16/XMCLib/inc/xmc4_scu.h **** #endif
 440:/opt/XMClib/XMC_Peripheral_Library_v2.1.16/XMCLib/inc/xmc4_scu.h ****   XMC_SCU_PERIPHERAL_CLOCK_USIC0  = SCU_CLK_CGATSTAT0_USIC0_Msk,   /**< USIC0 peripheral gating. */
 441:/opt/XMClib/XMC_Peripheral_Library_v2.1.16/XMCLib/inc/xmc4_scu.h ****   XMC_SCU_PERIPHERAL_CLOCK_ERU1   = SCU_CLK_CGATSTAT0_ERU1_Msk,    /**< ERU1 peripheral gating. */
 442:/opt/XMClib/XMC_Peripheral_Library_v2.1.16/XMCLib/inc/xmc4_scu.h **** #if defined(HRPWM0)
 443:/opt/XMClib/XMC_Peripheral_Library_v2.1.16/XMCLib/inc/xmc4_scu.h ****   XMC_SCU_PERIPHERAL_CLOCK_HRPWM0 = SCU_CLK_CGATSTAT0_HRPWM0_Msk,  /**< HRPWM0 peripheral gating. *
 444:/opt/XMClib/XMC_Peripheral_Library_v2.1.16/XMCLib/inc/xmc4_scu.h **** #endif
 445:/opt/XMClib/XMC_Peripheral_Library_v2.1.16/XMCLib/inc/xmc4_scu.h **** #if defined(CCU43)
 446:/opt/XMClib/XMC_Peripheral_Library_v2.1.16/XMCLib/inc/xmc4_scu.h ****   XMC_SCU_PERIPHERAL_CLOCK_CCU43  = (SCU_CLK_CGATSTAT1_CCU43_Msk | 0x10000000UL),   /**< CCU43 peri
 447:/opt/XMClib/XMC_Peripheral_Library_v2.1.16/XMCLib/inc/xmc4_scu.h **** #endif
 448:/opt/XMClib/XMC_Peripheral_Library_v2.1.16/XMCLib/inc/xmc4_scu.h **** #if defined(LEDTS0)
 449:/opt/XMClib/XMC_Peripheral_Library_v2.1.16/XMCLib/inc/xmc4_scu.h ****   XMC_SCU_PERIPHERAL_CLOCK_LEDTS0 = (SCU_CLK_CGATSTAT1_LEDTSCU0_Msk | 0x10000000UL), /**< LEDTS0 pe
 450:/opt/XMClib/XMC_Peripheral_Library_v2.1.16/XMCLib/inc/xmc4_scu.h **** #endif  
 451:/opt/XMClib/XMC_Peripheral_Library_v2.1.16/XMCLib/inc/xmc4_scu.h **** #if defined(CAN)
 452:/opt/XMClib/XMC_Peripheral_Library_v2.1.16/XMCLib/inc/xmc4_scu.h ****   XMC_SCU_PERIPHERAL_CLOCK_MCAN   = (SCU_CLK_CGATSTAT1_MCAN0_Msk | 0x10000000UL),   /**< MCAN perip
 453:/opt/XMClib/XMC_Peripheral_Library_v2.1.16/XMCLib/inc/xmc4_scu.h **** #endif
 454:/opt/XMClib/XMC_Peripheral_Library_v2.1.16/XMCLib/inc/xmc4_scu.h **** #if defined(DAC)  
 455:/opt/XMClib/XMC_Peripheral_Library_v2.1.16/XMCLib/inc/xmc4_scu.h ****   XMC_SCU_PERIPHERAL_CLOCK_DAC    = (SCU_CLK_CGATSTAT1_DAC_Msk | 0x10000000UL),     /**< DAC periph
 456:/opt/XMClib/XMC_Peripheral_Library_v2.1.16/XMCLib/inc/xmc4_scu.h **** #endif  
 457:/opt/XMClib/XMC_Peripheral_Library_v2.1.16/XMCLib/inc/xmc4_scu.h **** #if defined(SDMMC)
 458:/opt/XMClib/XMC_Peripheral_Library_v2.1.16/XMCLib/inc/xmc4_scu.h ****   XMC_SCU_PERIPHERAL_CLOCK_SDMMC  = (SCU_CLK_CGATSTAT1_MMCI_Msk | 0x10000000UL),    /**< SDMMC peri
 459:/opt/XMClib/XMC_Peripheral_Library_v2.1.16/XMCLib/inc/xmc4_scu.h **** #endif
 460:/opt/XMClib/XMC_Peripheral_Library_v2.1.16/XMCLib/inc/xmc4_scu.h **** #if defined(USIC1)
 461:/opt/XMClib/XMC_Peripheral_Library_v2.1.16/XMCLib/inc/xmc4_scu.h ****   XMC_SCU_PERIPHERAL_CLOCK_USIC1  = (SCU_CLK_CGATSTAT1_USIC1_Msk | 0x10000000UL),   /**< USIC1 peri
 462:/opt/XMClib/XMC_Peripheral_Library_v2.1.16/XMCLib/inc/xmc4_scu.h **** #endif  
 463:/opt/XMClib/XMC_Peripheral_Library_v2.1.16/XMCLib/inc/xmc4_scu.h **** #if defined(USIC2)
 464:/opt/XMClib/XMC_Peripheral_Library_v2.1.16/XMCLib/inc/xmc4_scu.h ****   XMC_SCU_PERIPHERAL_CLOCK_USIC2  = (SCU_CLK_CGATSTAT1_USIC2_Msk | 0x10000000UL),    /**< USIC2 per
 465:/opt/XMClib/XMC_Peripheral_Library_v2.1.16/XMCLib/inc/xmc4_scu.h **** #endif
 466:/opt/XMClib/XMC_Peripheral_Library_v2.1.16/XMCLib/inc/xmc4_scu.h ****   XMC_SCU_PERIPHERAL_CLOCK_PORTS  = (SCU_CLK_CGATSTAT1_PPORTS_Msk | 0x10000000UL),   /**< PORTS per
 467:/opt/XMClib/XMC_Peripheral_Library_v2.1.16/XMCLib/inc/xmc4_scu.h ****   XMC_SCU_PERIPHERAL_CLOCK_WDT    = (SCU_CLK_CGATSTAT2_WDT_Msk | 0x20000000UL),      /**< WDT perip
 468:/opt/XMClib/XMC_Peripheral_Library_v2.1.16/XMCLib/inc/xmc4_scu.h **** #if defined(ETH0)
 469:/opt/XMClib/XMC_Peripheral_Library_v2.1.16/XMCLib/inc/xmc4_scu.h ****   XMC_SCU_PERIPHERAL_CLOCK_ETH0   = (SCU_CLK_CGATSTAT2_ETH0_Msk | 0x20000000UL),     /**< ETH0 peri
 470:/opt/XMClib/XMC_Peripheral_Library_v2.1.16/XMCLib/inc/xmc4_scu.h **** #endif
 471:/opt/XMClib/XMC_Peripheral_Library_v2.1.16/XMCLib/inc/xmc4_scu.h ****   XMC_SCU_PERIPHERAL_CLOCK_GPDMA0 = (SCU_CLK_CGATSTAT2_DMA0_Msk | 0x20000000UL),     /**< DMA0 peri
 472:/opt/XMClib/XMC_Peripheral_Library_v2.1.16/XMCLib/inc/xmc4_scu.h **** #if defined(GPDMA1)
 473:/opt/XMClib/XMC_Peripheral_Library_v2.1.16/XMCLib/inc/xmc4_scu.h ****   XMC_SCU_PERIPHERAL_CLOCK_GPDMA1 = (SCU_CLK_CGATSTAT2_DMA1_Msk | 0x20000000UL),     /**< DMA1 peri
 474:/opt/XMClib/XMC_Peripheral_Library_v2.1.16/XMCLib/inc/xmc4_scu.h **** #endif
 475:/opt/XMClib/XMC_Peripheral_Library_v2.1.16/XMCLib/inc/xmc4_scu.h **** #if defined(FCE)
 476:/opt/XMClib/XMC_Peripheral_Library_v2.1.16/XMCLib/inc/xmc4_scu.h ****   XMC_SCU_PERIPHERAL_CLOCK_FCE    = (SCU_CLK_CGATSTAT2_FCE_Msk | 0x20000000UL),      /**< FCE perip
 477:/opt/XMClib/XMC_Peripheral_Library_v2.1.16/XMCLib/inc/xmc4_scu.h **** #endif  
 478:/opt/XMClib/XMC_Peripheral_Library_v2.1.16/XMCLib/inc/xmc4_scu.h **** #if defined(USB0)
 479:/opt/XMClib/XMC_Peripheral_Library_v2.1.16/XMCLib/inc/xmc4_scu.h ****   XMC_SCU_PERIPHERAL_CLOCK_USB0   = (SCU_CLK_CGATSTAT2_USB_Msk | 0x20000000UL),      /**< USB0 peri
 480:/opt/XMClib/XMC_Peripheral_Library_v2.1.16/XMCLib/inc/xmc4_scu.h **** #endif  
 481:/opt/XMClib/XMC_Peripheral_Library_v2.1.16/XMCLib/inc/xmc4_scu.h **** #if defined(ECAT0)
 482:/opt/XMClib/XMC_Peripheral_Library_v2.1.16/XMCLib/inc/xmc4_scu.h ****   XMC_SCU_PERIPHERAL_CLOCK_ECAT0   = (SCU_CLK_CGATSTAT2_ECAT0_Msk | 0x20000000UL),      /**< ECAT0 
 483:/opt/XMClib/XMC_Peripheral_Library_v2.1.16/XMCLib/inc/xmc4_scu.h **** #endif  
 484:/opt/XMClib/XMC_Peripheral_Library_v2.1.16/XMCLib/inc/xmc4_scu.h **** #if defined(EBU)
 485:/opt/XMClib/XMC_Peripheral_Library_v2.1.16/XMCLib/inc/xmc4_scu.h ****   XMC_SCU_PERIPHERAL_CLOCK_EBU    = (SCU_CLK_CGATSTAT3_EBU_Msk | 0x30000000UL)       /**< EBU perip
 486:/opt/XMClib/XMC_Peripheral_Library_v2.1.16/XMCLib/inc/xmc4_scu.h **** #endif
 487:/opt/XMClib/XMC_Peripheral_Library_v2.1.16/XMCLib/inc/xmc4_scu.h **** } XMC_SCU_PERIPHERAL_CLOCK_t;
 488:/opt/XMClib/XMC_Peripheral_Library_v2.1.16/XMCLib/inc/xmc4_scu.h **** #endif
 489:/opt/XMClib/XMC_Peripheral_Library_v2.1.16/XMCLib/inc/xmc4_scu.h **** 
 490:/opt/XMClib/XMC_Peripheral_Library_v2.1.16/XMCLib/inc/xmc4_scu.h **** /**
 491:/opt/XMClib/XMC_Peripheral_Library_v2.1.16/XMCLib/inc/xmc4_scu.h ****  *  Defines options for system clock (fSYS) source. These enums are used to configure \a SYSSEL bit
 492:/opt/XMClib/XMC_Peripheral_Library_v2.1.16/XMCLib/inc/xmc4_scu.h ****  *  Clock Control Register. 
 493:/opt/XMClib/XMC_Peripheral_Library_v2.1.16/XMCLib/inc/xmc4_scu.h ****  *  Use type \a XMC_SCU_CLOCK_SYSCLKSRC_t for accessing these enum parameters.
 494:/opt/XMClib/XMC_Peripheral_Library_v2.1.16/XMCLib/inc/xmc4_scu.h ****  */ 
 495:/opt/XMClib/XMC_Peripheral_Library_v2.1.16/XMCLib/inc/xmc4_scu.h **** typedef enum XMC_SCU_CLOCK_SYSCLKSRC
 496:/opt/XMClib/XMC_Peripheral_Library_v2.1.16/XMCLib/inc/xmc4_scu.h **** {
 497:/opt/XMClib/XMC_Peripheral_Library_v2.1.16/XMCLib/inc/xmc4_scu.h ****   XMC_SCU_CLOCK_SYSCLKSRC_OFI = (0UL << SCU_CLK_SYSCLKCR_SYSSEL_Pos), /**< Internal Fast Clock (fOF
 498:/opt/XMClib/XMC_Peripheral_Library_v2.1.16/XMCLib/inc/xmc4_scu.h ****                                                                            source for system clock 
 499:/opt/XMClib/XMC_Peripheral_Library_v2.1.16/XMCLib/inc/xmc4_scu.h ****   XMC_SCU_CLOCK_SYSCLKSRC_PLL = (1UL << SCU_CLK_SYSCLKCR_SYSSEL_Pos)  /**< PLL output (fPLL) as a
 500:/opt/XMClib/XMC_Peripheral_Library_v2.1.16/XMCLib/inc/xmc4_scu.h ****                                                                            source for system clock 
 501:/opt/XMClib/XMC_Peripheral_Library_v2.1.16/XMCLib/inc/xmc4_scu.h **** } XMC_SCU_CLOCK_SYSCLKSRC_t;
 502:/opt/XMClib/XMC_Peripheral_Library_v2.1.16/XMCLib/inc/xmc4_scu.h **** 
 503:/opt/XMClib/XMC_Peripheral_Library_v2.1.16/XMCLib/inc/xmc4_scu.h **** /**
 504:/opt/XMClib/XMC_Peripheral_Library_v2.1.16/XMCLib/inc/xmc4_scu.h ****  *  Defines options for selecting the P-Divider input frequency. These enums are used to configure 
 505:/opt/XMClib/XMC_Peripheral_Library_v2.1.16/XMCLib/inc/xmc4_scu.h ****  *  register. 
 506:/opt/XMClib/XMC_Peripheral_Library_v2.1.16/XMCLib/inc/xmc4_scu.h ****  *  Use type \a XMC_SCU_CLOCK_OSCCLKSRC_t for accessing these enum parameters.
 507:/opt/XMClib/XMC_Peripheral_Library_v2.1.16/XMCLib/inc/xmc4_scu.h ****  */ 
 508:/opt/XMClib/XMC_Peripheral_Library_v2.1.16/XMCLib/inc/xmc4_scu.h **** typedef enum XMC_SCU_CLOCK_SYSPLLCLKSRC
 509:/opt/XMClib/XMC_Peripheral_Library_v2.1.16/XMCLib/inc/xmc4_scu.h **** {
 510:/opt/XMClib/XMC_Peripheral_Library_v2.1.16/XMCLib/inc/xmc4_scu.h ****   XMC_SCU_CLOCK_SYSPLLCLKSRC_OSCHP = 0UL,  /**< External crystal oscillator
 511:/opt/XMClib/XMC_Peripheral_Library_v2.1.16/XMCLib/inc/xmc4_scu.h ****                                                 (fOHP) as the source for P-Divider. */
 512:/opt/XMClib/XMC_Peripheral_Library_v2.1.16/XMCLib/inc/xmc4_scu.h ****   XMC_SCU_CLOCK_SYSPLLCLKSRC_OFI = SCU_PLL_PLLCON2_PINSEL_Msk | SCU_PLL_PLLCON2_K1INSEL_Msk /**< Ba
 513:/opt/XMClib/XMC_Peripheral_Library_v2.1.16/XMCLib/inc/xmc4_scu.h ****                                                                              as the source for P-Di
 514:/opt/XMClib/XMC_Peripheral_Library_v2.1.16/XMCLib/inc/xmc4_scu.h **** } XMC_SCU_CLOCK_SYSPLLCLKSRC_t;
 515:/opt/XMClib/XMC_Peripheral_Library_v2.1.16/XMCLib/inc/xmc4_scu.h **** 
 516:/opt/XMClib/XMC_Peripheral_Library_v2.1.16/XMCLib/inc/xmc4_scu.h **** /**
 517:/opt/XMClib/XMC_Peripheral_Library_v2.1.16/XMCLib/inc/xmc4_scu.h ****  * Defines options for selecting the USB clock source(fUSB/fSDMMC).
 518:/opt/XMClib/XMC_Peripheral_Library_v2.1.16/XMCLib/inc/xmc4_scu.h ****  * These enums are used to configure \a USBSEL bits of \a USBCLKCR
 519:/opt/XMClib/XMC_Peripheral_Library_v2.1.16/XMCLib/inc/xmc4_scu.h ****  * register. User can choose either fPLL or fUSBPLL clock as a source for USB clock. 
 520:/opt/XMClib/XMC_Peripheral_Library_v2.1.16/XMCLib/inc/xmc4_scu.h ****  * Use type \a XMC_SCU_CLOCK_USBCLKSRC_t for accessing these enum parameters.
 521:/opt/XMClib/XMC_Peripheral_Library_v2.1.16/XMCLib/inc/xmc4_scu.h ****  */ 
 522:/opt/XMClib/XMC_Peripheral_Library_v2.1.16/XMCLib/inc/xmc4_scu.h **** typedef enum XMC_SCU_CLOCK_USBCLKSRC
 523:/opt/XMClib/XMC_Peripheral_Library_v2.1.16/XMCLib/inc/xmc4_scu.h **** {
 524:/opt/XMClib/XMC_Peripheral_Library_v2.1.16/XMCLib/inc/xmc4_scu.h ****   XMC_SCU_CLOCK_USBCLKSRC_USBPLL = (0UL << SCU_CLK_USBCLKCR_USBSEL_Pos), /**< USB PLL(fUSB PLL) as 
 525:/opt/XMClib/XMC_Peripheral_Library_v2.1.16/XMCLib/inc/xmc4_scu.h ****                                                                            source for USB clock (fU
 526:/opt/XMClib/XMC_Peripheral_Library_v2.1.16/XMCLib/inc/xmc4_scu.h ****   XMC_SCU_CLOCK_USBCLKSRC_SYSPLL = (1UL << SCU_CLK_USBCLKCR_USBSEL_Pos)  /**< Main PLL output (fPLL
 527:/opt/XMClib/XMC_Peripheral_Library_v2.1.16/XMCLib/inc/xmc4_scu.h ****                                                                            source for USB clock (fU
 528:/opt/XMClib/XMC_Peripheral_Library_v2.1.16/XMCLib/inc/xmc4_scu.h **** } XMC_SCU_CLOCK_USBCLKSRC_t;
 529:/opt/XMClib/XMC_Peripheral_Library_v2.1.16/XMCLib/inc/xmc4_scu.h **** 
 530:/opt/XMClib/XMC_Peripheral_Library_v2.1.16/XMCLib/inc/xmc4_scu.h **** #if defined(ECAT0) 
 531:/opt/XMClib/XMC_Peripheral_Library_v2.1.16/XMCLib/inc/xmc4_scu.h **** /**
 532:/opt/XMClib/XMC_Peripheral_Library_v2.1.16/XMCLib/inc/xmc4_scu.h ****  * Defines options for selecting the ECAT clock source.
 533:/opt/XMClib/XMC_Peripheral_Library_v2.1.16/XMCLib/inc/xmc4_scu.h ****  */ 
 534:/opt/XMClib/XMC_Peripheral_Library_v2.1.16/XMCLib/inc/xmc4_scu.h **** typedef enum XMC_SCU_CLOCK_ECATCLKSRC
 535:/opt/XMClib/XMC_Peripheral_Library_v2.1.16/XMCLib/inc/xmc4_scu.h **** {
 536:/opt/XMClib/XMC_Peripheral_Library_v2.1.16/XMCLib/inc/xmc4_scu.h ****   XMC_SCU_CLOCK_ECATCLKSRC_USBPLL = (0UL << SCU_CLK_ECATCLKCR_ECATSEL_Pos), /**< USB PLL (fUSBPLL) 
 537:/opt/XMClib/XMC_Peripheral_Library_v2.1.16/XMCLib/inc/xmc4_scu.h ****   XMC_SCU_CLOCK_ECATCLKSRC_SYSPLL = (1UL << SCU_CLK_ECATCLKCR_ECATSEL_Pos)  /**< Main PLL output (f
 538:/opt/XMClib/XMC_Peripheral_Library_v2.1.16/XMCLib/inc/xmc4_scu.h **** } XMC_SCU_CLOCK_ECATCLKSRC_t;
 539:/opt/XMClib/XMC_Peripheral_Library_v2.1.16/XMCLib/inc/xmc4_scu.h **** #endif
 540:/opt/XMClib/XMC_Peripheral_Library_v2.1.16/XMCLib/inc/xmc4_scu.h **** 
 541:/opt/XMClib/XMC_Peripheral_Library_v2.1.16/XMCLib/inc/xmc4_scu.h **** /**
 542:/opt/XMClib/XMC_Peripheral_Library_v2.1.16/XMCLib/inc/xmc4_scu.h ****  *  Defines options for selecting the source of WDT clock(fWDT). These enums are used to configure 
 543:/opt/XMClib/XMC_Peripheral_Library_v2.1.16/XMCLib/inc/xmc4_scu.h ****  *  register. User can choose either fOFI or fPLL or fSTDBY clock as a source for WDT clock. 
 544:/opt/XMClib/XMC_Peripheral_Library_v2.1.16/XMCLib/inc/xmc4_scu.h ****  *  Use type \a XMC_SCU_CLOCK_USBCLKSRC_t for accessing these enum parameters.
 545:/opt/XMClib/XMC_Peripheral_Library_v2.1.16/XMCLib/inc/xmc4_scu.h ****  */ 
 546:/opt/XMClib/XMC_Peripheral_Library_v2.1.16/XMCLib/inc/xmc4_scu.h **** typedef enum XMC_SCU_CLOCK_WDTCLKSRC
 547:/opt/XMClib/XMC_Peripheral_Library_v2.1.16/XMCLib/inc/xmc4_scu.h **** {
 548:/opt/XMClib/XMC_Peripheral_Library_v2.1.16/XMCLib/inc/xmc4_scu.h ****   XMC_SCU_CLOCK_WDTCLKSRC_OFI = (0UL << SCU_CLK_WDTCLKCR_WDTSEL_Pos),  /**< Internal Fast Clock 
 549:/opt/XMClib/XMC_Peripheral_Library_v2.1.16/XMCLib/inc/xmc4_scu.h ****                                                                            (fOFI) as the source for
 550:/opt/XMClib/XMC_Peripheral_Library_v2.1.16/XMCLib/inc/xmc4_scu.h ****   XMC_SCU_CLOCK_WDTCLKSRC_STDBY = (1UL << SCU_CLK_WDTCLKCR_WDTSEL_Pos), /**< Standby clock 
 551:/opt/XMClib/XMC_Peripheral_Library_v2.1.16/XMCLib/inc/xmc4_scu.h ****                                                                            (fSTDBY) as the source f
 552:/opt/XMClib/XMC_Peripheral_Library_v2.1.16/XMCLib/inc/xmc4_scu.h ****   XMC_SCU_CLOCK_WDTCLKSRC_PLL = (2UL << SCU_CLK_WDTCLKCR_WDTSEL_Pos)   /**< PLL output (fPLL) as th
 553:/opt/XMClib/XMC_Peripheral_Library_v2.1.16/XMCLib/inc/xmc4_scu.h ****                                                                            source for WDT clock (fW
 554:/opt/XMClib/XMC_Peripheral_Library_v2.1.16/XMCLib/inc/xmc4_scu.h **** } XMC_SCU_CLOCK_WDTCLKSRC_t;
 555:/opt/XMClib/XMC_Peripheral_Library_v2.1.16/XMCLib/inc/xmc4_scu.h **** 
 556:/opt/XMClib/XMC_Peripheral_Library_v2.1.16/XMCLib/inc/xmc4_scu.h **** /**
 557:/opt/XMClib/XMC_Peripheral_Library_v2.1.16/XMCLib/inc/xmc4_scu.h ****  *  Defines options for selecting the source of external clock out (fEXT). These enums are used to 
 558:/opt/XMClib/XMC_Peripheral_Library_v2.1.16/XMCLib/inc/xmc4_scu.h ****  *  register. User can choose either fSYS or fPLL or fUSBPLL clock as a source for external clock o
 559:/opt/XMClib/XMC_Peripheral_Library_v2.1.16/XMCLib/inc/xmc4_scu.h ****  *  Use type \a XMC_SCU_CLOCK_EXTOUTCLKSRC_t for accessing these enum parameters.
 560:/opt/XMClib/XMC_Peripheral_Library_v2.1.16/XMCLib/inc/xmc4_scu.h ****  */ 
 561:/opt/XMClib/XMC_Peripheral_Library_v2.1.16/XMCLib/inc/xmc4_scu.h **** typedef enum XMC_SCU_CLOCK_EXTOUTCLKSRC
 562:/opt/XMClib/XMC_Peripheral_Library_v2.1.16/XMCLib/inc/xmc4_scu.h **** {
 563:/opt/XMClib/XMC_Peripheral_Library_v2.1.16/XMCLib/inc/xmc4_scu.h ****   XMC_SCU_CLOCK_EXTOUTCLKSRC_SYS = (0UL << SCU_CLK_EXTCLKCR_ECKSEL_Pos),  /**< System clock (fSYS) 
 564:/opt/XMClib/XMC_Peripheral_Library_v2.1.16/XMCLib/inc/xmc4_scu.h ****                                                                             the source for external
 565:/opt/XMClib/XMC_Peripheral_Library_v2.1.16/XMCLib/inc/xmc4_scu.h ****   XMC_SCU_CLOCK_EXTOUTCLKSRC_USB = (2UL << SCU_CLK_EXTCLKCR_ECKSEL_Pos), /**< USB PLL output(fUSB P
 566:/opt/XMClib/XMC_Peripheral_Library_v2.1.16/XMCLib/inc/xmc4_scu.h ****                                                                            source for external cloc
 567:/opt/XMClib/XMC_Peripheral_Library_v2.1.16/XMCLib/inc/xmc4_scu.h ****   XMC_SCU_CLOCK_EXTOUTCLKSRC_PLL = (3UL << SCU_CLK_EXTCLKCR_ECKSEL_Pos), /**< Main PLL output(fPLL)
 568:/opt/XMClib/XMC_Peripheral_Library_v2.1.16/XMCLib/inc/xmc4_scu.h ****                                                                            source for external cloc
 569:/opt/XMClib/XMC_Peripheral_Library_v2.1.16/XMCLib/inc/xmc4_scu.h **** #if ((UC_SERIES == XMC42) || (UC_SERIES == XMC41))
 570:/opt/XMClib/XMC_Peripheral_Library_v2.1.16/XMCLib/inc/xmc4_scu.h ****   XMC_SCU_CLOCK_EXTOUTCLKSRC_STDBY = (4UL << SCU_CLK_EXTCLKCR_ECKSEL_Pos), /**< Standby clock(fSTDB
 571:/opt/XMClib/XMC_Peripheral_Library_v2.1.16/XMCLib/inc/xmc4_scu.h ****                                                                            source for external cloc
 572:/opt/XMClib/XMC_Peripheral_Library_v2.1.16/XMCLib/inc/xmc4_scu.h **** #endif
 573:/opt/XMClib/XMC_Peripheral_Library_v2.1.16/XMCLib/inc/xmc4_scu.h **** } XMC_SCU_CLOCK_EXTOUTCLKSRC_t;
 574:/opt/XMClib/XMC_Peripheral_Library_v2.1.16/XMCLib/inc/xmc4_scu.h **** 
 575:/opt/XMClib/XMC_Peripheral_Library_v2.1.16/XMCLib/inc/xmc4_scu.h **** /**
 576:/opt/XMClib/XMC_Peripheral_Library_v2.1.16/XMCLib/inc/xmc4_scu.h ****  *  Defines options for selecting the source of RTC Clock (fRTC). These enums are used to configure
 577:/opt/XMClib/XMC_Peripheral_Library_v2.1.16/XMCLib/inc/xmc4_scu.h ****  *  User can choose either fOSI or fULP clock as a source for RTC Clock (fRTC).
 578:/opt/XMClib/XMC_Peripheral_Library_v2.1.16/XMCLib/inc/xmc4_scu.h ****  *  Use type \a XMC_SCU_HIB_RTCCLKSRC_t for accessing these enum parameters.
 579:/opt/XMClib/XMC_Peripheral_Library_v2.1.16/XMCLib/inc/xmc4_scu.h ****  */
 580:/opt/XMClib/XMC_Peripheral_Library_v2.1.16/XMCLib/inc/xmc4_scu.h **** typedef enum XMC_SCU_HIB_RTCCLKSRC
 581:/opt/XMClib/XMC_Peripheral_Library_v2.1.16/XMCLib/inc/xmc4_scu.h **** {
 582:/opt/XMClib/XMC_Peripheral_Library_v2.1.16/XMCLib/inc/xmc4_scu.h ****   XMC_SCU_HIB_RTCCLKSRC_OSI = (0UL << SCU_HIBERNATE_HDCR_RCS_Pos), /**< Internal Slow Clock
 583:/opt/XMClib/XMC_Peripheral_Library_v2.1.16/XMCLib/inc/xmc4_scu.h ****                                                                          (fOSI) as the source for R
 584:/opt/XMClib/XMC_Peripheral_Library_v2.1.16/XMCLib/inc/xmc4_scu.h ****   XMC_SCU_HIB_RTCCLKSRC_ULP = (1UL << SCU_HIBERNATE_HDCR_RCS_Pos) /**< Ultra Low Power Clock (fULP)
 585:/opt/XMClib/XMC_Peripheral_Library_v2.1.16/XMCLib/inc/xmc4_scu.h ****                                                                         as the source for RTC Clock
 586:/opt/XMClib/XMC_Peripheral_Library_v2.1.16/XMCLib/inc/xmc4_scu.h **** } XMC_SCU_HIB_RTCCLKSRC_t;
 587:/opt/XMClib/XMC_Peripheral_Library_v2.1.16/XMCLib/inc/xmc4_scu.h **** 
 588:/opt/XMClib/XMC_Peripheral_Library_v2.1.16/XMCLib/inc/xmc4_scu.h **** /**
 589:/opt/XMClib/XMC_Peripheral_Library_v2.1.16/XMCLib/inc/xmc4_scu.h ****  *  Defines options for selecting the source of Standby Clock (fSTDBY). These enums are used to con
 590:/opt/XMClib/XMC_Peripheral_Library_v2.1.16/XMCLib/inc/xmc4_scu.h ****  *  register. User can choose either fOSI or fULP clock as a source for Standby Clock (fSTDBY).
 591:/opt/XMClib/XMC_Peripheral_Library_v2.1.16/XMCLib/inc/xmc4_scu.h ****  *  Use type \a XMC_SCU_HIB_STDBYCLKSRC_t for accessing these enum parameters.
 592:/opt/XMClib/XMC_Peripheral_Library_v2.1.16/XMCLib/inc/xmc4_scu.h ****  */
 593:/opt/XMClib/XMC_Peripheral_Library_v2.1.16/XMCLib/inc/xmc4_scu.h **** typedef enum XMC_SCU_HIB_STDBYCLKSRC
 594:/opt/XMClib/XMC_Peripheral_Library_v2.1.16/XMCLib/inc/xmc4_scu.h **** {
 595:/opt/XMClib/XMC_Peripheral_Library_v2.1.16/XMCLib/inc/xmc4_scu.h ****   XMC_SCU_HIB_STDBYCLKSRC_OSI = (0UL << SCU_HIBERNATE_HDCR_STDBYSEL_Pos), /**< Internal Slow Clock 
 596:/opt/XMClib/XMC_Peripheral_Library_v2.1.16/XMCLib/inc/xmc4_scu.h ****                                                                           (fOSI) as the source for 
 597:/opt/XMClib/XMC_Peripheral_Library_v2.1.16/XMCLib/inc/xmc4_scu.h ****                                                                           (fSTDBY). */
 598:/opt/XMClib/XMC_Peripheral_Library_v2.1.16/XMCLib/inc/xmc4_scu.h ****   XMC_SCU_HIB_STDBYCLKSRC_OSCULP = (1UL << SCU_HIBERNATE_HDCR_STDBYSEL_Pos) /**< Ultra Low Power Cl
 599:/opt/XMClib/XMC_Peripheral_Library_v2.1.16/XMCLib/inc/xmc4_scu.h ****                                                                           (fULP) as the source for 
 600:/opt/XMClib/XMC_Peripheral_Library_v2.1.16/XMCLib/inc/xmc4_scu.h ****                                                                           (fSTDBY). */
 601:/opt/XMClib/XMC_Peripheral_Library_v2.1.16/XMCLib/inc/xmc4_scu.h **** } XMC_SCU_HIB_STDBYCLKSRC_t;
 602:/opt/XMClib/XMC_Peripheral_Library_v2.1.16/XMCLib/inc/xmc4_scu.h **** 
 603:/opt/XMClib/XMC_Peripheral_Library_v2.1.16/XMCLib/inc/xmc4_scu.h **** /**
 604:/opt/XMClib/XMC_Peripheral_Library_v2.1.16/XMCLib/inc/xmc4_scu.h ****  *  Defines options for backup clock trimming. These enums are used to configure \a AOTREN  \a FOTR
 605:/opt/XMClib/XMC_Peripheral_Library_v2.1.16/XMCLib/inc/xmc4_scu.h ****  *  PLLCON0 register. Use type \a XMC_SCU_CLOCK_BACKUP_TRIM_t for accessing these enum parameters.
 606:/opt/XMClib/XMC_Peripheral_Library_v2.1.16/XMCLib/inc/xmc4_scu.h ****  */
 607:/opt/XMClib/XMC_Peripheral_Library_v2.1.16/XMCLib/inc/xmc4_scu.h **** typedef enum XMC_SCU_CLOCK_FOFI_CALIBRATION_MODE
 608:/opt/XMClib/XMC_Peripheral_Library_v2.1.16/XMCLib/inc/xmc4_scu.h **** {
 609:/opt/XMClib/XMC_Peripheral_Library_v2.1.16/XMCLib/inc/xmc4_scu.h ****   XMC_SCU_CLOCK_FOFI_CALIBRATION_MODE_FACTORY   = 0UL,  /**< Factory Oscillator Calibration: 
 610:/opt/XMClib/XMC_Peripheral_Library_v2.1.16/XMCLib/inc/xmc4_scu.h ****                                                         Force adjustment of the internal oscillator
 611:/opt/XMClib/XMC_Peripheral_Library_v2.1.16/XMCLib/inc/xmc4_scu.h ****   XMC_SCU_CLOCK_FOFI_CALIBRATION_MODE_AUTOMATIC = 1UL   /**<  Automatic Oscillator Calibration adju
 612:/opt/XMClib/XMC_Peripheral_Library_v2.1.16/XMCLib/inc/xmc4_scu.h **** } XMC_SCU_CLOCK_FOFI_CALIBRATION_MODE_t;
 613:/opt/XMClib/XMC_Peripheral_Library_v2.1.16/XMCLib/inc/xmc4_scu.h **** 
 614:/opt/XMClib/XMC_Peripheral_Library_v2.1.16/XMCLib/inc/xmc4_scu.h **** 
 615:/opt/XMClib/XMC_Peripheral_Library_v2.1.16/XMCLib/inc/xmc4_scu.h **** /**
 616:/opt/XMClib/XMC_Peripheral_Library_v2.1.16/XMCLib/inc/xmc4_scu.h ****  *  Defines options for selecting device boot mode. These enums are used to configure \a SWCON bits
 617:/opt/XMClib/XMC_Peripheral_Library_v2.1.16/XMCLib/inc/xmc4_scu.h ****  *  User can choose among various boot modes by configuring SWCON bits.
 618:/opt/XMClib/XMC_Peripheral_Library_v2.1.16/XMCLib/inc/xmc4_scu.h ****  *  Use type \a XMC_SCU_BOOTMODE_t for accessing these enum parameters.
 619:/opt/XMClib/XMC_Peripheral_Library_v2.1.16/XMCLib/inc/xmc4_scu.h ****  */
 620:/opt/XMClib/XMC_Peripheral_Library_v2.1.16/XMCLib/inc/xmc4_scu.h **** typedef enum XMC_SCU_BOOTMODE 
 621:/opt/XMClib/XMC_Peripheral_Library_v2.1.16/XMCLib/inc/xmc4_scu.h **** {
 622:/opt/XMClib/XMC_Peripheral_Library_v2.1.16/XMCLib/inc/xmc4_scu.h ****   XMC_SCU_BOOTMODE_NORMAL     = (0UL << SCU_GENERAL_STCON_SWCON_Pos), /**< Boot from start of flash
 623:/opt/XMClib/XMC_Peripheral_Library_v2.1.16/XMCLib/inc/xmc4_scu.h ****   XMC_SCU_BOOTMODE_ASC_BSL    = (1UL << SCU_GENERAL_STCON_SWCON_Pos), /**< UART bootstrap. */
 624:/opt/XMClib/XMC_Peripheral_Library_v2.1.16/XMCLib/inc/xmc4_scu.h ****   XMC_SCU_BOOTMODE_BMI        = (2UL << SCU_GENERAL_STCON_SWCON_Pos), /**< Boot Mode Index - Custom
 625:/opt/XMClib/XMC_Peripheral_Library_v2.1.16/XMCLib/inc/xmc4_scu.h ****                                                                            sequence. */
 626:/opt/XMClib/XMC_Peripheral_Library_v2.1.16/XMCLib/inc/xmc4_scu.h ****   XMC_SCU_BOOTMODE_CAN_BSL    = (3UL << SCU_GENERAL_STCON_SWCON_Pos), /**< CAN bootstrap. */
 627:/opt/XMClib/XMC_Peripheral_Library_v2.1.16/XMCLib/inc/xmc4_scu.h ****   XMC_SCU_BOOTMODE_PSRAM_BOOT = (4UL << SCU_GENERAL_STCON_SWCON_Pos), /**< Boot from PSRAM. */
 628:/opt/XMClib/XMC_Peripheral_Library_v2.1.16/XMCLib/inc/xmc4_scu.h ****   XMC_SCU_BOOTMODE_ABM0       = (8UL << SCU_GENERAL_STCON_SWCON_Pos), /**< Boot from flash - fixed 
 629:/opt/XMClib/XMC_Peripheral_Library_v2.1.16/XMCLib/inc/xmc4_scu.h ****                                                                            address 0. */
 630:/opt/XMClib/XMC_Peripheral_Library_v2.1.16/XMCLib/inc/xmc4_scu.h ****   XMC_SCU_BOOTMODE_ABM1       = (12UL << SCU_GENERAL_STCON_SWCON_Pos), /**< Boot from flash - fixed
 631:/opt/XMClib/XMC_Peripheral_Library_v2.1.16/XMCLib/inc/xmc4_scu.h ****                                                                             address 1. */
 632:/opt/XMClib/XMC_Peripheral_Library_v2.1.16/XMCLib/inc/xmc4_scu.h ****   XMC_SCU_BOOTMODE_FABM       = (14UL << SCU_GENERAL_STCON_SWCON_Pos), /**< fallback Alternate Boot
 633:/opt/XMClib/XMC_Peripheral_Library_v2.1.16/XMCLib/inc/xmc4_scu.h ****                                                                             Try ABM-0 then try ABM-
 634:/opt/XMClib/XMC_Peripheral_Library_v2.1.16/XMCLib/inc/xmc4_scu.h **** } XMC_SCU_BOOTMODE_t;
 635:/opt/XMClib/XMC_Peripheral_Library_v2.1.16/XMCLib/inc/xmc4_scu.h **** 
 636:/opt/XMClib/XMC_Peripheral_Library_v2.1.16/XMCLib/inc/xmc4_scu.h **** 
 637:/opt/XMClib/XMC_Peripheral_Library_v2.1.16/XMCLib/inc/xmc4_scu.h **** /**
 638:/opt/XMClib/XMC_Peripheral_Library_v2.1.16/XMCLib/inc/xmc4_scu.h ****  *  Defines various PLL modes of operation. These enums are used to configure \a VCOBYP bit of \a P
 639:/opt/XMClib/XMC_Peripheral_Library_v2.1.16/XMCLib/inc/xmc4_scu.h ****  *  User can choose either normal or prescalar mode by configuring VCOBYP bit.
 640:/opt/XMClib/XMC_Peripheral_Library_v2.1.16/XMCLib/inc/xmc4_scu.h ****  *  Use type \a XMC_SCU_PLL_MODE_t for accessing these enum parameters.
 641:/opt/XMClib/XMC_Peripheral_Library_v2.1.16/XMCLib/inc/xmc4_scu.h ****  */
 642:/opt/XMClib/XMC_Peripheral_Library_v2.1.16/XMCLib/inc/xmc4_scu.h **** typedef enum XMC_SCU_CLOCK_SYSPLL_MODE
 643:/opt/XMClib/XMC_Peripheral_Library_v2.1.16/XMCLib/inc/xmc4_scu.h **** {
 644:/opt/XMClib/XMC_Peripheral_Library_v2.1.16/XMCLib/inc/xmc4_scu.h ****   XMC_SCU_CLOCK_SYSPLL_MODE_DISABLED, /**< fPLL derived from fOSC and PLL operating in prescalar mo
 645:/opt/XMClib/XMC_Peripheral_Library_v2.1.16/XMCLib/inc/xmc4_scu.h ****   XMC_SCU_CLOCK_SYSPLL_MODE_NORMAL,  /**< fPLL derived from fVCO and PLL operating in normal mode. 
 646:/opt/XMClib/XMC_Peripheral_Library_v2.1.16/XMCLib/inc/xmc4_scu.h ****   XMC_SCU_CLOCK_SYSPLL_MODE_PRESCALAR /**< fPLL derived from fOSC and PLL operating in prescalar mo
 647:/opt/XMClib/XMC_Peripheral_Library_v2.1.16/XMCLib/inc/xmc4_scu.h **** } XMC_SCU_CLOCK_SYSPLL_MODE_t;
 648:/opt/XMClib/XMC_Peripheral_Library_v2.1.16/XMCLib/inc/xmc4_scu.h **** 
 649:/opt/XMClib/XMC_Peripheral_Library_v2.1.16/XMCLib/inc/xmc4_scu.h **** /** 
 650:/opt/XMClib/XMC_Peripheral_Library_v2.1.16/XMCLib/inc/xmc4_scu.h ****  *  Defines the source of the system clock and peripherals clock gating in SLEEP state.
 651:/opt/XMClib/XMC_Peripheral_Library_v2.1.16/XMCLib/inc/xmc4_scu.h ****  *  Use this enum as parameter of XMC_SCU_CLOCK_SetSleepConfig before going to SLEEP state.
 652:/opt/XMClib/XMC_Peripheral_Library_v2.1.16/XMCLib/inc/xmc4_scu.h ****  *
 653:/opt/XMClib/XMC_Peripheral_Library_v2.1.16/XMCLib/inc/xmc4_scu.h ****  *  The SLEEP state of the system corresponds to the SLEEP state of the CPU. The state is
 654:/opt/XMClib/XMC_Peripheral_Library_v2.1.16/XMCLib/inc/xmc4_scu.h ****  *  entered via WFI or WFE instruction of the CPU. In this state the clock to the CPU is
 655:/opt/XMClib/XMC_Peripheral_Library_v2.1.16/XMCLib/inc/xmc4_scu.h ****  *  stopped. Peripherals are only clocked when configured to stay enabled. 
 656:/opt/XMClib/XMC_Peripheral_Library_v2.1.16/XMCLib/inc/xmc4_scu.h ****  *
 657:/opt/XMClib/XMC_Peripheral_Library_v2.1.16/XMCLib/inc/xmc4_scu.h ****  *  Peripherals can continue to operate unaffected and eventually generate an event to
 658:/opt/XMClib/XMC_Peripheral_Library_v2.1.16/XMCLib/inc/xmc4_scu.h ****  *  wake-up the CPU. Any interrupt to the NVIC will bring the CPU back to operation. The
 659:/opt/XMClib/XMC_Peripheral_Library_v2.1.16/XMCLib/inc/xmc4_scu.h ****  *  clock tree upon exit from SLEEP state is restored to what it was before entry into SLEEP
 660:/opt/XMClib/XMC_Peripheral_Library_v2.1.16/XMCLib/inc/xmc4_scu.h ****  *  state.
 661:/opt/XMClib/XMC_Peripheral_Library_v2.1.16/XMCLib/inc/xmc4_scu.h ****  *  
 662:/opt/XMClib/XMC_Peripheral_Library_v2.1.16/XMCLib/inc/xmc4_scu.h ****  */
 663:/opt/XMClib/XMC_Peripheral_Library_v2.1.16/XMCLib/inc/xmc4_scu.h **** typedef enum XMC_SCU_CLOCK_SLEEP_MODE_CONFIG
 664:/opt/XMClib/XMC_Peripheral_Library_v2.1.16/XMCLib/inc/xmc4_scu.h **** {
 665:/opt/XMClib/XMC_Peripheral_Library_v2.1.16/XMCLib/inc/xmc4_scu.h ****   XMC_SCU_CLOCK_SLEEP_MODE_CONFIG_SYSCLK_FOFI = 0,  /**< fOFI used as system clock source in SLEEP 
 666:/opt/XMClib/XMC_Peripheral_Library_v2.1.16/XMCLib/inc/xmc4_scu.h ****   XMC_SCU_CLOCK_SLEEP_MODE_CONFIG_SYSCLK_FPLL = SCU_CLK_SLEEPCR_SYSSEL_Msk,  /**< fPLL used as syst
 667:/opt/XMClib/XMC_Peripheral_Library_v2.1.16/XMCLib/inc/xmc4_scu.h **** #if defined(USB0)
 668:/opt/XMClib/XMC_Peripheral_Library_v2.1.16/XMCLib/inc/xmc4_scu.h ****   XMC_SCU_CLOCK_SLEEP_MODE_CONFIG_DISABLE_USB = 0,  /**< USB clock disabled in SLEEP state */
 669:/opt/XMClib/XMC_Peripheral_Library_v2.1.16/XMCLib/inc/xmc4_scu.h ****   XMC_SCU_CLOCK_SLEEP_MODE_CONFIG_ENABLE_USB = SCU_CLK_SLEEPCR_USBCR_Msk,  /**< USB clock enabled i
 670:/opt/XMClib/XMC_Peripheral_Library_v2.1.16/XMCLib/inc/xmc4_scu.h **** #endif  
 671:/opt/XMClib/XMC_Peripheral_Library_v2.1.16/XMCLib/inc/xmc4_scu.h **** #if defined(SDMMC)
 672:/opt/XMClib/XMC_Peripheral_Library_v2.1.16/XMCLib/inc/xmc4_scu.h ****   XMC_SCU_CLOCK_SLEEP_MODE_CONFIG_DISABLE_SDMMC = 0,/**< SDMMC clock disabled in SLEEP state */
 673:/opt/XMClib/XMC_Peripheral_Library_v2.1.16/XMCLib/inc/xmc4_scu.h ****   XMC_SCU_CLOCK_SLEEP_MODE_CONFIG_ENABLE_SDMMC = SCU_CLK_SLEEPCR_MMCCR_Msk,/**< SDMMC clock enabled
 674:/opt/XMClib/XMC_Peripheral_Library_v2.1.16/XMCLib/inc/xmc4_scu.h **** #endif  
 675:/opt/XMClib/XMC_Peripheral_Library_v2.1.16/XMCLib/inc/xmc4_scu.h **** #if defined(ETH0)
 676:/opt/XMClib/XMC_Peripheral_Library_v2.1.16/XMCLib/inc/xmc4_scu.h ****   XMC_SCU_CLOCK_SLEEP_MODE_CONFIG_DISABLE_ETH = 0,  /**< ETH clock disabled in SLEEP state */
 677:/opt/XMClib/XMC_Peripheral_Library_v2.1.16/XMCLib/inc/xmc4_scu.h ****   XMC_SCU_CLOCK_SLEEP_MODE_CONFIG_ENABLE_ETH = SCU_CLK_SLEEPCR_ETH0CR_Msk,  /**< ETH clock enabled 
 678:/opt/XMClib/XMC_Peripheral_Library_v2.1.16/XMCLib/inc/xmc4_scu.h **** #endif  
 679:/opt/XMClib/XMC_Peripheral_Library_v2.1.16/XMCLib/inc/xmc4_scu.h **** #if defined(EBU)
 680:/opt/XMClib/XMC_Peripheral_Library_v2.1.16/XMCLib/inc/xmc4_scu.h ****   XMC_SCU_CLOCK_SLEEP_MODE_CONFIG_DISABLE_EBU = 0,  /**< EBU clock disabled in SLEEP state */
 681:/opt/XMClib/XMC_Peripheral_Library_v2.1.16/XMCLib/inc/xmc4_scu.h ****   XMC_SCU_CLOCK_SLEEP_MODE_CONFIG_ENABLE_EBU = SCU_CLK_SLEEPCR_EBUCR_Msk,  /**< EBU clock enabled i
 682:/opt/XMClib/XMC_Peripheral_Library_v2.1.16/XMCLib/inc/xmc4_scu.h **** #endif  
 683:/opt/XMClib/XMC_Peripheral_Library_v2.1.16/XMCLib/inc/xmc4_scu.h ****   XMC_SCU_CLOCK_SLEEP_MODE_CONFIG_DISABLED_CCU = 0,  /**< CCU clock disabled in SLEEP state */
 684:/opt/XMClib/XMC_Peripheral_Library_v2.1.16/XMCLib/inc/xmc4_scu.h ****   XMC_SCU_CLOCK_SLEEP_MODE_CONFIG_ENABLE_CCU = SCU_CLK_SLEEPCR_CCUCR_Msk,  /**< CCU clock enabled i
 685:/opt/XMClib/XMC_Peripheral_Library_v2.1.16/XMCLib/inc/xmc4_scu.h ****   XMC_SCU_CLOCK_SLEEP_MODE_CONFIG_DISABLED_WDT = 0,  /**< WDT clock disabled in SLEEP state */
 686:/opt/XMClib/XMC_Peripheral_Library_v2.1.16/XMCLib/inc/xmc4_scu.h ****   XMC_SCU_CLOCK_SLEEP_MODE_CONFIG_ENABLE_WDT = SCU_CLK_SLEEPCR_WDTCR_Msk,  /**< WDT clock enabled i
 687:/opt/XMClib/XMC_Peripheral_Library_v2.1.16/XMCLib/inc/xmc4_scu.h **** } XMC_SCU_CLOCK_SLEEP_MODE_CONFIG_t;
 688:/opt/XMClib/XMC_Peripheral_Library_v2.1.16/XMCLib/inc/xmc4_scu.h **** 
 689:/opt/XMClib/XMC_Peripheral_Library_v2.1.16/XMCLib/inc/xmc4_scu.h **** /** 
 690:/opt/XMClib/XMC_Peripheral_Library_v2.1.16/XMCLib/inc/xmc4_scu.h ****  *  Defines the source of the system clock and peripherals clock gating in DEEPSLEEP state.
 691:/opt/XMClib/XMC_Peripheral_Library_v2.1.16/XMCLib/inc/xmc4_scu.h ****  *  In addition the state of FLASH, PLL and PLLVCO during DEEPSLEEP state.
 692:/opt/XMClib/XMC_Peripheral_Library_v2.1.16/XMCLib/inc/xmc4_scu.h ****  *  Use this enum as parameter of XMC_SCU_CLOCK_SetDeepSleepConfig before going to DEEPSLEEP state.
 693:/opt/XMClib/XMC_Peripheral_Library_v2.1.16/XMCLib/inc/xmc4_scu.h ****  *
 694:/opt/XMClib/XMC_Peripheral_Library_v2.1.16/XMCLib/inc/xmc4_scu.h ****  *  The DEEPSLEEP state of the system corresponds to the DEEPSLEEP state of the CPU. The state is
 695:/opt/XMClib/XMC_Peripheral_Library_v2.1.16/XMCLib/inc/xmc4_scu.h ****  *  entered via WFI or WFE instruction of the CPU. In this state the clock to the CPU is
 696:/opt/XMClib/XMC_Peripheral_Library_v2.1.16/XMCLib/inc/xmc4_scu.h ****  *  stopped. 
 697:/opt/XMClib/XMC_Peripheral_Library_v2.1.16/XMCLib/inc/xmc4_scu.h ****  *
 698:/opt/XMClib/XMC_Peripheral_Library_v2.1.16/XMCLib/inc/xmc4_scu.h ****  *  In Deep Sleep state the OSC_HP and the PLL may be switched off. The wake-up logic in the NVIC i
 699:/opt/XMClib/XMC_Peripheral_Library_v2.1.16/XMCLib/inc/xmc4_scu.h ****  *  by a free-running clock. Peripherals are only clocked when configured to stay enabled. 
 700:/opt/XMClib/XMC_Peripheral_Library_v2.1.16/XMCLib/inc/xmc4_scu.h ****  *  Configuration of peripherals and any SRAM content is preserved.
 701:/opt/XMClib/XMC_Peripheral_Library_v2.1.16/XMCLib/inc/xmc4_scu.h ****  *  The Flash module can be put into low-power mode to achieve a further power reduction.
 702:/opt/XMClib/XMC_Peripheral_Library_v2.1.16/XMCLib/inc/xmc4_scu.h ****  *  On wake-up Flash module will be restarted again before instructions or data access is possible.
 703:/opt/XMClib/XMC_Peripheral_Library_v2.1.16/XMCLib/inc/xmc4_scu.h ****  *  Any interrupt will bring the system back to operation via the NVIC.The clock setup before
 704:/opt/XMClib/XMC_Peripheral_Library_v2.1.16/XMCLib/inc/xmc4_scu.h ****  *  entering Deep Sleep state is restored upon wake-up.
 705:/opt/XMClib/XMC_Peripheral_Library_v2.1.16/XMCLib/inc/xmc4_scu.h ****  */
 706:/opt/XMClib/XMC_Peripheral_Library_v2.1.16/XMCLib/inc/xmc4_scu.h **** typedef enum XMC_SCU_CLOCK_DEEPSLEEP_MODE_CONFIG
 707:/opt/XMClib/XMC_Peripheral_Library_v2.1.16/XMCLib/inc/xmc4_scu.h **** {
 708:/opt/XMClib/XMC_Peripheral_Library_v2.1.16/XMCLib/inc/xmc4_scu.h ****   XMC_SCU_CLOCK_DEEPSLEEP_MODE_CONFIG_SYSCLK_FOFI = 0,  /**< fOFI used as system clock source in DE
 709:/opt/XMClib/XMC_Peripheral_Library_v2.1.16/XMCLib/inc/xmc4_scu.h ****   XMC_SCU_CLOCK_DEEPSLEEP_MODE_CONFIG_SYSCLK_FPLL = SCU_CLK_DSLEEPCR_SYSSEL_Msk,  /**< fPLL used as
 710:/opt/XMClib/XMC_Peripheral_Library_v2.1.16/XMCLib/inc/xmc4_scu.h ****   XMC_SCU_CLOCK_DEEPSLEEP_MODE_CONFIG_FLASH_POWERDOWN = SCU_CLK_DSLEEPCR_FPDN_Msk,/**< Flash power 
 711:/opt/XMClib/XMC_Peripheral_Library_v2.1.16/XMCLib/inc/xmc4_scu.h ****   XMC_SCU_CLOCK_DEEPSLEEP_MODE_CONFIG_PLL_POWERDOWN = SCU_CLK_DSLEEPCR_PLLPDN_Msk,  /**<  Switch of
 712:/opt/XMClib/XMC_Peripheral_Library_v2.1.16/XMCLib/inc/xmc4_scu.h ****   XMC_SCU_CLOCK_DEEPSLEEP_MODE_CONFIG_VCO_POWERDOWN = SCU_CLK_DSLEEPCR_VCOPDN_Msk,  /**<  Switch of
 713:/opt/XMClib/XMC_Peripheral_Library_v2.1.16/XMCLib/inc/xmc4_scu.h **** #if defined(USB0)
 714:/opt/XMClib/XMC_Peripheral_Library_v2.1.16/XMCLib/inc/xmc4_scu.h ****   XMC_SCU_CLOCK_DEEPSLEEP_MODE_CONFIG_DISABLE_USB = 0,  /**< USB clock disabled in DEEPSLEEP state 
 715:/opt/XMClib/XMC_Peripheral_Library_v2.1.16/XMCLib/inc/xmc4_scu.h ****   XMC_SCU_CLOCK_DEEPSLEEP_MODE_CONFIG_ENABLE_USB = SCU_CLK_DSLEEPCR_USBCR_Msk,  /**< USB clock enab
 716:/opt/XMClib/XMC_Peripheral_Library_v2.1.16/XMCLib/inc/xmc4_scu.h **** #endif  
 717:/opt/XMClib/XMC_Peripheral_Library_v2.1.16/XMCLib/inc/xmc4_scu.h **** #if defined(SDMMC)
 718:/opt/XMClib/XMC_Peripheral_Library_v2.1.16/XMCLib/inc/xmc4_scu.h ****   XMC_SCU_CLOCK_DEEPSLEEP_MODE_CONFIG_DISABLE_SDMMC = 0,/**< SDMMC clock disabled in DEEPSLEEP stat
 719:/opt/XMClib/XMC_Peripheral_Library_v2.1.16/XMCLib/inc/xmc4_scu.h ****   XMC_SCU_CLOCK_DEEPSLEEP_MODE_CONFIG_ENABLE_SDMMC = SCU_CLK_DSLEEPCR_MMCCR_Msk,/**< SDMMC clock en
 720:/opt/XMClib/XMC_Peripheral_Library_v2.1.16/XMCLib/inc/xmc4_scu.h **** #endif  
 721:/opt/XMClib/XMC_Peripheral_Library_v2.1.16/XMCLib/inc/xmc4_scu.h **** #if defined(ETH0)
 722:/opt/XMClib/XMC_Peripheral_Library_v2.1.16/XMCLib/inc/xmc4_scu.h ****   XMC_SCU_CLOCK_DEEPSLEEP_MODE_CONFIG_DISABLE_ETH = 0,  /**< ETH clock disabled in DEEPSLEEP state 
 723:/opt/XMClib/XMC_Peripheral_Library_v2.1.16/XMCLib/inc/xmc4_scu.h ****   XMC_SCU_CLOCK_DEEPSLEEP_MODE_CONFIG_ENABLE_ETH = SCU_CLK_DSLEEPCR_ETH0CR_Msk,  /**< ETH clock ena
 724:/opt/XMClib/XMC_Peripheral_Library_v2.1.16/XMCLib/inc/xmc4_scu.h **** #endif  
 725:/opt/XMClib/XMC_Peripheral_Library_v2.1.16/XMCLib/inc/xmc4_scu.h **** #if defined(EBU)
 726:/opt/XMClib/XMC_Peripheral_Library_v2.1.16/XMCLib/inc/xmc4_scu.h ****   XMC_SCU_CLOCK_DEEPSLEEP_MODE_CONFIG_DISABLE_EBU = 0,  /**< EBU clock disabled in DEEPSLEEP state 
 727:/opt/XMClib/XMC_Peripheral_Library_v2.1.16/XMCLib/inc/xmc4_scu.h ****   XMC_SCU_CLOCK_DEEPSLEEP_MODE_CONFIG_ENABLE_EBU = SCU_CLK_DSLEEPCR_EBUCR_Msk,  /**< EBU clock enab
 728:/opt/XMClib/XMC_Peripheral_Library_v2.1.16/XMCLib/inc/xmc4_scu.h **** #endif  
 729:/opt/XMClib/XMC_Peripheral_Library_v2.1.16/XMCLib/inc/xmc4_scu.h ****   XMC_SCU_CLOCK_DEEPSLEEP_MODE_CONFIG_DISABLE_CCU = 0,  /**< CCU clock disabled in DEEPSLEEP state 
 730:/opt/XMClib/XMC_Peripheral_Library_v2.1.16/XMCLib/inc/xmc4_scu.h ****   XMC_SCU_CLOCK_DEEPSLEEP_MODE_CONFIG_ENABLE_CCU = SCU_CLK_DSLEEPCR_CCUCR_Msk,  /**< CCU clock enab
 731:/opt/XMClib/XMC_Peripheral_Library_v2.1.16/XMCLib/inc/xmc4_scu.h ****   XMC_SCU_CLOCK_DEEPSLEEP_MODE_CONFIG_DISABLE_WDT = 0,  /**< WDT clock disabled in DEEPSLEEP state 
 732:/opt/XMClib/XMC_Peripheral_Library_v2.1.16/XMCLib/inc/xmc4_scu.h ****   XMC_SCU_CLOCK_DEEPSLEEP_MODE_CONFIG_ENABLE_WDT = SCU_CLK_DSLEEPCR_WDTCR_Msk,  /**< WDT clock enab
 733:/opt/XMClib/XMC_Peripheral_Library_v2.1.16/XMCLib/inc/xmc4_scu.h **** } XMC_SCU_CLOCK_DEEPSLEEP_MODE_CONFIG_t;
 734:/opt/XMClib/XMC_Peripheral_Library_v2.1.16/XMCLib/inc/xmc4_scu.h **** 
 735:/opt/XMClib/XMC_Peripheral_Library_v2.1.16/XMCLib/inc/xmc4_scu.h **** /** 
 736:/opt/XMClib/XMC_Peripheral_Library_v2.1.16/XMCLib/inc/xmc4_scu.h ****  * Defines status of EVR13 regulator
 737:/opt/XMClib/XMC_Peripheral_Library_v2.1.16/XMCLib/inc/xmc4_scu.h ****  */
 738:/opt/XMClib/XMC_Peripheral_Library_v2.1.16/XMCLib/inc/xmc4_scu.h **** typedef enum XMC_SCU_POWER_EVR_STATUS
 739:/opt/XMClib/XMC_Peripheral_Library_v2.1.16/XMCLib/inc/xmc4_scu.h **** {
 740:/opt/XMClib/XMC_Peripheral_Library_v2.1.16/XMCLib/inc/xmc4_scu.h ****   XMC_SCU_POWER_EVR_STATUS_OK = 0, /**< EVR13 regulator No overvoltage condition */
 741:/opt/XMClib/XMC_Peripheral_Library_v2.1.16/XMCLib/inc/xmc4_scu.h ****   XMC_SCU_POWER_EVR_STATUS_EVR13_OVERVOLTAGE = SCU_POWER_EVRSTAT_OV13_Msk /**< EVR13 regulator is i
 742:/opt/XMClib/XMC_Peripheral_Library_v2.1.16/XMCLib/inc/xmc4_scu.h **** } XMC_SCU_POWER_EVR_STATUS_t;
 743:/opt/XMClib/XMC_Peripheral_Library_v2.1.16/XMCLib/inc/xmc4_scu.h **** 
 744:/opt/XMClib/XMC_Peripheral_Library_v2.1.16/XMCLib/inc/xmc4_scu.h **** /**
 745:/opt/XMClib/XMC_Peripheral_Library_v2.1.16/XMCLib/inc/xmc4_scu.h ****  * Define status of external hibernate control  
 746:/opt/XMClib/XMC_Peripheral_Library_v2.1.16/XMCLib/inc/xmc4_scu.h ****  */
 747:/opt/XMClib/XMC_Peripheral_Library_v2.1.16/XMCLib/inc/xmc4_scu.h **** typedef enum XMC_SCU_HIB_CTRL_STATUS
 748:/opt/XMClib/XMC_Peripheral_Library_v2.1.16/XMCLib/inc/xmc4_scu.h **** {
 749:/opt/XMClib/XMC_Peripheral_Library_v2.1.16/XMCLib/inc/xmc4_scu.h ****   XMC_SCU_HIB_CTRL_STATUS_NO_ACTIVE = 0, /**< Hibernate not driven active to pads */
 750:/opt/XMClib/XMC_Peripheral_Library_v2.1.16/XMCLib/inc/xmc4_scu.h ****   XMC_SCU_HIB_CTRL_STATUS_ACTIVE = SCU_HIBERNATE_HDSTAT_HIBNOUT_Msk, /**< Hibernate driven active t
 751:/opt/XMClib/XMC_Peripheral_Library_v2.1.16/XMCLib/inc/xmc4_scu.h **** } XMC_SCU_HIB_CTRL_STATUS_t;
 752:/opt/XMClib/XMC_Peripheral_Library_v2.1.16/XMCLib/inc/xmc4_scu.h **** 
 753:/opt/XMClib/XMC_Peripheral_Library_v2.1.16/XMCLib/inc/xmc4_scu.h **** /** 
 754:/opt/XMClib/XMC_Peripheral_Library_v2.1.16/XMCLib/inc/xmc4_scu.h ****  *  Hibernate domain event status
 755:/opt/XMClib/XMC_Peripheral_Library_v2.1.16/XMCLib/inc/xmc4_scu.h ****  */
 756:/opt/XMClib/XMC_Peripheral_Library_v2.1.16/XMCLib/inc/xmc4_scu.h **** typedef enum XMC_SCU_HIB_EVENT
 757:/opt/XMClib/XMC_Peripheral_Library_v2.1.16/XMCLib/inc/xmc4_scu.h **** {
 758:/opt/XMClib/XMC_Peripheral_Library_v2.1.16/XMCLib/inc/xmc4_scu.h ****   XMC_SCU_HIB_EVENT_WAKEUP_ON_POS_EDGE = SCU_HIBERNATE_HDCR_WKPEP_Msk, /**< Wake-up on positive edg
 759:/opt/XMClib/XMC_Peripheral_Library_v2.1.16/XMCLib/inc/xmc4_scu.h ****   XMC_SCU_HIB_EVENT_WAKEUP_ON_NEG_EDGE = SCU_HIBERNATE_HDCR_WKPEN_Msk, /**< Wake-up on negative edg
 760:/opt/XMClib/XMC_Peripheral_Library_v2.1.16/XMCLib/inc/xmc4_scu.h ****   XMC_SCU_HIB_EVENT_WAKEUP_ON_RTC = SCU_HIBERNATE_HDCR_RTCE_Msk, /**< Wake-up on RTC event */
 761:/opt/XMClib/XMC_Peripheral_Library_v2.1.16/XMCLib/inc/xmc4_scu.h ****   XMC_SCU_HIB_EVENT_ULPWDG = SCU_HIBERNATE_HDCR_ULPWDGEN_Msk, /**< ULP watchdog alarm status */
 762:/opt/XMClib/XMC_Peripheral_Library_v2.1.16/XMCLib/inc/xmc4_scu.h **** #if (defined(DOXYGEN) || (UC_SERIES == XMC44) || (UC_SERIES == XMC42) || (UC_SERIES == XMC41))
 763:/opt/XMClib/XMC_Peripheral_Library_v2.1.16/XMCLib/inc/xmc4_scu.h ****   XMC_SCU_HIB_EVENT_LPAC_VBAT_POSEDGE = SCU_HIBERNATE_HDSTAT_VBATPEV_Msk, /**< Wake-up on LPAC posi
 764:/opt/XMClib/XMC_Peripheral_Library_v2.1.16/XMCLib/inc/xmc4_scu.h ****   XMC_SCU_HIB_EVENT_LPAC_VBAT_NEGEDGE = SCU_HIBERNATE_HDSTAT_VBATNEV_Msk, /**< Wake-up on LPAC nega
 765:/opt/XMClib/XMC_Peripheral_Library_v2.1.16/XMCLib/inc/xmc4_scu.h ****   XMC_SCU_HIB_EVENT_LPAC_HIB_IO_0_POSEDGE = SCU_HIBERNATE_HDSTAT_AHIBIO0PEV_Msk, /**< Wake-up on LP
 766:/opt/XMClib/XMC_Peripheral_Library_v2.1.16/XMCLib/inc/xmc4_scu.h ****   XMC_SCU_HIB_EVENT_LPAC_HIB_IO_0_NEGEDGE = SCU_HIBERNATE_HDSTAT_AHIBIO0NEV_Msk, /**< Wake-up on LP
 767:/opt/XMClib/XMC_Peripheral_Library_v2.1.16/XMCLib/inc/xmc4_scu.h **** #if (defined(DOXYGEN) || ((UC_SERIES == XMC44) && (UC_PACKAGE == LQFP100)))
 768:/opt/XMClib/XMC_Peripheral_Library_v2.1.16/XMCLib/inc/xmc4_scu.h ****   XMC_SCU_HIB_EVENT_LPAC_HIB_IO_1_POSEDGE = SCU_HIBERNATE_HDSTAT_AHIBIO1PEV_Msk, /**< Wake-up on LP
 769:/opt/XMClib/XMC_Peripheral_Library_v2.1.16/XMCLib/inc/xmc4_scu.h ****   XMC_SCU_HIB_EVENT_LPAC_HIB_IO_1_NEGEDGE = SCU_HIBERNATE_HDSTAT_AHIBIO1NEV_Msk, /**< Wake-up on LP
 770:/opt/XMClib/XMC_Peripheral_Library_v2.1.16/XMCLib/inc/xmc4_scu.h **** #endif
 771:/opt/XMClib/XMC_Peripheral_Library_v2.1.16/XMCLib/inc/xmc4_scu.h **** #endif  
 772:/opt/XMClib/XMC_Peripheral_Library_v2.1.16/XMCLib/inc/xmc4_scu.h **** } XMC_SCU_HIB_EVENT_t;
 773:/opt/XMClib/XMC_Peripheral_Library_v2.1.16/XMCLib/inc/xmc4_scu.h **** 
 774:/opt/XMClib/XMC_Peripheral_Library_v2.1.16/XMCLib/inc/xmc4_scu.h **** /** 
 775:/opt/XMClib/XMC_Peripheral_Library_v2.1.16/XMCLib/inc/xmc4_scu.h ****   * Hibernate domain dedicated pins
 776:/opt/XMClib/XMC_Peripheral_Library_v2.1.16/XMCLib/inc/xmc4_scu.h ****   */
 777:/opt/XMClib/XMC_Peripheral_Library_v2.1.16/XMCLib/inc/xmc4_scu.h **** typedef enum XMC_SCU_HIB_IO
 778:/opt/XMClib/XMC_Peripheral_Library_v2.1.16/XMCLib/inc/xmc4_scu.h **** {
 779:/opt/XMClib/XMC_Peripheral_Library_v2.1.16/XMCLib/inc/xmc4_scu.h ****   XMC_SCU_HIB_IO_0 = 0, /**< HIB_IO_0 pin. 
 780:/opt/XMClib/XMC_Peripheral_Library_v2.1.16/XMCLib/inc/xmc4_scu.h ****                              At the first power-up and with every reset of the hibernate domain thi
 781:/opt/XMClib/XMC_Peripheral_Library_v2.1.16/XMCLib/inc/xmc4_scu.h **** #if (defined(DOXYGEN) || (UC_PACKAGE == BGA196) || (UC_PACKAGE == BGA144) || (UC_PACKAGE == LQFP144
 782:/opt/XMClib/XMC_Peripheral_Library_v2.1.16/XMCLib/inc/xmc4_scu.h ****   XMC_SCU_HIB_IO_1 = 1 /**< HIB_IO_1 pin. 
 783:/opt/XMClib/XMC_Peripheral_Library_v2.1.16/XMCLib/inc/xmc4_scu.h ****                             At the first power-up and with every reset of the hibernate domain this
 784:/opt/XMClib/XMC_Peripheral_Library_v2.1.16/XMCLib/inc/xmc4_scu.h ****                             @note : Only available in certain packages*/
 785:/opt/XMClib/XMC_Peripheral_Library_v2.1.16/XMCLib/inc/xmc4_scu.h **** #endif  
 786:/opt/XMClib/XMC_Peripheral_Library_v2.1.16/XMCLib/inc/xmc4_scu.h **** } XMC_SCU_HIB_IO_t;
 787:/opt/XMClib/XMC_Peripheral_Library_v2.1.16/XMCLib/inc/xmc4_scu.h **** 
 788:/opt/XMClib/XMC_Peripheral_Library_v2.1.16/XMCLib/inc/xmc4_scu.h **** /**
 789:/opt/XMClib/XMC_Peripheral_Library_v2.1.16/XMCLib/inc/xmc4_scu.h ****  * HIB_IOx pin I/O control
 790:/opt/XMClib/XMC_Peripheral_Library_v2.1.16/XMCLib/inc/xmc4_scu.h ****  */
 791:/opt/XMClib/XMC_Peripheral_Library_v2.1.16/XMCLib/inc/xmc4_scu.h **** typedef enum XMC_SCU_HIB_PIN_MODE
 792:/opt/XMClib/XMC_Peripheral_Library_v2.1.16/XMCLib/inc/xmc4_scu.h **** {
 793:/opt/XMClib/XMC_Peripheral_Library_v2.1.16/XMCLib/inc/xmc4_scu.h ****   XMC_SCU_HIB_PIN_MODE_INPUT_PULL_NONE = 0 << SCU_HIBERNATE_HDCR_HIBIO0SEL_Pos, /**< Direct input, 
 794:/opt/XMClib/XMC_Peripheral_Library_v2.1.16/XMCLib/inc/xmc4_scu.h ****   XMC_SCU_HIB_PIN_MODE_INPUT_PULL_DOWN = 1 << SCU_HIBERNATE_HDCR_HIBIO0SEL_Pos, /**< Direct input, 
 795:/opt/XMClib/XMC_Peripheral_Library_v2.1.16/XMCLib/inc/xmc4_scu.h ****   XMC_SCU_HIB_PIN_MODE_INPUT_PULL_UP = 2 << SCU_HIBERNATE_HDCR_HIBIO0SEL_Pos, /**< Direct input, in
 796:/opt/XMClib/XMC_Peripheral_Library_v2.1.16/XMCLib/inc/xmc4_scu.h ****   XMC_SCU_HIB_PIN_MODE_OUTPUT_PUSH_PULL_HIBCTRL = 8 << SCU_HIBERNATE_HDCR_HIBIO0SEL_Pos, /**< Push-
 797:/opt/XMClib/XMC_Peripheral_Library_v2.1.16/XMCLib/inc/xmc4_scu.h ****   XMC_SCU_HIB_PIN_MODE_OUTPUT_PUSH_PULL_WDTSRV = 9 << SCU_HIBERNATE_HDCR_HIBIO0SEL_Pos, /**< Push-p
 798:/opt/XMClib/XMC_Peripheral_Library_v2.1.16/XMCLib/inc/xmc4_scu.h ****   XMC_SCU_HIB_PIN_MODE_OUTPUT_PUSH_PULL_GPIO = 10 << SCU_HIBERNATE_HDCR_HIBIO0SEL_Pos, /**< Push-pu
 799:/opt/XMClib/XMC_Peripheral_Library_v2.1.16/XMCLib/inc/xmc4_scu.h ****   XMC_SCU_HIB_PIN_MODE_OUTPUT_OPEN_DRAIN_HIBCTRL = 12 << SCU_HIBERNATE_HDCR_HIBIO0SEL_Pos, /**< Ope
 800:/opt/XMClib/XMC_Peripheral_Library_v2.1.16/XMCLib/inc/xmc4_scu.h ****   XMC_SCU_HIB_PIN_MODE_OUTPUT_OPEN_DRAIN_WDTSRV = 13 << SCU_HIBERNATE_HDCR_HIBIO0SEL_Pos, /**< Open
 801:/opt/XMClib/XMC_Peripheral_Library_v2.1.16/XMCLib/inc/xmc4_scu.h ****   XMC_SCU_HIB_PIN_MODE_OUTPUT_OPEN_DRAIN_GPIO = 14 << SCU_HIBERNATE_HDCR_HIBIO0SEL_Pos, /**< Open d
 802:/opt/XMClib/XMC_Peripheral_Library_v2.1.16/XMCLib/inc/xmc4_scu.h **** } XMC_SCU_HIB_PIN_MODE_t;
 803:/opt/XMClib/XMC_Peripheral_Library_v2.1.16/XMCLib/inc/xmc4_scu.h **** 
 804:/opt/XMClib/XMC_Peripheral_Library_v2.1.16/XMCLib/inc/xmc4_scu.h **** /**
 805:/opt/XMClib/XMC_Peripheral_Library_v2.1.16/XMCLib/inc/xmc4_scu.h ****  * Selects the output polarity of the HIB_IOx
 806:/opt/XMClib/XMC_Peripheral_Library_v2.1.16/XMCLib/inc/xmc4_scu.h ****  */
 807:/opt/XMClib/XMC_Peripheral_Library_v2.1.16/XMCLib/inc/xmc4_scu.h **** typedef enum XMC_SCU_HIB_IO_OUTPUT_LEVEL
 808:/opt/XMClib/XMC_Peripheral_Library_v2.1.16/XMCLib/inc/xmc4_scu.h **** {
 809:/opt/XMClib/XMC_Peripheral_Library_v2.1.16/XMCLib/inc/xmc4_scu.h ****   XMC_SCU_HIB_IO_OUTPUT_LEVEL_LOW = 0 << SCU_HIBERNATE_HDCR_HIBIO0POL_Pos, /**< Direct value */
 810:/opt/XMClib/XMC_Peripheral_Library_v2.1.16/XMCLib/inc/xmc4_scu.h ****   XMC_SCU_HIB_IO_OUTPUT_LEVEL_HIGH = 1 << SCU_HIBERNATE_HDCR_HIBIO0POL_Pos /**< Inverted value */
 811:/opt/XMClib/XMC_Peripheral_Library_v2.1.16/XMCLib/inc/xmc4_scu.h **** } XMC_SCU_HIB_IO_OUTPUT_LEVEL_t;
 812:/opt/XMClib/XMC_Peripheral_Library_v2.1.16/XMCLib/inc/xmc4_scu.h **** 
 813:/opt/XMClib/XMC_Peripheral_Library_v2.1.16/XMCLib/inc/xmc4_scu.h **** /**
 814:/opt/XMClib/XMC_Peripheral_Library_v2.1.16/XMCLib/inc/xmc4_scu.h ****  * Selects hibernate mode
 815:/opt/XMClib/XMC_Peripheral_Library_v2.1.16/XMCLib/inc/xmc4_scu.h ****  */
 816:/opt/XMClib/XMC_Peripheral_Library_v2.1.16/XMCLib/inc/xmc4_scu.h **** typedef enum XMC_SCU_HIB_HIBERNATE_MODE
 817:/opt/XMClib/XMC_Peripheral_Library_v2.1.16/XMCLib/inc/xmc4_scu.h **** {
 818:/opt/XMClib/XMC_Peripheral_Library_v2.1.16/XMCLib/inc/xmc4_scu.h ****   XMC_SCU_HIB_HIBERNATE_MODE_EXTERNAL = 0, /**< Request external hibernate mode */
 819:/opt/XMClib/XMC_Peripheral_Library_v2.1.16/XMCLib/inc/xmc4_scu.h **** #if (defined(DOXYGEN) || (UC_SERIES == XMC44) || (UC_SERIES == XMC42) || (UC_SERIES == XMC41))
 820:/opt/XMClib/XMC_Peripheral_Library_v2.1.16/XMCLib/inc/xmc4_scu.h ****   XMC_SCU_HIB_HIBERNATE_MODE_INTERNAL = 1, /**< Request internal hibernate mode. @note Only availab
 821:/opt/XMClib/XMC_Peripheral_Library_v2.1.16/XMCLib/inc/xmc4_scu.h **** #endif
 822:/opt/XMClib/XMC_Peripheral_Library_v2.1.16/XMCLib/inc/xmc4_scu.h **** } XMC_SCU_HIB_HIBERNATE_MODE_t;
 823:/opt/XMClib/XMC_Peripheral_Library_v2.1.16/XMCLib/inc/xmc4_scu.h **** 
 824:/opt/XMClib/XMC_Peripheral_Library_v2.1.16/XMCLib/inc/xmc4_scu.h **** /**
 825:/opt/XMClib/XMC_Peripheral_Library_v2.1.16/XMCLib/inc/xmc4_scu.h ****  * Selects input signal HIB_SR0 of ERU0
 826:/opt/XMClib/XMC_Peripheral_Library_v2.1.16/XMCLib/inc/xmc4_scu.h ****  */
 827:/opt/XMClib/XMC_Peripheral_Library_v2.1.16/XMCLib/inc/xmc4_scu.h **** typedef enum XMC_SCU_HIB_SR0_INPUT
 828:/opt/XMClib/XMC_Peripheral_Library_v2.1.16/XMCLib/inc/xmc4_scu.h **** {
 829:/opt/XMClib/XMC_Peripheral_Library_v2.1.16/XMCLib/inc/xmc4_scu.h ****   XMC_SCU_HIB_SR0_INPUT_HIB_IO_0 = SCU_HIBERNATE_HDCR_GPI0SEL_Msk, /**< Set HIB_SR0 to HIB_IO_0 dig
 830:/opt/XMClib/XMC_Peripheral_Library_v2.1.16/XMCLib/inc/xmc4_scu.h **** #if (defined(DOXYGEN) || (UC_PACKAGE == BGA196) || (UC_PACKAGE == BGA144) || (UC_PACKAGE == LQFP144
 831:/opt/XMClib/XMC_Peripheral_Library_v2.1.16/XMCLib/inc/xmc4_scu.h ****   XMC_SCU_HIB_SR0_INPUT_HIB_IO_1 = 0, /**< Set HIB_SR0 to HIB_IO_1 digital input. @note Only availa
 832:/opt/XMClib/XMC_Peripheral_Library_v2.1.16/XMCLib/inc/xmc4_scu.h **** #endif  
 833:/opt/XMClib/XMC_Peripheral_Library_v2.1.16/XMCLib/inc/xmc4_scu.h **** #if (defined(DOXYGEN) || (UC_SERIES == XMC44) || (UC_SERIES == XMC42) || (UC_SERIES == XMC41))
 834:/opt/XMClib/XMC_Peripheral_Library_v2.1.16/XMCLib/inc/xmc4_scu.h ****   XMC_SCU_HIB_SR0_INPUT_ACMP0 = SCU_HIBERNATE_HDCR_ADIG0SEL_Msk,  /**< Set HIB_SR0 to LPAC CMP0. @n
 835:/opt/XMClib/XMC_Peripheral_Library_v2.1.16/XMCLib/inc/xmc4_scu.h **** #endif
 836:/opt/XMClib/XMC_Peripheral_Library_v2.1.16/XMCLib/inc/xmc4_scu.h **** } XMC_SCU_HIB_SR0_INPUT_t;
 837:/opt/XMClib/XMC_Peripheral_Library_v2.1.16/XMCLib/inc/xmc4_scu.h **** 
 838:/opt/XMClib/XMC_Peripheral_Library_v2.1.16/XMCLib/inc/xmc4_scu.h **** #if (defined(DOXYGEN) || (UC_SERIES == XMC44) || (UC_SERIES == XMC42) || (UC_SERIES == XMC41))
 839:/opt/XMClib/XMC_Peripheral_Library_v2.1.16/XMCLib/inc/xmc4_scu.h **** 
 840:/opt/XMClib/XMC_Peripheral_Library_v2.1.16/XMCLib/inc/xmc4_scu.h **** #if ((UC_SERIES == XMC44) && (UC_PACKAGE == LQFP100))
 841:/opt/XMClib/XMC_Peripheral_Library_v2.1.16/XMCLib/inc/xmc4_scu.h **** /**
 842:/opt/XMClib/XMC_Peripheral_Library_v2.1.16/XMCLib/inc/xmc4_scu.h ****  * Selects input signal HIB_SR1 of ERU0. @note Only available in XMC44 in certain packages.
 843:/opt/XMClib/XMC_Peripheral_Library_v2.1.16/XMCLib/inc/xmc4_scu.h ****  */
 844:/opt/XMClib/XMC_Peripheral_Library_v2.1.16/XMCLib/inc/xmc4_scu.h **** typedef enum XMC_SCU_HIB_SR1_INPUT
 845:/opt/XMClib/XMC_Peripheral_Library_v2.1.16/XMCLib/inc/xmc4_scu.h **** {
 846:/opt/XMClib/XMC_Peripheral_Library_v2.1.16/XMCLib/inc/xmc4_scu.h ****   XMC_SCU_HIB_SR1_INPUT_HIB_IO_0 = SCU_HIBERNATE_HDCR_GPI1SEL_Msk, /**< Set HIB_SR1 to HIB_IO_0 dig
 847:/opt/XMClib/XMC_Peripheral_Library_v2.1.16/XMCLib/inc/xmc4_scu.h ****   XMC_SCU_HIB_SR1_INPUT_HIB_IO_1 = 0, /**< Set HIB_SR1 to HIB_IO_1 digital input.  */
 848:/opt/XMClib/XMC_Peripheral_Library_v2.1.16/XMCLib/inc/xmc4_scu.h ****   XMC_SCU_HIB_SR1_INPUT_ACMP1 = SCU_HIBERNATE_HDCR_ADIG1SEL_Msk,  /**< Set HIB_SR0 to LPAC CMP1. */
 849:/opt/XMClib/XMC_Peripheral_Library_v2.1.16/XMCLib/inc/xmc4_scu.h ****   XMC_SCU_HIB_SR1_INPUT_XTAL_GPI = SCU_HIBERNATE_HDCR_XTALGPI1SEL_Msk,  /**< Set HIB_SR0 to RTC_XTA
 850:/opt/XMClib/XMC_Peripheral_Library_v2.1.16/XMCLib/inc/xmc4_scu.h **** } XMC_SCU_HIB_SR1_INPUT_t;
 851:/opt/XMClib/XMC_Peripheral_Library_v2.1.16/XMCLib/inc/xmc4_scu.h **** #endif
 852:/opt/XMClib/XMC_Peripheral_Library_v2.1.16/XMCLib/inc/xmc4_scu.h **** 
 853:/opt/XMClib/XMC_Peripheral_Library_v2.1.16/XMCLib/inc/xmc4_scu.h **** /**
 854:/opt/XMClib/XMC_Peripheral_Library_v2.1.16/XMCLib/inc/xmc4_scu.h ****  * HIB LPAC input selection
 855:/opt/XMClib/XMC_Peripheral_Library_v2.1.16/XMCLib/inc/xmc4_scu.h ****  */
 856:/opt/XMClib/XMC_Peripheral_Library_v2.1.16/XMCLib/inc/xmc4_scu.h **** typedef enum XMC_SCU_HIB_LPAC_INPUT
 857:/opt/XMClib/XMC_Peripheral_Library_v2.1.16/XMCLib/inc/xmc4_scu.h **** {
