   1              		.cpu cortex-m4
   2              		.eabi_attribute 27, 1
   3              		.eabi_attribute 20, 1
   4              		.eabi_attribute 21, 1
   5              		.eabi_attribute 23, 3
   6              		.eabi_attribute 24, 1
   7              		.eabi_attribute 25, 1
   8              		.eabi_attribute 26, 1
   9              		.eabi_attribute 30, 1
  10              		.eabi_attribute 34, 1
  11              		.eabi_attribute 18, 4
  12              		.file	"xmc_usbd.c"
  13              		.text
  14              	.Ltext0:
  15              		.cfi_sections	.debug_frame
  16              		.section	.text.XMC_USBD_lReadFifo,"ax",%progbits
  17              		.align	1
  18              		.syntax unified
  19              		.thumb
  20              		.thumb_func
  21              		.fpu fpv4-sp-d16
  23              	XMC_USBD_lReadFifo:
  24              	.LFB163:
  25              		.file 1 "/opt/XMClib/XMC_Peripheral_Library_v2.1.16/XMCLib/src/xmc_usbd.c"
   1:/opt/XMClib/XMC_Peripheral_Library_v2.1.16/XMCLib/src/xmc_usbd.c **** /**
   2:/opt/XMClib/XMC_Peripheral_Library_v2.1.16/XMCLib/src/xmc_usbd.c ****  * @file xmc_usbd.c
   3:/opt/XMClib/XMC_Peripheral_Library_v2.1.16/XMCLib/src/xmc_usbd.c ****  * @date 2015-06-20
   4:/opt/XMClib/XMC_Peripheral_Library_v2.1.16/XMCLib/src/xmc_usbd.c ****  *
   5:/opt/XMClib/XMC_Peripheral_Library_v2.1.16/XMCLib/src/xmc_usbd.c ****  * @cond
   6:/opt/XMClib/XMC_Peripheral_Library_v2.1.16/XMCLib/src/xmc_usbd.c ****  **********************************************************************************
   7:/opt/XMClib/XMC_Peripheral_Library_v2.1.16/XMCLib/src/xmc_usbd.c ****  * XMClib v2.1.16 - XMC Peripheral Driver Library 
   8:/opt/XMClib/XMC_Peripheral_Library_v2.1.16/XMCLib/src/xmc_usbd.c ****  *
   9:/opt/XMClib/XMC_Peripheral_Library_v2.1.16/XMCLib/src/xmc_usbd.c ****  * Copyright (c) 2015-2017, Infineon Technologies AG
  10:/opt/XMClib/XMC_Peripheral_Library_v2.1.16/XMCLib/src/xmc_usbd.c ****  * All rights reserved.                        
  11:/opt/XMClib/XMC_Peripheral_Library_v2.1.16/XMCLib/src/xmc_usbd.c ****  *                                             
  12:/opt/XMClib/XMC_Peripheral_Library_v2.1.16/XMCLib/src/xmc_usbd.c ****  * Redistribution and use in source and binary forms, with or without           
  13:/opt/XMClib/XMC_Peripheral_Library_v2.1.16/XMCLib/src/xmc_usbd.c ****  * modification,are permitted provided that the following conditions are met:   
  14:/opt/XMClib/XMC_Peripheral_Library_v2.1.16/XMCLib/src/xmc_usbd.c ****  *                                                                              
  15:/opt/XMClib/XMC_Peripheral_Library_v2.1.16/XMCLib/src/xmc_usbd.c ****  *   Redistributions of source code must retain the above copyright notice,      
  16:/opt/XMClib/XMC_Peripheral_Library_v2.1.16/XMCLib/src/xmc_usbd.c ****  *   this list of conditions and the following disclaimer.                        
  17:/opt/XMClib/XMC_Peripheral_Library_v2.1.16/XMCLib/src/xmc_usbd.c ****  * 
  18:/opt/XMClib/XMC_Peripheral_Library_v2.1.16/XMCLib/src/xmc_usbd.c ****  *   Redistributions in binary form must reproduce the above copyright notice,   
  19:/opt/XMClib/XMC_Peripheral_Library_v2.1.16/XMCLib/src/xmc_usbd.c ****  *   this list of conditions and the following disclaimer in the documentation    
  20:/opt/XMClib/XMC_Peripheral_Library_v2.1.16/XMCLib/src/xmc_usbd.c ****  *   and/or other materials provided with the distribution.                       
  21:/opt/XMClib/XMC_Peripheral_Library_v2.1.16/XMCLib/src/xmc_usbd.c ****  * 
  22:/opt/XMClib/XMC_Peripheral_Library_v2.1.16/XMCLib/src/xmc_usbd.c ****  *   Neither the name of the copyright holders nor the names of its contributors 
  23:/opt/XMClib/XMC_Peripheral_Library_v2.1.16/XMCLib/src/xmc_usbd.c ****  *   may be used to endorse or promote products derived from this software without
  24:/opt/XMClib/XMC_Peripheral_Library_v2.1.16/XMCLib/src/xmc_usbd.c ****  *   specific prior written permission.                                           
  25:/opt/XMClib/XMC_Peripheral_Library_v2.1.16/XMCLib/src/xmc_usbd.c ****  *                                                                              
  26:/opt/XMClib/XMC_Peripheral_Library_v2.1.16/XMCLib/src/xmc_usbd.c ****  * THIS SOFTWARE IS PROVIDED BY THE COPYRIGHT HOLDERS AND CONTRIBUTORS "AS IS"  
  27:/opt/XMClib/XMC_Peripheral_Library_v2.1.16/XMCLib/src/xmc_usbd.c ****  * AND ANY EXPRESS OR IMPLIED WARRANTIES, INCLUDING, BUT NOT LIMITED TO, THE    
  28:/opt/XMClib/XMC_Peripheral_Library_v2.1.16/XMCLib/src/xmc_usbd.c ****  * IMPLIED WARRANTIES OF MERCHANTABILITY AND FITNESS FOR A PARTICULAR PURPOSE   
  29:/opt/XMClib/XMC_Peripheral_Library_v2.1.16/XMCLib/src/xmc_usbd.c ****  * ARE  DISCLAIMED. IN NO EVENT SHALL THE COPYRIGHT HOLDER OR CONTRIBUTORS BE   
  30:/opt/XMClib/XMC_Peripheral_Library_v2.1.16/XMCLib/src/xmc_usbd.c ****  * LIABLE  FOR ANY DIRECT, INDIRECT, INCIDENTAL, SPECIAL, EXEMPLARY, OR         
  31:/opt/XMClib/XMC_Peripheral_Library_v2.1.16/XMCLib/src/xmc_usbd.c ****  * CONSEQUENTIAL DAMAGES (INCLUDING, BUT NOT LIMITED TO, PROCUREMENT OF         
  32:/opt/XMClib/XMC_Peripheral_Library_v2.1.16/XMCLib/src/xmc_usbd.c ****  * SUBSTITUTE GOODS OR  SERVICES; LOSS OF USE, DATA, OR PROFITS; OR BUSINESS    
  33:/opt/XMClib/XMC_Peripheral_Library_v2.1.16/XMCLib/src/xmc_usbd.c ****  * INTERRUPTION) HOWEVER CAUSED AND ON ANY THEORY OF LIABILITY, WHETHER IN      
  34:/opt/XMClib/XMC_Peripheral_Library_v2.1.16/XMCLib/src/xmc_usbd.c ****  * CONTRACT, STRICT LIABILITY,OR TORT (INCLUDING NEGLIGENCE OR OTHERWISE)       
  35:/opt/XMClib/XMC_Peripheral_Library_v2.1.16/XMCLib/src/xmc_usbd.c ****  * ARISING IN ANY WAY OUT OF THE USE OF THIS SOFTWARE, EVEN IF ADVISED OF THE   
  36:/opt/XMClib/XMC_Peripheral_Library_v2.1.16/XMCLib/src/xmc_usbd.c ****  * POSSIBILITY OF SUCH DAMAGE.                                                  
  37:/opt/XMClib/XMC_Peripheral_Library_v2.1.16/XMCLib/src/xmc_usbd.c ****  *                                                                              
  38:/opt/XMClib/XMC_Peripheral_Library_v2.1.16/XMCLib/src/xmc_usbd.c ****  * To improve the quality of the software, users are encouraged to share        
  39:/opt/XMClib/XMC_Peripheral_Library_v2.1.16/XMCLib/src/xmc_usbd.c ****  * modifications, enhancements or bug fixes with Infineon Technologies AG       
  40:/opt/XMClib/XMC_Peripheral_Library_v2.1.16/XMCLib/src/xmc_usbd.c ****  * dave@infineon.com).                                                          
  41:/opt/XMClib/XMC_Peripheral_Library_v2.1.16/XMCLib/src/xmc_usbd.c ****  **********************************************************************************
  42:/opt/XMClib/XMC_Peripheral_Library_v2.1.16/XMCLib/src/xmc_usbd.c ****  *
  43:/opt/XMClib/XMC_Peripheral_Library_v2.1.16/XMCLib/src/xmc_usbd.c ****  * Change History
  44:/opt/XMClib/XMC_Peripheral_Library_v2.1.16/XMCLib/src/xmc_usbd.c ****  * --------------
  45:/opt/XMClib/XMC_Peripheral_Library_v2.1.16/XMCLib/src/xmc_usbd.c ****  *
  46:/opt/XMClib/XMC_Peripheral_Library_v2.1.16/XMCLib/src/xmc_usbd.c ****  * 2015-02-16:
  47:/opt/XMClib/XMC_Peripheral_Library_v2.1.16/XMCLib/src/xmc_usbd.c ****  *     - Initial Version.<br>           
  48:/opt/XMClib/XMC_Peripheral_Library_v2.1.16/XMCLib/src/xmc_usbd.c ****  * 2015-03-18:
  49:/opt/XMClib/XMC_Peripheral_Library_v2.1.16/XMCLib/src/xmc_usbd.c ****  *     - Updated the XMC_USBD_EndpointStall() to fix issue on USB clear stall. <br>
  50:/opt/XMClib/XMC_Peripheral_Library_v2.1.16/XMCLib/src/xmc_usbd.c ****  *     - Updated the XMC_USBD_EndpointConfigure() to fix issue in EP0 configuration.<br>
  51:/opt/XMClib/XMC_Peripheral_Library_v2.1.16/XMCLib/src/xmc_usbd.c ****  *     - Updated the XMC_USBD_IRQHandler()(Removed the DAVE_CE check on SOF event).<br>
  52:/opt/XMClib/XMC_Peripheral_Library_v2.1.16/XMCLib/src/xmc_usbd.c ****  * 2015-06-20:
  53:/opt/XMClib/XMC_Peripheral_Library_v2.1.16/XMCLib/src/xmc_usbd.c ****  *     - Removed GetDriverVersion API.<br>
  54:/opt/XMClib/XMC_Peripheral_Library_v2.1.16/XMCLib/src/xmc_usbd.c ****  *     - Updated the XMC_USBD_IsEnumDone() API.<br>
  55:/opt/XMClib/XMC_Peripheral_Library_v2.1.16/XMCLib/src/xmc_usbd.c ****  *     - Updated the copy right in the file header.<br>
  56:/opt/XMClib/XMC_Peripheral_Library_v2.1.16/XMCLib/src/xmc_usbd.c ****  *     - Updated the XMC_USBD_Disable() API to gate the clock after programming the SCU registers.<
  57:/opt/XMClib/XMC_Peripheral_Library_v2.1.16/XMCLib/src/xmc_usbd.c ****  *
  58:/opt/XMClib/XMC_Peripheral_Library_v2.1.16/XMCLib/src/xmc_usbd.c ****  * @endcond 
  59:/opt/XMClib/XMC_Peripheral_Library_v2.1.16/XMCLib/src/xmc_usbd.c ****  *
  60:/opt/XMClib/XMC_Peripheral_Library_v2.1.16/XMCLib/src/xmc_usbd.c ****  */
  61:/opt/XMClib/XMC_Peripheral_Library_v2.1.16/XMCLib/src/xmc_usbd.c **** 
  62:/opt/XMClib/XMC_Peripheral_Library_v2.1.16/XMCLib/src/xmc_usbd.c **** 
  63:/opt/XMClib/XMC_Peripheral_Library_v2.1.16/XMCLib/src/xmc_usbd.c **** /*******************************************************************************
  64:/opt/XMClib/XMC_Peripheral_Library_v2.1.16/XMCLib/src/xmc_usbd.c ****  * HEADER FILES
  65:/opt/XMClib/XMC_Peripheral_Library_v2.1.16/XMCLib/src/xmc_usbd.c ****  *******************************************************************************/
  66:/opt/XMClib/XMC_Peripheral_Library_v2.1.16/XMCLib/src/xmc_usbd.c **** #include <xmc_usbd.h>
  67:/opt/XMClib/XMC_Peripheral_Library_v2.1.16/XMCLib/src/xmc_usbd.c **** 
  68:/opt/XMClib/XMC_Peripheral_Library_v2.1.16/XMCLib/src/xmc_usbd.c **** #if defined(USB0)
  69:/opt/XMClib/XMC_Peripheral_Library_v2.1.16/XMCLib/src/xmc_usbd.c **** 	
  70:/opt/XMClib/XMC_Peripheral_Library_v2.1.16/XMCLib/src/xmc_usbd.c **** /**< macro to check the maximum number of endpoints used*/
  71:/opt/XMClib/XMC_Peripheral_Library_v2.1.16/XMCLib/src/xmc_usbd.c **** #define XMC_USBD_CHECK_INPUT_MAX_NUM_EPS(usbd_max_num_eps) \
  72:/opt/XMClib/XMC_Peripheral_Library_v2.1.16/XMCLib/src/xmc_usbd.c ****   ((usbd_max_num_eps ==  XMC_USBD_MAX_NUM_EPS_1 ) || \
  73:/opt/XMClib/XMC_Peripheral_Library_v2.1.16/XMCLib/src/xmc_usbd.c ****    (usbd_max_num_eps ==  XMC_USBD_MAX_NUM_EPS_2 ) || \
  74:/opt/XMClib/XMC_Peripheral_Library_v2.1.16/XMCLib/src/xmc_usbd.c ****    (usbd_max_num_eps ==  XMC_USBD_MAX_NUM_EPS_3 ) || \
  75:/opt/XMClib/XMC_Peripheral_Library_v2.1.16/XMCLib/src/xmc_usbd.c ****    (usbd_max_num_eps ==  XMC_USBD_MAX_NUM_EPS_4 ) || \
  76:/opt/XMClib/XMC_Peripheral_Library_v2.1.16/XMCLib/src/xmc_usbd.c ****    (usbd_max_num_eps ==  XMC_USBD_MAX_NUM_EPS_5 ) || \
  77:/opt/XMClib/XMC_Peripheral_Library_v2.1.16/XMCLib/src/xmc_usbd.c ****    (usbd_max_num_eps ==  XMC_USBD_MAX_NUM_EPS_6 ) || \
  78:/opt/XMClib/XMC_Peripheral_Library_v2.1.16/XMCLib/src/xmc_usbd.c ****    (usbd_max_num_eps == XMC_USBD_MAX_NUM_EPS_7 ))
  79:/opt/XMClib/XMC_Peripheral_Library_v2.1.16/XMCLib/src/xmc_usbd.c **** 
  80:/opt/XMClib/XMC_Peripheral_Library_v2.1.16/XMCLib/src/xmc_usbd.c **** /*******************************************************************************
  81:/opt/XMClib/XMC_Peripheral_Library_v2.1.16/XMCLib/src/xmc_usbd.c ****  *GLOBAL DATA
  82:/opt/XMClib/XMC_Peripheral_Library_v2.1.16/XMCLib/src/xmc_usbd.c ****  *******************************************************************************/
  83:/opt/XMClib/XMC_Peripheral_Library_v2.1.16/XMCLib/src/xmc_usbd.c **** /*
  84:/opt/XMClib/XMC_Peripheral_Library_v2.1.16/XMCLib/src/xmc_usbd.c ****  * Endpoint Out Fifo Size
  85:/opt/XMClib/XMC_Peripheral_Library_v2.1.16/XMCLib/src/xmc_usbd.c ****  */
  86:/opt/XMClib/XMC_Peripheral_Library_v2.1.16/XMCLib/src/xmc_usbd.c **** uint32_t XMC_USBD_EP_OUT_BUFFERSIZE[7] = {0U,0U,0U,0U,0U,0U,0U};
  87:/opt/XMClib/XMC_Peripheral_Library_v2.1.16/XMCLib/src/xmc_usbd.c **** /*
  88:/opt/XMClib/XMC_Peripheral_Library_v2.1.16/XMCLib/src/xmc_usbd.c ****  * Endpoint In Fifo Size
  89:/opt/XMClib/XMC_Peripheral_Library_v2.1.16/XMCLib/src/xmc_usbd.c ****  */
  90:/opt/XMClib/XMC_Peripheral_Library_v2.1.16/XMCLib/src/xmc_usbd.c **** uint32_t XMC_USBD_EP_IN_BUFFERSIZE[7] = {0U,0U,0U,0U,0U,0U,0U};
  91:/opt/XMClib/XMC_Peripheral_Library_v2.1.16/XMCLib/src/xmc_usbd.c **** /*
  92:/opt/XMClib/XMC_Peripheral_Library_v2.1.16/XMCLib/src/xmc_usbd.c ****  * Device definition
  93:/opt/XMClib/XMC_Peripheral_Library_v2.1.16/XMCLib/src/xmc_usbd.c ****  */
  94:/opt/XMClib/XMC_Peripheral_Library_v2.1.16/XMCLib/src/xmc_usbd.c ****  XMC_USBD_DEVICE_t xmc_device;
  95:/opt/XMClib/XMC_Peripheral_Library_v2.1.16/XMCLib/src/xmc_usbd.c **** #ifdef __GNUC__															  /*GCC*/
  96:/opt/XMClib/XMC_Peripheral_Library_v2.1.16/XMCLib/src/xmc_usbd.c **** /*
  97:/opt/XMClib/XMC_Peripheral_Library_v2.1.16/XMCLib/src/xmc_usbd.c ****  * Endpoint Out Fifo
  98:/opt/XMClib/XMC_Peripheral_Library_v2.1.16/XMCLib/src/xmc_usbd.c ****  */
  99:/opt/XMClib/XMC_Peripheral_Library_v2.1.16/XMCLib/src/xmc_usbd.c **** static __attribute__((aligned(4))) uint8_t XMC_USBD_EP_OUT_BUFFER[7][256] __attribute__((section("U
 100:/opt/XMClib/XMC_Peripheral_Library_v2.1.16/XMCLib/src/xmc_usbd.c **** /*
 101:/opt/XMClib/XMC_Peripheral_Library_v2.1.16/XMCLib/src/xmc_usbd.c ****  * Endpoint In Fifo
 102:/opt/XMClib/XMC_Peripheral_Library_v2.1.16/XMCLib/src/xmc_usbd.c ****  */
 103:/opt/XMClib/XMC_Peripheral_Library_v2.1.16/XMCLib/src/xmc_usbd.c **** static __attribute__((aligned(4))) uint8_t XMC_USBD_EP_IN_BUFFER[7][256] __attribute__((section("US
 104:/opt/XMClib/XMC_Peripheral_Library_v2.1.16/XMCLib/src/xmc_usbd.c **** #endif
 105:/opt/XMClib/XMC_Peripheral_Library_v2.1.16/XMCLib/src/xmc_usbd.c **** #if defined(__ICCARM__)
 106:/opt/XMClib/XMC_Peripheral_Library_v2.1.16/XMCLib/src/xmc_usbd.c **** #pragma data_alignment=4
 107:/opt/XMClib/XMC_Peripheral_Library_v2.1.16/XMCLib/src/xmc_usbd.c **** /*
 108:/opt/XMClib/XMC_Peripheral_Library_v2.1.16/XMCLib/src/xmc_usbd.c ****  * Endpoint Out Fifo
 109:/opt/XMClib/XMC_Peripheral_Library_v2.1.16/XMCLib/src/xmc_usbd.c ****  */
 110:/opt/XMClib/XMC_Peripheral_Library_v2.1.16/XMCLib/src/xmc_usbd.c **** static uint8_t XMC_USBD_EP_OUT_BUFFER[7][256] @ ".dram";
 111:/opt/XMClib/XMC_Peripheral_Library_v2.1.16/XMCLib/src/xmc_usbd.c **** /*
 112:/opt/XMClib/XMC_Peripheral_Library_v2.1.16/XMCLib/src/xmc_usbd.c ****  * Endpoint In Fifo
 113:/opt/XMClib/XMC_Peripheral_Library_v2.1.16/XMCLib/src/xmc_usbd.c ****  */
 114:/opt/XMClib/XMC_Peripheral_Library_v2.1.16/XMCLib/src/xmc_usbd.c **** #pragma data_alignment=4
 115:/opt/XMClib/XMC_Peripheral_Library_v2.1.16/XMCLib/src/xmc_usbd.c **** static uint8_t XMC_USBD_EP_IN_BUFFER[7][256] @ ".dram";
 116:/opt/XMClib/XMC_Peripheral_Library_v2.1.16/XMCLib/src/xmc_usbd.c **** #endif
 117:/opt/XMClib/XMC_Peripheral_Library_v2.1.16/XMCLib/src/xmc_usbd.c **** #if defined(__CC_ARM)
 118:/opt/XMClib/XMC_Peripheral_Library_v2.1.16/XMCLib/src/xmc_usbd.c **** /*
 119:/opt/XMClib/XMC_Peripheral_Library_v2.1.16/XMCLib/src/xmc_usbd.c ****  * Endpoint Out Fifo
 120:/opt/XMClib/XMC_Peripheral_Library_v2.1.16/XMCLib/src/xmc_usbd.c ****  */
 121:/opt/XMClib/XMC_Peripheral_Library_v2.1.16/XMCLib/src/xmc_usbd.c **** static __attribute__((aligned(4))) uint8_t XMC_USBD_EP_OUT_BUFFER[7][256] __attribute__((section ("
 122:/opt/XMClib/XMC_Peripheral_Library_v2.1.16/XMCLib/src/xmc_usbd.c **** /*
 123:/opt/XMClib/XMC_Peripheral_Library_v2.1.16/XMCLib/src/xmc_usbd.c ****  * Endpoint In Fifo
 124:/opt/XMClib/XMC_Peripheral_Library_v2.1.16/XMCLib/src/xmc_usbd.c ****  */
 125:/opt/XMClib/XMC_Peripheral_Library_v2.1.16/XMCLib/src/xmc_usbd.c **** static __attribute__((aligned(4))) uint8_t XMC_USBD_EP_IN_BUFFER[7][256] __attribute__((section ("R
 126:/opt/XMClib/XMC_Peripheral_Library_v2.1.16/XMCLib/src/xmc_usbd.c **** #endif
 127:/opt/XMClib/XMC_Peripheral_Library_v2.1.16/XMCLib/src/xmc_usbd.c **** XMC_USBD_t *usbd_init;
 128:/opt/XMClib/XMC_Peripheral_Library_v2.1.16/XMCLib/src/xmc_usbd.c **** 
 129:/opt/XMClib/XMC_Peripheral_Library_v2.1.16/XMCLib/src/xmc_usbd.c **** /*******************************************************************************
 130:/opt/XMClib/XMC_Peripheral_Library_v2.1.16/XMCLib/src/xmc_usbd.c ****  *LOCAL ROUTINES
 131:/opt/XMClib/XMC_Peripheral_Library_v2.1.16/XMCLib/src/xmc_usbd.c ****  *******************************************************************************/
 132:/opt/XMClib/XMC_Peripheral_Library_v2.1.16/XMCLib/src/xmc_usbd.c **** /*Local routines prototypes*/
 133:/opt/XMClib/XMC_Peripheral_Library_v2.1.16/XMCLib/src/xmc_usbd.c **** uint8_t XMC_USBD_lDeviceActive(const XMC_USBD_t *const obj);
 134:/opt/XMClib/XMC_Peripheral_Library_v2.1.16/XMCLib/src/xmc_usbd.c **** static void XMC_USBD_lReadFifo(const uint32_t ep_num,const uint32_t byte_count);
 135:/opt/XMClib/XMC_Peripheral_Library_v2.1.16/XMCLib/src/xmc_usbd.c **** static uint32_t XMC_USBD_lWriteFifo(XMC_USBD_EP_t *ep);
 136:/opt/XMClib/XMC_Peripheral_Library_v2.1.16/XMCLib/src/xmc_usbd.c **** static void XMC_USBD_lFlushTXFifo(const uint8_t fifo_num);
 137:/opt/XMClib/XMC_Peripheral_Library_v2.1.16/XMCLib/src/xmc_usbd.c **** static void XMC_USBD_lFlushRXFifo(void);
 138:/opt/XMClib/XMC_Peripheral_Library_v2.1.16/XMCLib/src/xmc_usbd.c **** static uint8_t XMC_USBD_lAssignTXFifo(void);
 139:/opt/XMClib/XMC_Peripheral_Library_v2.1.16/XMCLib/src/xmc_usbd.c **** static void XMC_USBD_lStartReadXfer(XMC_USBD_EP_t *const ep);
 140:/opt/XMClib/XMC_Peripheral_Library_v2.1.16/XMCLib/src/xmc_usbd.c **** static void XMC_USBD_lStartWriteXfer(XMC_USBD_EP_t *const ep);
 141:/opt/XMClib/XMC_Peripheral_Library_v2.1.16/XMCLib/src/xmc_usbd.c **** static void XMC_USBD_lHandleEnumDone(void);
 142:/opt/XMClib/XMC_Peripheral_Library_v2.1.16/XMCLib/src/xmc_usbd.c **** static void XMC_USBD_lHandleOEPInt(const XMC_USBD_t *const obj);
 143:/opt/XMClib/XMC_Peripheral_Library_v2.1.16/XMCLib/src/xmc_usbd.c **** static void XMC_USBD_lHandleRxFLvl(void);
 144:/opt/XMClib/XMC_Peripheral_Library_v2.1.16/XMCLib/src/xmc_usbd.c **** static void XMC_USBD_lHandleIEPInt(const XMC_USBD_t *const obj);
 145:/opt/XMClib/XMC_Peripheral_Library_v2.1.16/XMCLib/src/xmc_usbd.c **** static void XMC_USBD_lUnassignFifo(const uint8_t fifo_nr);
 146:/opt/XMClib/XMC_Peripheral_Library_v2.1.16/XMCLib/src/xmc_usbd.c **** static void XMC_USBD_lHandleUSBReset(const XMC_USBD_t *const obj);
 147:/opt/XMClib/XMC_Peripheral_Library_v2.1.16/XMCLib/src/xmc_usbd.c **** static void XMC_USBD_lHandleOTGInt(void);
 148:/opt/XMClib/XMC_Peripheral_Library_v2.1.16/XMCLib/src/xmc_usbd.c **** static void XMC_USBD_lClearEventOTG(uint32_t event);
 149:/opt/XMClib/XMC_Peripheral_Library_v2.1.16/XMCLib/src/xmc_usbd.c **** 
 150:/opt/XMClib/XMC_Peripheral_Library_v2.1.16/XMCLib/src/xmc_usbd.c **** /**
 151:/opt/XMClib/XMC_Peripheral_Library_v2.1.16/XMCLib/src/xmc_usbd.c ****  *  The device driver
 152:/opt/XMClib/XMC_Peripheral_Library_v2.1.16/XMCLib/src/xmc_usbd.c ****  */
 153:/opt/XMClib/XMC_Peripheral_Library_v2.1.16/XMCLib/src/xmc_usbd.c **** const XMC_USBD_DRIVER_t Driver_USBD0 =
 154:/opt/XMClib/XMC_Peripheral_Library_v2.1.16/XMCLib/src/xmc_usbd.c **** {
 155:/opt/XMClib/XMC_Peripheral_Library_v2.1.16/XMCLib/src/xmc_usbd.c ****   .GetCapabilities = XMC_USBD_GetCapabilities,
 156:/opt/XMClib/XMC_Peripheral_Library_v2.1.16/XMCLib/src/xmc_usbd.c ****   .Initialize = XMC_USBD_Init,
 157:/opt/XMClib/XMC_Peripheral_Library_v2.1.16/XMCLib/src/xmc_usbd.c ****   .Uninitialize = XMC_USBD_Uninitialize,
 158:/opt/XMClib/XMC_Peripheral_Library_v2.1.16/XMCLib/src/xmc_usbd.c ****   .DeviceConnect = XMC_USBD_DeviceConnect,
 159:/opt/XMClib/XMC_Peripheral_Library_v2.1.16/XMCLib/src/xmc_usbd.c ****   .DeviceDisconnect = XMC_USBD_DeviceDisconnect,
 160:/opt/XMClib/XMC_Peripheral_Library_v2.1.16/XMCLib/src/xmc_usbd.c ****   .DeviceGetState = XMC_USBD_DeviceGetState,
 161:/opt/XMClib/XMC_Peripheral_Library_v2.1.16/XMCLib/src/xmc_usbd.c ****   .DeviceSetAddress = XMC_USBD_DeviceSetAddress,
 162:/opt/XMClib/XMC_Peripheral_Library_v2.1.16/XMCLib/src/xmc_usbd.c ****   .EndpointConfigure = XMC_USBD_EndpointConfigure,
 163:/opt/XMClib/XMC_Peripheral_Library_v2.1.16/XMCLib/src/xmc_usbd.c ****   .EndpointUnconfigure = XMC_USBD_EndpointUnconfigure,
 164:/opt/XMClib/XMC_Peripheral_Library_v2.1.16/XMCLib/src/xmc_usbd.c ****   .EndpointStall = XMC_USBD_EndpointStall,
 165:/opt/XMClib/XMC_Peripheral_Library_v2.1.16/XMCLib/src/xmc_usbd.c ****   .EndpointReadStart = XMC_USBD_EndpointReadStart,
 166:/opt/XMClib/XMC_Peripheral_Library_v2.1.16/XMCLib/src/xmc_usbd.c ****   .EndpointRead = XMC_USBD_EndpointRead,
 167:/opt/XMClib/XMC_Peripheral_Library_v2.1.16/XMCLib/src/xmc_usbd.c ****   .EndpointWrite = XMC_USBD_EndpointWrite,
 168:/opt/XMClib/XMC_Peripheral_Library_v2.1.16/XMCLib/src/xmc_usbd.c ****   .EndpointAbort = XMC_USBD_EndpointAbort,
 169:/opt/XMClib/XMC_Peripheral_Library_v2.1.16/XMCLib/src/xmc_usbd.c ****   .GetFrameNumber = XMC_USBD_GetFrameNumber,
 170:/opt/XMClib/XMC_Peripheral_Library_v2.1.16/XMCLib/src/xmc_usbd.c ****   .IsEnumDone = XMC_USBD_IsEnumDone
 171:/opt/XMClib/XMC_Peripheral_Library_v2.1.16/XMCLib/src/xmc_usbd.c **** };
 172:/opt/XMClib/XMC_Peripheral_Library_v2.1.16/XMCLib/src/xmc_usbd.c **** 
 173:/opt/XMClib/XMC_Peripheral_Library_v2.1.16/XMCLib/src/xmc_usbd.c **** /**
 174:/opt/XMClib/XMC_Peripheral_Library_v2.1.16/XMCLib/src/xmc_usbd.c ****  * @brief Checks if device is active
 175:/opt/XMClib/XMC_Peripheral_Library_v2.1.16/XMCLib/src/xmc_usbd.c ****  *
 176:/opt/XMClib/XMC_Peripheral_Library_v2.1.16/XMCLib/src/xmc_usbd.c ****  * Therefore the endpoint inInUse flag are checked and if one endpoint is in use, 1 is returned,
 177:/opt/XMClib/XMC_Peripheral_Library_v2.1.16/XMCLib/src/xmc_usbd.c ****  * else 0 is returned.
 178:/opt/XMClib/XMC_Peripheral_Library_v2.1.16/XMCLib/src/xmc_usbd.c ****  * @return 1 if an endpoint is active else 0
 179:/opt/XMClib/XMC_Peripheral_Library_v2.1.16/XMCLib/src/xmc_usbd.c ****  */
 180:/opt/XMClib/XMC_Peripheral_Library_v2.1.16/XMCLib/src/xmc_usbd.c **** uint8_t XMC_USBD_lDeviceActive(const XMC_USBD_t *const obj) 
 181:/opt/XMClib/XMC_Peripheral_Library_v2.1.16/XMCLib/src/xmc_usbd.c **** {
 182:/opt/XMClib/XMC_Peripheral_Library_v2.1.16/XMCLib/src/xmc_usbd.c ****   uint8_t i;
 183:/opt/XMClib/XMC_Peripheral_Library_v2.1.16/XMCLib/src/xmc_usbd.c ****   uint8_t result = 0U;
 184:/opt/XMClib/XMC_Peripheral_Library_v2.1.16/XMCLib/src/xmc_usbd.c ****   for (i = 0U; i < (uint8_t)obj->usbd_max_num_eps; i++)
 185:/opt/XMClib/XMC_Peripheral_Library_v2.1.16/XMCLib/src/xmc_usbd.c ****   {
 186:/opt/XMClib/XMC_Peripheral_Library_v2.1.16/XMCLib/src/xmc_usbd.c ****     if (xmc_device.ep[i].inInUse || xmc_device.ep[i].outInUse)
 187:/opt/XMClib/XMC_Peripheral_Library_v2.1.16/XMCLib/src/xmc_usbd.c ****     {
 188:/opt/XMClib/XMC_Peripheral_Library_v2.1.16/XMCLib/src/xmc_usbd.c ****       result = 1U;
 189:/opt/XMClib/XMC_Peripheral_Library_v2.1.16/XMCLib/src/xmc_usbd.c ****     }
 190:/opt/XMClib/XMC_Peripheral_Library_v2.1.16/XMCLib/src/xmc_usbd.c ****   }
 191:/opt/XMClib/XMC_Peripheral_Library_v2.1.16/XMCLib/src/xmc_usbd.c ****   return result;
 192:/opt/XMClib/XMC_Peripheral_Library_v2.1.16/XMCLib/src/xmc_usbd.c **** }
 193:/opt/XMClib/XMC_Peripheral_Library_v2.1.16/XMCLib/src/xmc_usbd.c **** 
 194:/opt/XMClib/XMC_Peripheral_Library_v2.1.16/XMCLib/src/xmc_usbd.c **** 
 195:/opt/XMClib/XMC_Peripheral_Library_v2.1.16/XMCLib/src/xmc_usbd.c **** /**
 196:/opt/XMClib/XMC_Peripheral_Library_v2.1.16/XMCLib/src/xmc_usbd.c ****  * @brief Read data from the rx fifo
 197:/opt/XMClib/XMC_Peripheral_Library_v2.1.16/XMCLib/src/xmc_usbd.c ****  *
 198:/opt/XMClib/XMC_Peripheral_Library_v2.1.16/XMCLib/src/xmc_usbd.c ****  * The data from the fifo is copied in to the buffer specified by @ref xfer_buffer and
 199:/opt/XMClib/XMC_Peripheral_Library_v2.1.16/XMCLib/src/xmc_usbd.c ****  * the transfer values get updated. If the endpoint is disabled or the buffer not existent
 200:/opt/XMClib/XMC_Peripheral_Library_v2.1.16/XMCLib/src/xmc_usbd.c ****  * the function exits.
 201:/opt/XMClib/XMC_Peripheral_Library_v2.1.16/XMCLib/src/xmc_usbd.c ****  *
 202:/opt/XMClib/XMC_Peripheral_Library_v2.1.16/XMCLib/src/xmc_usbd.c ****  * @arg ep_num the endpoint to read for
 203:/opt/XMClib/XMC_Peripheral_Library_v2.1.16/XMCLib/src/xmc_usbd.c ****  * @arg byte_count the byte count to read
 204:/opt/XMClib/XMC_Peripheral_Library_v2.1.16/XMCLib/src/xmc_usbd.c ****  */
 205:/opt/XMClib/XMC_Peripheral_Library_v2.1.16/XMCLib/src/xmc_usbd.c **** static void XMC_USBD_lReadFifo(const uint32_t ep_num,const uint32_t byte_count) 
 206:/opt/XMClib/XMC_Peripheral_Library_v2.1.16/XMCLib/src/xmc_usbd.c **** {
  26              		.loc 1 206 0
  27              		.cfi_startproc
  28              		@ args = 0, pretend = 0, frame = 0
  29              		@ frame_needed = 0, uses_anonymous_args = 0
  30              	.LVL0:
 207:/opt/XMClib/XMC_Peripheral_Library_v2.1.16/XMCLib/src/xmc_usbd.c ****   XMC_USBD_EP_t * ep = &xmc_device.ep[ep_num];
 208:/opt/XMClib/XMC_Peripheral_Library_v2.1.16/XMCLib/src/xmc_usbd.c ****   uint32_t word_count;
 209:/opt/XMClib/XMC_Peripheral_Library_v2.1.16/XMCLib/src/xmc_usbd.c ****   uint32_t temp_data;
 210:/opt/XMClib/XMC_Peripheral_Library_v2.1.16/XMCLib/src/xmc_usbd.c ****   uint32_t temp_word_count;
 211:/opt/XMClib/XMC_Peripheral_Library_v2.1.16/XMCLib/src/xmc_usbd.c ****   volatile uint32_t *fifo = xmc_device.fifo[0U];
 212:/opt/XMClib/XMC_Peripheral_Library_v2.1.16/XMCLib/src/xmc_usbd.c ****   uint32_t i;
 213:/opt/XMClib/XMC_Peripheral_Library_v2.1.16/XMCLib/src/xmc_usbd.c ****   depctl_data_t data;
 214:/opt/XMClib/XMC_Peripheral_Library_v2.1.16/XMCLib/src/xmc_usbd.c ****   data.d32 = xmc_device.endpoint_out_register[ep_num]->doepctl;
  31              		.loc 1 214 0
  32 0000 244B     		ldr	r3, .L14
  33 0002 03EB8003 		add	r3, r3, r0, lsl #2
  34 0006 D3F8C431 		ldr	r3, [r3, #452]
  35 000a 1B68     		ldr	r3, [r3]
  36              	.LVL1:
 215:/opt/XMClib/XMC_Peripheral_Library_v2.1.16/XMCLib/src/xmc_usbd.c ****   word_count = (byte_count >> 2U );
 216:/opt/XMClib/XMC_Peripheral_Library_v2.1.16/XMCLib/src/xmc_usbd.c ****   temp_word_count = (word_count << 2U);
 217:/opt/XMClib/XMC_Peripheral_Library_v2.1.16/XMCLib/src/xmc_usbd.c ****   /* Check if ep is enabled and has buffer */
 218:/opt/XMClib/XMC_Peripheral_Library_v2.1.16/XMCLib/src/xmc_usbd.c ****   if (!data.b.usbactep)
  37              		.loc 1 218 0
  38 000c 13F4004F 		tst	r3, #32768
  39 0010 00D1     		bne	.L13
  40              	.LVL2:
  41              	.L10:
  42 0012 7047     		bx	lr
  43              	.LVL3:
  44              	.L13:
 219:/opt/XMClib/XMC_Peripheral_Library_v2.1.16/XMCLib/src/xmc_usbd.c ****   {
 220:/opt/XMClib/XMC_Peripheral_Library_v2.1.16/XMCLib/src/xmc_usbd.c ****     /*Do Nothing*/
 221:/opt/XMClib/XMC_Peripheral_Library_v2.1.16/XMCLib/src/xmc_usbd.c ****   }
 222:/opt/XMClib/XMC_Peripheral_Library_v2.1.16/XMCLib/src/xmc_usbd.c ****   else if (ep->xferBuffer == NULL)
  45              		.loc 1 222 0
  46 0014 1F4A     		ldr	r2, .L14
  47 0016 3423     		movs	r3, #52
  48              	.LVL4:
  49 0018 03FB0023 		mla	r3, r3, r0, r2
  50 001c 5B6A     		ldr	r3, [r3, #36]
  51 001e 002B     		cmp	r3, #0
  52 0020 F7D0     		beq	.L10
 206:/opt/XMClib/XMC_Peripheral_Library_v2.1.16/XMCLib/src/xmc_usbd.c ****   XMC_USBD_EP_t * ep = &xmc_device.ep[ep_num];
  53              		.loc 1 206 0
  54 0022 F0B5     		push	{r4, r5, r6, r7, lr}
  55              	.LCFI0:
  56              		.cfi_def_cfa_offset 20
  57              		.cfi_offset 4, -20
  58              		.cfi_offset 5, -16
  59              		.cfi_offset 6, -12
  60              		.cfi_offset 7, -8
  61              		.cfi_offset 14, -4
 211:/opt/XMClib/XMC_Peripheral_Library_v2.1.16/XMCLib/src/xmc_usbd.c ****   uint32_t i;
  62              		.loc 1 211 0
  63 0024 D2F8E071 		ldr	r7, [r2, #480]
  64              	.LVL5:
 223:/opt/XMClib/XMC_Peripheral_Library_v2.1.16/XMCLib/src/xmc_usbd.c ****   {
 224:/opt/XMClib/XMC_Peripheral_Library_v2.1.16/XMCLib/src/xmc_usbd.c **** 	/*Do Nothing*/
 225:/opt/XMClib/XMC_Peripheral_Library_v2.1.16/XMCLib/src/xmc_usbd.c ****   }
 226:/opt/XMClib/XMC_Peripheral_Library_v2.1.16/XMCLib/src/xmc_usbd.c ****   else
 227:/opt/XMClib/XMC_Peripheral_Library_v2.1.16/XMCLib/src/xmc_usbd.c ****   {
 228:/opt/XMClib/XMC_Peripheral_Library_v2.1.16/XMCLib/src/xmc_usbd.c ****     /* store the data */
 229:/opt/XMClib/XMC_Peripheral_Library_v2.1.16/XMCLib/src/xmc_usbd.c ****     for (i = 0U;i < word_count; i++)
  65              		.loc 1 229 0
  66 0028 5FEA910C 		lsrs	ip, r1, #2
  67 002c 0AD0     		beq	.L3
  68 002e 0023     		movs	r3, #0
 230:/opt/XMClib/XMC_Peripheral_Library_v2.1.16/XMCLib/src/xmc_usbd.c ****     {
 231:/opt/XMClib/XMC_Peripheral_Library_v2.1.16/XMCLib/src/xmc_usbd.c ****       *(((uint32_t*)ep->xferBuffer)+i) = *fifo;
  69              		.loc 1 231 0
  70 0030 3425     		movs	r5, #52
  71 0032 05FB0025 		mla	r5, r5, r0, r2
  72              	.LVL6:
  73              	.L4:
  74              		.loc 1 231 0 is_stmt 0 discriminator 3
  75 0036 3C68     		ldr	r4, [r7]
  76 0038 6A6A     		ldr	r2, [r5, #36]
  77 003a 42F82340 		str	r4, [r2, r3, lsl #2]
 229:/opt/XMClib/XMC_Peripheral_Library_v2.1.16/XMCLib/src/xmc_usbd.c ****     {
  78              		.loc 1 229 0 is_stmt 1 discriminator 3
  79 003e 0133     		adds	r3, r3, #1
  80              	.LVL7:
  81 0040 9C45     		cmp	ip, r3
  82 0042 F8D1     		bne	.L4
  83              	.LVL8:
  84              	.L3:
 216:/opt/XMClib/XMC_Peripheral_Library_v2.1.16/XMCLib/src/xmc_usbd.c ****   /* Check if ep is enabled and has buffer */
  85              		.loc 1 216 0
  86 0044 21F00306 		bic	r6, r1, #3
 232:/opt/XMClib/XMC_Peripheral_Library_v2.1.16/XMCLib/src/xmc_usbd.c ****     }
 233:/opt/XMClib/XMC_Peripheral_Library_v2.1.16/XMCLib/src/xmc_usbd.c ****     /* space is not devidable by 4 */
 234:/opt/XMClib/XMC_Peripheral_Library_v2.1.16/XMCLib/src/xmc_usbd.c ****     if (byte_count!=temp_word_count)
  87              		.loc 1 234 0
  88 0048 B142     		cmp	r1, r6
  89 004a 17D0     		beq	.L5
 235:/opt/XMClib/XMC_Peripheral_Library_v2.1.16/XMCLib/src/xmc_usbd.c ****     {
 236:/opt/XMClib/XMC_Peripheral_Library_v2.1.16/XMCLib/src/xmc_usbd.c ****       temp_data = *fifo;
  90              		.loc 1 236 0
  91 004c 3D68     		ldr	r5, [r7]
  92              	.LVL9:
 237:/opt/XMClib/XMC_Peripheral_Library_v2.1.16/XMCLib/src/xmc_usbd.c ****       for (i = 0U;(temp_word_count + i) < byte_count;i++)
  93              		.loc 1 237 0
  94 004e 15D9     		bls	.L5
 238:/opt/XMClib/XMC_Peripheral_Library_v2.1.16/XMCLib/src/xmc_usbd.c ****       {
 239:/opt/XMClib/XMC_Peripheral_Library_v2.1.16/XMCLib/src/xmc_usbd.c ****         ep->xferBuffer[(word_count << 2)+i] = (uint8_t)((temp_data & ((uint32_t)0xFFU << (i * 8U)))
  95              		.loc 1 239 0
  96 0050 4FEA8C03 		lsl	r3, ip, #2
  97 0054 9E1B     		subs	r6, r3, r6
  98 0056 06EB010E 		add	lr, r6, r1
  99 005a 0024     		movs	r4, #0
 100 005c 0D4A     		ldr	r2, .L14
 101 005e 3427     		movs	r7, #52
 102 0060 07FB0027 		mla	r7, r7, r0, r2
 103 0064 4FF0FF0C 		mov	ip, #255
 104              	.LVL10:
 105              	.L6:
 106              		.loc 1 239 0 is_stmt 0 discriminator 3
 107 0068 0CFA04F2 		lsl	r2, ip, r4
 108 006c 2A40     		ands	r2, r2, r5
 109 006e E240     		lsrs	r2, r2, r4
 110 0070 7E6A     		ldr	r6, [r7, #36]
 111 0072 F254     		strb	r2, [r6, r3]
 112              	.LVL11:
 113 0074 0834     		adds	r4, r4, #8
 114 0076 0133     		adds	r3, r3, #1
 237:/opt/XMClib/XMC_Peripheral_Library_v2.1.16/XMCLib/src/xmc_usbd.c ****       for (i = 0U;(temp_word_count + i) < byte_count;i++)
 115              		.loc 1 237 0 is_stmt 1 discriminator 3
 116 0078 7345     		cmp	r3, lr
 117 007a F5D1     		bne	.L6
 118              	.LVL12:
 119              	.L5:
 240:/opt/XMClib/XMC_Peripheral_Library_v2.1.16/XMCLib/src/xmc_usbd.c ****       }
 241:/opt/XMClib/XMC_Peripheral_Library_v2.1.16/XMCLib/src/xmc_usbd.c ****     }
 242:/opt/XMClib/XMC_Peripheral_Library_v2.1.16/XMCLib/src/xmc_usbd.c **** 
 243:/opt/XMClib/XMC_Peripheral_Library_v2.1.16/XMCLib/src/xmc_usbd.c ****     /* save the amount of data */
 244:/opt/XMClib/XMC_Peripheral_Library_v2.1.16/XMCLib/src/xmc_usbd.c ****     ep->xferCount += byte_count;
 120              		.loc 1 244 0
 121 007c 054B     		ldr	r3, .L14
 122 007e 3422     		movs	r2, #52
 123 0080 02FB0030 		mla	r0, r2, r0, r3
 124              	.LVL13:
 125 0084 C36A     		ldr	r3, [r0, #44]
 126 0086 0B44     		add	r3, r3, r1
 127 0088 C362     		str	r3, [r0, #44]
 245:/opt/XMClib/XMC_Peripheral_Library_v2.1.16/XMCLib/src/xmc_usbd.c ****     ep->xferBuffer += byte_count;
 128              		.loc 1 245 0
 129 008a 436A     		ldr	r3, [r0, #36]
 130 008c 1944     		add	r1, r1, r3
 131              	.LVL14:
 132 008e 4162     		str	r1, [r0, #36]
 246:/opt/XMClib/XMC_Peripheral_Library_v2.1.16/XMCLib/src/xmc_usbd.c ****   }
 247:/opt/XMClib/XMC_Peripheral_Library_v2.1.16/XMCLib/src/xmc_usbd.c **** }
 133              		.loc 1 247 0
 134 0090 F0BD     		pop	{r4, r5, r6, r7, pc}
 135              	.L15:
 136 0092 00BF     		.align	2
 137              	.L14:
 138 0094 00000000 		.word	xmc_device
 139              		.cfi_endproc
 140              	.LFE163:
 142              		.section	.text.XMC_USBD_lFlushTXFifo,"ax",%progbits
 143              		.align	1
 144              		.syntax unified
 145              		.thumb
 146              		.thumb_func
 147              		.fpu fpv4-sp-d16
 149              	XMC_USBD_lFlushTXFifo:
 150              	.LFB165:
 248:/opt/XMClib/XMC_Peripheral_Library_v2.1.16/XMCLib/src/xmc_usbd.c **** 
 249:/opt/XMClib/XMC_Peripheral_Library_v2.1.16/XMCLib/src/xmc_usbd.c **** /**
 250:/opt/XMClib/XMC_Peripheral_Library_v2.1.16/XMCLib/src/xmc_usbd.c ****  * @brief Write data to an endpoint fifo
 251:/opt/XMClib/XMC_Peripheral_Library_v2.1.16/XMCLib/src/xmc_usbd.c ****  *
 252:/opt/XMClib/XMC_Peripheral_Library_v2.1.16/XMCLib/src/xmc_usbd.c ****  * The data from the @ref xfer_buffer gets copied in to the tx fifo of the endpoint until the buffe
 253:/opt/XMClib/XMC_Peripheral_Library_v2.1.16/XMCLib/src/xmc_usbd.c ****  *completely or the tx fifo is full. The transfer values are not updated.
 254:/opt/XMClib/XMC_Peripheral_Library_v2.1.16/XMCLib/src/xmc_usbd.c ****  *
 255:/opt/XMClib/XMC_Peripheral_Library_v2.1.16/XMCLib/src/xmc_usbd.c ****  * @arg[in] ep the endpoint to use
 256:/opt/XMClib/XMC_Peripheral_Library_v2.1.16/XMCLib/src/xmc_usbd.c ****  * @return the number of bytes written to the fifo
 257:/opt/XMClib/XMC_Peripheral_Library_v2.1.16/XMCLib/src/xmc_usbd.c ****  */
 258:/opt/XMClib/XMC_Peripheral_Library_v2.1.16/XMCLib/src/xmc_usbd.c **** static uint32_t XMC_USBD_lWriteFifo(XMC_USBD_EP_t *const ep) 
 259:/opt/XMClib/XMC_Peripheral_Library_v2.1.16/XMCLib/src/xmc_usbd.c **** {
 260:/opt/XMClib/XMC_Peripheral_Library_v2.1.16/XMCLib/src/xmc_usbd.c ****   dtxfsts_data_t freeSpace; 
 261:/opt/XMClib/XMC_Peripheral_Library_v2.1.16/XMCLib/src/xmc_usbd.c ****   volatile uint32_t *fifo;
 262:/opt/XMClib/XMC_Peripheral_Library_v2.1.16/XMCLib/src/xmc_usbd.c ****   uint32_t byte_count;
 263:/opt/XMClib/XMC_Peripheral_Library_v2.1.16/XMCLib/src/xmc_usbd.c ****   uint32_t word_count;
 264:/opt/XMClib/XMC_Peripheral_Library_v2.1.16/XMCLib/src/xmc_usbd.c ****   uint32_t result;
 265:/opt/XMClib/XMC_Peripheral_Library_v2.1.16/XMCLib/src/xmc_usbd.c ****   uint32_t i;
 266:/opt/XMClib/XMC_Peripheral_Library_v2.1.16/XMCLib/src/xmc_usbd.c ****   fifo = xmc_device.fifo[ep->address_u.address_st.number]; /* fifo */
 267:/opt/XMClib/XMC_Peripheral_Library_v2.1.16/XMCLib/src/xmc_usbd.c ****   freeSpace.d32 = xmc_device.endpoint_in_register[ep->address_u.address_st.number]->dtxfsts;
 268:/opt/XMClib/XMC_Peripheral_Library_v2.1.16/XMCLib/src/xmc_usbd.c ****   /* calculate the length and the amount of dwords to copy based on the fifo status */
 269:/opt/XMClib/XMC_Peripheral_Library_v2.1.16/XMCLib/src/xmc_usbd.c ****   byte_count = ep->xferLength - ep->xferCount;
 270:/opt/XMClib/XMC_Peripheral_Library_v2.1.16/XMCLib/src/xmc_usbd.c ****   if (!byte_count)
 271:/opt/XMClib/XMC_Peripheral_Library_v2.1.16/XMCLib/src/xmc_usbd.c ****   {
 272:/opt/XMClib/XMC_Peripheral_Library_v2.1.16/XMCLib/src/xmc_usbd.c ****     result = 0U;
 273:/opt/XMClib/XMC_Peripheral_Library_v2.1.16/XMCLib/src/xmc_usbd.c ****   }
 274:/opt/XMClib/XMC_Peripheral_Library_v2.1.16/XMCLib/src/xmc_usbd.c ****   else
 275:/opt/XMClib/XMC_Peripheral_Library_v2.1.16/XMCLib/src/xmc_usbd.c ****   {
 276:/opt/XMClib/XMC_Peripheral_Library_v2.1.16/XMCLib/src/xmc_usbd.c ****     /* add the unaligned bytes to the word count to compare with the fifo space */
 277:/opt/XMClib/XMC_Peripheral_Library_v2.1.16/XMCLib/src/xmc_usbd.c ****     word_count = ((uint32_t)byte_count + 3U) >> 2U;
 278:/opt/XMClib/XMC_Peripheral_Library_v2.1.16/XMCLib/src/xmc_usbd.c ****     if (word_count > (uint32_t)freeSpace.b.txfspcavail )
 279:/opt/XMClib/XMC_Peripheral_Library_v2.1.16/XMCLib/src/xmc_usbd.c ****     {
 280:/opt/XMClib/XMC_Peripheral_Library_v2.1.16/XMCLib/src/xmc_usbd.c ****       word_count = (uint32_t)freeSpace.b.txfspcavail;
 281:/opt/XMClib/XMC_Peripheral_Library_v2.1.16/XMCLib/src/xmc_usbd.c ****       byte_count = (uint32_t)word_count << (uint32_t)2U;
 282:/opt/XMClib/XMC_Peripheral_Library_v2.1.16/XMCLib/src/xmc_usbd.c ****     }
 283:/opt/XMClib/XMC_Peripheral_Library_v2.1.16/XMCLib/src/xmc_usbd.c **** 
 284:/opt/XMClib/XMC_Peripheral_Library_v2.1.16/XMCLib/src/xmc_usbd.c ****     /* copy data dword wise */
 285:/opt/XMClib/XMC_Peripheral_Library_v2.1.16/XMCLib/src/xmc_usbd.c ****     for (i = 0U; i < word_count;ep->xferBuffer+= 4U)
 286:/opt/XMClib/XMC_Peripheral_Library_v2.1.16/XMCLib/src/xmc_usbd.c ****     {
 287:/opt/XMClib/XMC_Peripheral_Library_v2.1.16/XMCLib/src/xmc_usbd.c ****       *fifo = *(uint32_t*)ep->xferBuffer;
 288:/opt/XMClib/XMC_Peripheral_Library_v2.1.16/XMCLib/src/xmc_usbd.c ****       i++;
 289:/opt/XMClib/XMC_Peripheral_Library_v2.1.16/XMCLib/src/xmc_usbd.c ****     }
 290:/opt/XMClib/XMC_Peripheral_Library_v2.1.16/XMCLib/src/xmc_usbd.c ****     result=byte_count;
 291:/opt/XMClib/XMC_Peripheral_Library_v2.1.16/XMCLib/src/xmc_usbd.c ****   }
 292:/opt/XMClib/XMC_Peripheral_Library_v2.1.16/XMCLib/src/xmc_usbd.c ****   return result;
 293:/opt/XMClib/XMC_Peripheral_Library_v2.1.16/XMCLib/src/xmc_usbd.c **** }
 294:/opt/XMClib/XMC_Peripheral_Library_v2.1.16/XMCLib/src/xmc_usbd.c **** 
 295:/opt/XMClib/XMC_Peripheral_Library_v2.1.16/XMCLib/src/xmc_usbd.c **** /**
 296:/opt/XMClib/XMC_Peripheral_Library_v2.1.16/XMCLib/src/xmc_usbd.c ****  * @brief Flush a tx fifo
 297:/opt/XMClib/XMC_Peripheral_Library_v2.1.16/XMCLib/src/xmc_usbd.c ****  *
 298:/opt/XMClib/XMC_Peripheral_Library_v2.1.16/XMCLib/src/xmc_usbd.c ****  * @param[in] fifo_num Fifo number to flush
 299:/opt/XMClib/XMC_Peripheral_Library_v2.1.16/XMCLib/src/xmc_usbd.c ****  *
 300:/opt/XMClib/XMC_Peripheral_Library_v2.1.16/XMCLib/src/xmc_usbd.c ****  * @note Use 0x10 as parameter to flush all tx fifos.
 301:/opt/XMClib/XMC_Peripheral_Library_v2.1.16/XMCLib/src/xmc_usbd.c ****  */
 302:/opt/XMClib/XMC_Peripheral_Library_v2.1.16/XMCLib/src/xmc_usbd.c **** static void XMC_USBD_lFlushTXFifo(const uint8_t fifo_num) 
 303:/opt/XMClib/XMC_Peripheral_Library_v2.1.16/XMCLib/src/xmc_usbd.c **** {
 151              		.loc 1 303 0
 152              		.cfi_startproc
 153              		@ args = 0, pretend = 0, frame = 8
 154              		@ frame_needed = 0, uses_anonymous_args = 0
 155              		@ link register save eliminated.
 156              	.LVL15:
 157 0000 82B0     		sub	sp, sp, #8
 158              	.LCFI1:
 159              		.cfi_def_cfa_offset 8
 304:/opt/XMClib/XMC_Peripheral_Library_v2.1.16/XMCLib/src/xmc_usbd.c ****   volatile grstctl_t data;  
 305:/opt/XMClib/XMC_Peripheral_Library_v2.1.16/XMCLib/src/xmc_usbd.c ****   uint32_t count;
 306:/opt/XMClib/XMC_Peripheral_Library_v2.1.16/XMCLib/src/xmc_usbd.c ****   data.d32 = 0U;
 160              		.loc 1 306 0
 161 0002 0023     		movs	r3, #0
 162 0004 0193     		str	r3, [sp, #4]
 307:/opt/XMClib/XMC_Peripheral_Library_v2.1.16/XMCLib/src/xmc_usbd.c ****   /*flush fifo */
 308:/opt/XMClib/XMC_Peripheral_Library_v2.1.16/XMCLib/src/xmc_usbd.c ****   data.b.txfflsh = 1U;
 163              		.loc 1 308 0
 164 0006 019B     		ldr	r3, [sp, #4]
 165 0008 43F02003 		orr	r3, r3, #32
 166 000c 0193     		str	r3, [sp, #4]
 309:/opt/XMClib/XMC_Peripheral_Library_v2.1.16/XMCLib/src/xmc_usbd.c ****   data.b.txfnum = fifo_num;
 167              		.loc 1 309 0
 168 000e 019B     		ldr	r3, [sp, #4]
 169 0010 60F38A13 		bfi	r3, r0, #6, #5
 170 0014 0193     		str	r3, [sp, #4]
 310:/opt/XMClib/XMC_Peripheral_Library_v2.1.16/XMCLib/src/xmc_usbd.c ****   xmc_device.global_register->grstctl = data.d32;
 171              		.loc 1 310 0
 172 0016 0C4B     		ldr	r3, .L24
 173 0018 D3F8A031 		ldr	r3, [r3, #416]
 174 001c 019A     		ldr	r2, [sp, #4]
 175 001e 1A61     		str	r2, [r3, #16]
 176              	.LVL16:
 177 0020 4FF47A73 		mov	r3, #1000
 178              	.LVL17:
 179              	.L17:
 311:/opt/XMClib/XMC_Peripheral_Library_v2.1.16/XMCLib/src/xmc_usbd.c ****   for (count = 0U;count < 1000U; count++){}
 180              		.loc 1 311 0 discriminator 3
 181 0024 013B     		subs	r3, r3, #1
 182              	.LVL18:
 183 0026 FDD1     		bne	.L17
 312:/opt/XMClib/XMC_Peripheral_Library_v2.1.16/XMCLib/src/xmc_usbd.c ****   do
 313:/opt/XMClib/XMC_Peripheral_Library_v2.1.16/XMCLib/src/xmc_usbd.c ****   {
 314:/opt/XMClib/XMC_Peripheral_Library_v2.1.16/XMCLib/src/xmc_usbd.c ****    data.d32 = xmc_device.global_register->grstctl;
 184              		.loc 1 314 0
 185 0028 074B     		ldr	r3, .L24
 186              	.LVL19:
 187 002a D3F8A021 		ldr	r2, [r3, #416]
 188              	.L18:
 189              		.loc 1 314 0 is_stmt 0 discriminator 1
 190 002e 1369     		ldr	r3, [r2, #16]
 191 0030 0193     		str	r3, [sp, #4]
 315:/opt/XMClib/XMC_Peripheral_Library_v2.1.16/XMCLib/src/xmc_usbd.c ****   } while (data.b.txfflsh);
 192              		.loc 1 315 0 is_stmt 1 discriminator 1
 193 0032 019B     		ldr	r3, [sp, #4]
 194 0034 13F0200F 		tst	r3, #32
 195 0038 F9D1     		bne	.L18
 196 003a 40F2E933 		movw	r3, #1001
 197              	.L19:
 198              	.LVL20:
 316:/opt/XMClib/XMC_Peripheral_Library_v2.1.16/XMCLib/src/xmc_usbd.c ****     count = 0U;
 317:/opt/XMClib/XMC_Peripheral_Library_v2.1.16/XMCLib/src/xmc_usbd.c ****   while (count++ < 1000U)
 199              		.loc 1 317 0 discriminator 1
 200 003e 013B     		subs	r3, r3, #1
 201              	.LVL21:
 202 0040 FDD1     		bne	.L19
 318:/opt/XMClib/XMC_Peripheral_Library_v2.1.16/XMCLib/src/xmc_usbd.c ****   {
 319:/opt/XMClib/XMC_Peripheral_Library_v2.1.16/XMCLib/src/xmc_usbd.c ****     /* wait 3 phy clocks */
 320:/opt/XMClib/XMC_Peripheral_Library_v2.1.16/XMCLib/src/xmc_usbd.c ****   }
 321:/opt/XMClib/XMC_Peripheral_Library_v2.1.16/XMCLib/src/xmc_usbd.c **** }
 203              		.loc 1 321 0
 204 0042 02B0     		add	sp, sp, #8
 205              	.LCFI2:
 206              		.cfi_def_cfa_offset 0
 207              		@ sp needed
 208 0044 7047     		bx	lr
 209              	.L25:
 210 0046 00BF     		.align	2
 211              	.L24:
 212 0048 00000000 		.word	xmc_device
 213              		.cfi_endproc
 214              	.LFE165:
 216              		.section	.text.XMC_USBD_lFlushRXFifo,"ax",%progbits
 217              		.align	1
 218              		.syntax unified
 219              		.thumb
 220              		.thumb_func
 221              		.fpu fpv4-sp-d16
 223              	XMC_USBD_lFlushRXFifo:
 224              	.LFB166:
 322:/opt/XMClib/XMC_Peripheral_Library_v2.1.16/XMCLib/src/xmc_usbd.c **** 
 323:/opt/XMClib/XMC_Peripheral_Library_v2.1.16/XMCLib/src/xmc_usbd.c **** /**
 324:/opt/XMClib/XMC_Peripheral_Library_v2.1.16/XMCLib/src/xmc_usbd.c ****  * @brief Flush the rx fifo
 325:/opt/XMClib/XMC_Peripheral_Library_v2.1.16/XMCLib/src/xmc_usbd.c ****  */
 326:/opt/XMClib/XMC_Peripheral_Library_v2.1.16/XMCLib/src/xmc_usbd.c **** static void XMC_USBD_lFlushRXFifo(void) 
 327:/opt/XMClib/XMC_Peripheral_Library_v2.1.16/XMCLib/src/xmc_usbd.c **** {
 225              		.loc 1 327 0
 226              		.cfi_startproc
 227              		@ args = 0, pretend = 0, frame = 8
 228              		@ frame_needed = 0, uses_anonymous_args = 0
 229              		@ link register save eliminated.
 230 0000 82B0     		sub	sp, sp, #8
 231              	.LCFI3:
 232              		.cfi_def_cfa_offset 8
 328:/opt/XMClib/XMC_Peripheral_Library_v2.1.16/XMCLib/src/xmc_usbd.c ****   volatile grstctl_t data;  
 329:/opt/XMClib/XMC_Peripheral_Library_v2.1.16/XMCLib/src/xmc_usbd.c ****   uint32_t count;
 330:/opt/XMClib/XMC_Peripheral_Library_v2.1.16/XMCLib/src/xmc_usbd.c **** 	
 331:/opt/XMClib/XMC_Peripheral_Library_v2.1.16/XMCLib/src/xmc_usbd.c **** 	data.d32 = 0U;
 233              		.loc 1 331 0
 234 0002 0023     		movs	r3, #0
 235 0004 0193     		str	r3, [sp, #4]
 332:/opt/XMClib/XMC_Peripheral_Library_v2.1.16/XMCLib/src/xmc_usbd.c ****   data.b.rxfflsh = 1U;
 236              		.loc 1 332 0
 237 0006 019B     		ldr	r3, [sp, #4]
 238 0008 43F01003 		orr	r3, r3, #16
 239 000c 0193     		str	r3, [sp, #4]
 333:/opt/XMClib/XMC_Peripheral_Library_v2.1.16/XMCLib/src/xmc_usbd.c ****   /* flush FIFO */
 334:/opt/XMClib/XMC_Peripheral_Library_v2.1.16/XMCLib/src/xmc_usbd.c ****   xmc_device.global_register->grstctl = data.d32;
 240              		.loc 1 334 0
 241 000e 0B4B     		ldr	r3, .L34
 242 0010 D3F8A021 		ldr	r2, [r3, #416]
 243 0014 0199     		ldr	r1, [sp, #4]
 244 0016 1161     		str	r1, [r2, #16]
 335:/opt/XMClib/XMC_Peripheral_Library_v2.1.16/XMCLib/src/xmc_usbd.c ****   do
 336:/opt/XMClib/XMC_Peripheral_Library_v2.1.16/XMCLib/src/xmc_usbd.c ****   {
 337:/opt/XMClib/XMC_Peripheral_Library_v2.1.16/XMCLib/src/xmc_usbd.c ****     for (count = 0U; count < 1000U; count++){}
 338:/opt/XMClib/XMC_Peripheral_Library_v2.1.16/XMCLib/src/xmc_usbd.c ****     data.d32 = xmc_device.global_register->grstctl;
 245              		.loc 1 338 0
 246 0018 D3F8A021 		ldr	r2, [r3, #416]
 247              	.L28:
 248              	.LVL22:
 327:/opt/XMClib/XMC_Peripheral_Library_v2.1.16/XMCLib/src/xmc_usbd.c ****   volatile grstctl_t data;  
 249              		.loc 1 327 0
 250 001c 4FF47A73 		mov	r3, #1000
 251              	.LVL23:
 252              	.L27:
 337:/opt/XMClib/XMC_Peripheral_Library_v2.1.16/XMCLib/src/xmc_usbd.c ****     data.d32 = xmc_device.global_register->grstctl;
 253              		.loc 1 337 0 discriminator 3
 254 0020 013B     		subs	r3, r3, #1
 255              	.LVL24:
 256 0022 FDD1     		bne	.L27
 257              		.loc 1 338 0
 258 0024 1369     		ldr	r3, [r2, #16]
 259              	.LVL25:
 260 0026 0193     		str	r3, [sp, #4]
 339:/opt/XMClib/XMC_Peripheral_Library_v2.1.16/XMCLib/src/xmc_usbd.c ****   } while (data.b.rxfflsh);
 261              		.loc 1 339 0
 262 0028 019B     		ldr	r3, [sp, #4]
 263 002a 13F0100F 		tst	r3, #16
 264 002e F5D1     		bne	.L28
 265 0030 40F2E933 		movw	r3, #1001
 266              	.L29:
 267              	.LVL26:
 340:/opt/XMClib/XMC_Peripheral_Library_v2.1.16/XMCLib/src/xmc_usbd.c ****   count = 0U;
 341:/opt/XMClib/XMC_Peripheral_Library_v2.1.16/XMCLib/src/xmc_usbd.c ****   while (count++ < 1000U)
 268              		.loc 1 341 0 discriminator 1
 269 0034 013B     		subs	r3, r3, #1
 270              	.LVL27:
 271 0036 FDD1     		bne	.L29
 342:/opt/XMClib/XMC_Peripheral_Library_v2.1.16/XMCLib/src/xmc_usbd.c ****   {
 343:/opt/XMClib/XMC_Peripheral_Library_v2.1.16/XMCLib/src/xmc_usbd.c ****     /* wait 3 phy clocks */
 344:/opt/XMClib/XMC_Peripheral_Library_v2.1.16/XMCLib/src/xmc_usbd.c ****   }
 345:/opt/XMClib/XMC_Peripheral_Library_v2.1.16/XMCLib/src/xmc_usbd.c **** }
 272              		.loc 1 345 0
 273 0038 02B0     		add	sp, sp, #8
 274              	.LCFI4:
 275              		.cfi_def_cfa_offset 0
 276              		@ sp needed
 277 003a 7047     		bx	lr
 278              	.L35:
 279              		.align	2
 280              	.L34:
 281 003c 00000000 		.word	xmc_device
 282              		.cfi_endproc
 283              	.LFE166:
 285              		.section	.text.XMC_USBD_lStartReadXfer,"ax",%progbits
 286              		.align	1
 287              		.syntax unified
 288              		.thumb
 289              		.thumb_func
 290              		.fpu fpv4-sp-d16
 292              	XMC_USBD_lStartReadXfer:
 293              	.LFB169:
 346:/opt/XMClib/XMC_Peripheral_Library_v2.1.16/XMCLib/src/xmc_usbd.c **** 
 347:/opt/XMClib/XMC_Peripheral_Library_v2.1.16/XMCLib/src/xmc_usbd.c **** /*
 348:/opt/XMClib/XMC_Peripheral_Library_v2.1.16/XMCLib/src/xmc_usbd.c ****  * Support Functions
 349:/opt/XMClib/XMC_Peripheral_Library_v2.1.16/XMCLib/src/xmc_usbd.c ****  */
 350:/opt/XMClib/XMC_Peripheral_Library_v2.1.16/XMCLib/src/xmc_usbd.c **** 
 351:/opt/XMClib/XMC_Peripheral_Library_v2.1.16/XMCLib/src/xmc_usbd.c **** /**
 352:/opt/XMClib/XMC_Peripheral_Library_v2.1.16/XMCLib/src/xmc_usbd.c ****  * @brief Assign a free tx fifo
 353:/opt/XMClib/XMC_Peripheral_Library_v2.1.16/XMCLib/src/xmc_usbd.c ****  *
 354:/opt/XMClib/XMC_Peripheral_Library_v2.1.16/XMCLib/src/xmc_usbd.c ****  * A free tx fifo will be searched and the number will be returned.
 355:/opt/XMClib/XMC_Peripheral_Library_v2.1.16/XMCLib/src/xmc_usbd.c ****  *
 356:/opt/XMClib/XMC_Peripheral_Library_v2.1.16/XMCLib/src/xmc_usbd.c ****  * @return Fifo number for a free fifo
 357:/opt/XMClib/XMC_Peripheral_Library_v2.1.16/XMCLib/src/xmc_usbd.c ****  */
 358:/opt/XMClib/XMC_Peripheral_Library_v2.1.16/XMCLib/src/xmc_usbd.c **** static uint8_t XMC_USBD_lAssignTXFifo(void) 
 359:/opt/XMClib/XMC_Peripheral_Library_v2.1.16/XMCLib/src/xmc_usbd.c **** {
 360:/opt/XMClib/XMC_Peripheral_Library_v2.1.16/XMCLib/src/xmc_usbd.c ****   uint16_t mask = 1U;
 361:/opt/XMClib/XMC_Peripheral_Library_v2.1.16/XMCLib/src/xmc_usbd.c ****   uint8_t i = 0U;
 362:/opt/XMClib/XMC_Peripheral_Library_v2.1.16/XMCLib/src/xmc_usbd.c ****   uint8_t result = 0U;
 363:/opt/XMClib/XMC_Peripheral_Library_v2.1.16/XMCLib/src/xmc_usbd.c ****   while( (i < (uint8_t)XMC_USBD_NUM_TX_FIFOS)&&((xmc_device.txfifomsk & mask) != 0U))
 364:/opt/XMClib/XMC_Peripheral_Library_v2.1.16/XMCLib/src/xmc_usbd.c ****   {
 365:/opt/XMClib/XMC_Peripheral_Library_v2.1.16/XMCLib/src/xmc_usbd.c ****     mask = (uint16_t)(mask << 1U);
 366:/opt/XMClib/XMC_Peripheral_Library_v2.1.16/XMCLib/src/xmc_usbd.c ****     i++;
 367:/opt/XMClib/XMC_Peripheral_Library_v2.1.16/XMCLib/src/xmc_usbd.c ****   }
 368:/opt/XMClib/XMC_Peripheral_Library_v2.1.16/XMCLib/src/xmc_usbd.c ****   if ((xmc_device.txfifomsk & mask) == 0U)
 369:/opt/XMClib/XMC_Peripheral_Library_v2.1.16/XMCLib/src/xmc_usbd.c ****   {
 370:/opt/XMClib/XMC_Peripheral_Library_v2.1.16/XMCLib/src/xmc_usbd.c ****     xmc_device.txfifomsk |= mask;
 371:/opt/XMClib/XMC_Peripheral_Library_v2.1.16/XMCLib/src/xmc_usbd.c ****     result=i;
 372:/opt/XMClib/XMC_Peripheral_Library_v2.1.16/XMCLib/src/xmc_usbd.c ****   }
 373:/opt/XMClib/XMC_Peripheral_Library_v2.1.16/XMCLib/src/xmc_usbd.c ****   return result;
 374:/opt/XMClib/XMC_Peripheral_Library_v2.1.16/XMCLib/src/xmc_usbd.c **** }
 375:/opt/XMClib/XMC_Peripheral_Library_v2.1.16/XMCLib/src/xmc_usbd.c **** 
 376:/opt/XMClib/XMC_Peripheral_Library_v2.1.16/XMCLib/src/xmc_usbd.c **** /**
 377:/opt/XMClib/XMC_Peripheral_Library_v2.1.16/XMCLib/src/xmc_usbd.c ****  * @brief Free a tx fifo
 378:/opt/XMClib/XMC_Peripheral_Library_v2.1.16/XMCLib/src/xmc_usbd.c ****  *
 379:/opt/XMClib/XMC_Peripheral_Library_v2.1.16/XMCLib/src/xmc_usbd.c ****  * Mark an used tx fifo as free.
 380:/opt/XMClib/XMC_Peripheral_Library_v2.1.16/XMCLib/src/xmc_usbd.c ****  * @param[in] fifo_nr Fifo number to free
 381:/opt/XMClib/XMC_Peripheral_Library_v2.1.16/XMCLib/src/xmc_usbd.c ****  */
 382:/opt/XMClib/XMC_Peripheral_Library_v2.1.16/XMCLib/src/xmc_usbd.c **** static void XMC_USBD_lUnassignFifo(const uint8_t fifo_nr) 
 383:/opt/XMClib/XMC_Peripheral_Library_v2.1.16/XMCLib/src/xmc_usbd.c **** {
 384:/opt/XMClib/XMC_Peripheral_Library_v2.1.16/XMCLib/src/xmc_usbd.c ****   xmc_device.txfifomsk = (uint16_t)((uint32_t)xmc_device.txfifomsk & (uint32_t)(~((uint32_t)((uint3
 385:/opt/XMClib/XMC_Peripheral_Library_v2.1.16/XMCLib/src/xmc_usbd.c **** }
 386:/opt/XMClib/XMC_Peripheral_Library_v2.1.16/XMCLib/src/xmc_usbd.c **** 
 387:/opt/XMClib/XMC_Peripheral_Library_v2.1.16/XMCLib/src/xmc_usbd.c **** /**
 388:/opt/XMClib/XMC_Peripheral_Library_v2.1.16/XMCLib/src/xmc_usbd.c ****  * @brief Start a transfer for an out endpoint
 389:/opt/XMClib/XMC_Peripheral_Library_v2.1.16/XMCLib/src/xmc_usbd.c ****  *
 390:/opt/XMClib/XMC_Peripheral_Library_v2.1.16/XMCLib/src/xmc_usbd.c ****  * Based on the transfer values of the endpoint, the out endpoint registers will be programmed
 391:/opt/XMClib/XMC_Peripheral_Library_v2.1.16/XMCLib/src/xmc_usbd.c ****  * to start a new out transfer.
 392:/opt/XMClib/XMC_Peripheral_Library_v2.1.16/XMCLib/src/xmc_usbd.c ****  *
 393:/opt/XMClib/XMC_Peripheral_Library_v2.1.16/XMCLib/src/xmc_usbd.c ****  * @note No checking of the transfer values are done in this function. Be sure,
 394:/opt/XMClib/XMC_Peripheral_Library_v2.1.16/XMCLib/src/xmc_usbd.c ****  * that the transfer values are reasonable (e.g. buffer size is not exceeded).
 395:/opt/XMClib/XMC_Peripheral_Library_v2.1.16/XMCLib/src/xmc_usbd.c ****  *
 396:/opt/XMClib/XMC_Peripheral_Library_v2.1.16/XMCLib/src/xmc_usbd.c ****  * @param[in] ep Endpoint to start the transfer
 397:/opt/XMClib/XMC_Peripheral_Library_v2.1.16/XMCLib/src/xmc_usbd.c ****  */
 398:/opt/XMClib/XMC_Peripheral_Library_v2.1.16/XMCLib/src/xmc_usbd.c **** static void XMC_USBD_lStartReadXfer(XMC_USBD_EP_t *const ep) 
 399:/opt/XMClib/XMC_Peripheral_Library_v2.1.16/XMCLib/src/xmc_usbd.c **** {
 294              		.loc 1 399 0
 295              		.cfi_startproc
 296              		@ args = 0, pretend = 0, frame = 0
 297              		@ frame_needed = 0, uses_anonymous_args = 0
 298              		@ link register save eliminated.
 299              	.LVL28:
 300 0000 30B4     		push	{r4, r5}
 301              	.LCFI5:
 302              		.cfi_def_cfa_offset 8
 303              		.cfi_offset 4, -8
 304              		.cfi_offset 5, -4
 400:/opt/XMClib/XMC_Peripheral_Library_v2.1.16/XMCLib/src/xmc_usbd.c ****   deptsiz_data_t data;
 401:/opt/XMClib/XMC_Peripheral_Library_v2.1.16/XMCLib/src/xmc_usbd.c ****   depctl_data_t epctl;
 402:/opt/XMClib/XMC_Peripheral_Library_v2.1.16/XMCLib/src/xmc_usbd.c **** 	
 403:/opt/XMClib/XMC_Peripheral_Library_v2.1.16/XMCLib/src/xmc_usbd.c ****   data.d32 =  0U;
 305              		.loc 1 403 0
 306 0002 0021     		movs	r1, #0
 307              	.LVL29:
 404:/opt/XMClib/XMC_Peripheral_Library_v2.1.16/XMCLib/src/xmc_usbd.c ****   if ((ep->xferTotal - ep->xferLength) > ep->maxTransferSize)
 308              		.loc 1 404 0
 309 0004 046B     		ldr	r4, [r0, #48]
 310 0006 826A     		ldr	r2, [r0, #40]
 311 0008 8368     		ldr	r3, [r0, #8]
 312 000a C3F31203 		ubfx	r3, r3, #0, #19
 313 000e A51A     		subs	r5, r4, r2
 314 0010 9D42     		cmp	r5, r3
 405:/opt/XMClib/XMC_Peripheral_Library_v2.1.16/XMCLib/src/xmc_usbd.c ****   {
 406:/opt/XMClib/XMC_Peripheral_Library_v2.1.16/XMCLib/src/xmc_usbd.c ****     ep->xferLength += ep->maxTransferSize;
 315              		.loc 1 406 0
 316 0012 86BF     		itte	hi
 317 0014 9B18     		addhi	r3, r3, r2
 318 0016 8362     		strhi	r3, [r0, #40]
 407:/opt/XMClib/XMC_Peripheral_Library_v2.1.16/XMCLib/src/xmc_usbd.c ****   }
 408:/opt/XMClib/XMC_Peripheral_Library_v2.1.16/XMCLib/src/xmc_usbd.c ****   else
 409:/opt/XMClib/XMC_Peripheral_Library_v2.1.16/XMCLib/src/xmc_usbd.c ****   {
 410:/opt/XMClib/XMC_Peripheral_Library_v2.1.16/XMCLib/src/xmc_usbd.c ****     ep->xferLength = ep->xferTotal;
 319              		.loc 1 410 0
 320 0018 8462     		strls	r4, [r0, #40]
 411:/opt/XMClib/XMC_Peripheral_Library_v2.1.16/XMCLib/src/xmc_usbd.c ****   }
 412:/opt/XMClib/XMC_Peripheral_Library_v2.1.16/XMCLib/src/xmc_usbd.c ****   if (ep->address_u.address_st.number == 0U)
 321              		.loc 1 412 0
 322 001a 0378     		ldrb	r3, [r0]	@ zero_extendqisi2
 323 001c 13F00F0F 		tst	r3, #15
 324 0020 2AD1     		bne	.L39
 325              	.LVL30:
 326              	.LBB2:
 413:/opt/XMClib/XMC_Peripheral_Library_v2.1.16/XMCLib/src/xmc_usbd.c ****   {
 414:/opt/XMClib/XMC_Peripheral_Library_v2.1.16/XMCLib/src/xmc_usbd.c **** 	/* Setup the endpoint to receive 3 setup packages and one normal package.*/
 415:/opt/XMClib/XMC_Peripheral_Library_v2.1.16/XMCLib/src/xmc_usbd.c **** 	/* Cast the data pointer to use only one variable */
 416:/opt/XMClib/XMC_Peripheral_Library_v2.1.16/XMCLib/src/xmc_usbd.c ****     deptsiz0_data_t *ep0_data = (deptsiz0_data_t*)&data;
 417:/opt/XMClib/XMC_Peripheral_Library_v2.1.16/XMCLib/src/xmc_usbd.c ****     ep0_data->b.pktcnt = 0x1U;
 327              		.loc 1 417 0
 328 0022 0123     		movs	r3, #1
 329 0024 63F3D441 		bfi	r1, r3, #19, #2
 330              	.LVL31:
 418:/opt/XMClib/XMC_Peripheral_Library_v2.1.16/XMCLib/src/xmc_usbd.c ****     ep0_data->b.supcnt = 0x3U;
 331              		.loc 1 418 0
 332 0028 41F0C041 		orr	r1, r1, #1610612736
 333              	.LVL32:
 419:/opt/XMClib/XMC_Peripheral_Library_v2.1.16/XMCLib/src/xmc_usbd.c ****     ep0_data->b.xfersize = (uint8_t)ep->xferTotal;
 334              		.loc 1 419 0
 335 002c 64F30601 		bfi	r1, r4, #0, #7
 336              	.LVL33:
 337              	.L40:
 338              	.LBE2:
 420:/opt/XMClib/XMC_Peripheral_Library_v2.1.16/XMCLib/src/xmc_usbd.c ****   }
 421:/opt/XMClib/XMC_Peripheral_Library_v2.1.16/XMCLib/src/xmc_usbd.c ****   else
 422:/opt/XMClib/XMC_Peripheral_Library_v2.1.16/XMCLib/src/xmc_usbd.c ****   {
 423:/opt/XMClib/XMC_Peripheral_Library_v2.1.16/XMCLib/src/xmc_usbd.c ****     /* If requested length is zero, just receive one zero length packet */
 424:/opt/XMClib/XMC_Peripheral_Library_v2.1.16/XMCLib/src/xmc_usbd.c ****     if (ep->xferLength == 0U)
 425:/opt/XMClib/XMC_Peripheral_Library_v2.1.16/XMCLib/src/xmc_usbd.c ****     {
 426:/opt/XMClib/XMC_Peripheral_Library_v2.1.16/XMCLib/src/xmc_usbd.c ****       data.b.xfersize = 0U;
 427:/opt/XMClib/XMC_Peripheral_Library_v2.1.16/XMCLib/src/xmc_usbd.c ****       data.b.pktcnt = 1U;
 428:/opt/XMClib/XMC_Peripheral_Library_v2.1.16/XMCLib/src/xmc_usbd.c ****     }
 429:/opt/XMClib/XMC_Peripheral_Library_v2.1.16/XMCLib/src/xmc_usbd.c ****     else
 430:/opt/XMClib/XMC_Peripheral_Library_v2.1.16/XMCLib/src/xmc_usbd.c ****     {
 431:/opt/XMClib/XMC_Peripheral_Library_v2.1.16/XMCLib/src/xmc_usbd.c ****       /* setup endpoint to recive a amount of packages by given size */
 432:/opt/XMClib/XMC_Peripheral_Library_v2.1.16/XMCLib/src/xmc_usbd.c ****       data.b.pktcnt = (uint16_t)(((ep->xferLength - ep->xferCount) + (ep->maxPacketSize -(uint32_t)
 433:/opt/XMClib/XMC_Peripheral_Library_v2.1.16/XMCLib/src/xmc_usbd.c ****       data.b.xfersize =(uint32_t)(ep->xferLength - ep->xferCount);
 434:/opt/XMClib/XMC_Peripheral_Library_v2.1.16/XMCLib/src/xmc_usbd.c ****     }
 435:/opt/XMClib/XMC_Peripheral_Library_v2.1.16/XMCLib/src/xmc_usbd.c ****   }
 436:/opt/XMClib/XMC_Peripheral_Library_v2.1.16/XMCLib/src/xmc_usbd.c ****   if(usbd_init->usbd_transfer_mode == XMC_USBD_USE_DMA)
 339              		.loc 1 436 0
 340 0030 1C4B     		ldr	r3, .L44
 341 0032 1B68     		ldr	r3, [r3]
 342 0034 5B7B     		ldrb	r3, [r3, #13]	@ zero_extendqisi2
 343 0036 4BB9     		cbnz	r3, .L42
 437:/opt/XMClib/XMC_Peripheral_Library_v2.1.16/XMCLib/src/xmc_usbd.c ****   {
 438:/opt/XMClib/XMC_Peripheral_Library_v2.1.16/XMCLib/src/xmc_usbd.c ****     /* Programm dma address if needed */
 439:/opt/XMClib/XMC_Peripheral_Library_v2.1.16/XMCLib/src/xmc_usbd.c ****     xmc_device.endpoint_out_register[ep->address_u.address_st.number]->doepdma = (uint32_t)(ep->xfe
 344              		.loc 1 439 0
 345 0038 0378     		ldrb	r3, [r0]	@ zero_extendqisi2
 346 003a 03F00F02 		and	r2, r3, #15
 347 003e 1A4B     		ldr	r3, .L44+4
 348 0040 03EB8203 		add	r3, r3, r2, lsl #2
 349 0044 D3F8C431 		ldr	r3, [r3, #452]
 350 0048 426A     		ldr	r2, [r0, #36]
 351 004a 5A61     		str	r2, [r3, #20]
 352              	.L42:
 440:/opt/XMClib/XMC_Peripheral_Library_v2.1.16/XMCLib/src/xmc_usbd.c ****   }
 441:/opt/XMClib/XMC_Peripheral_Library_v2.1.16/XMCLib/src/xmc_usbd.c ****   /* setup endpoint size and enable endpoint */
 442:/opt/XMClib/XMC_Peripheral_Library_v2.1.16/XMCLib/src/xmc_usbd.c ****   xmc_device.endpoint_out_register[ep->address_u.address_st.number]->doeptsiz = data.d32;
 353              		.loc 1 442 0
 354 004c 164A     		ldr	r2, .L44+4
 355 004e 0378     		ldrb	r3, [r0]	@ zero_extendqisi2
 356 0050 03F00F03 		and	r3, r3, #15
 357 0054 02EB8303 		add	r3, r2, r3, lsl #2
 358 0058 D3F8C431 		ldr	r3, [r3, #452]
 359 005c 1961     		str	r1, [r3, #16]
 443:/opt/XMClib/XMC_Peripheral_Library_v2.1.16/XMCLib/src/xmc_usbd.c ****  
 444:/opt/XMClib/XMC_Peripheral_Library_v2.1.16/XMCLib/src/xmc_usbd.c ****   epctl.d32 = xmc_device.endpoint_out_register[ep->address_u.address_st.number]->doepctl;
 360              		.loc 1 444 0
 361 005e 0378     		ldrb	r3, [r0]	@ zero_extendqisi2
 362 0060 03F00F03 		and	r3, r3, #15
 363 0064 02EB8302 		add	r2, r2, r3, lsl #2
 364 0068 D2F8C421 		ldr	r2, [r2, #452]
 365 006c 1368     		ldr	r3, [r2]
 445:/opt/XMClib/XMC_Peripheral_Library_v2.1.16/XMCLib/src/xmc_usbd.c ****   epctl.b.cnak = 1U;
 446:/opt/XMClib/XMC_Peripheral_Library_v2.1.16/XMCLib/src/xmc_usbd.c ****   epctl.b.epena = 1U;
 366              		.loc 1 446 0
 367 006e 43F00443 		orr	r3, r3, #-2080374784
 368              	.LVL34:
 447:/opt/XMClib/XMC_Peripheral_Library_v2.1.16/XMCLib/src/xmc_usbd.c ****   xmc_device.endpoint_out_register[ep->address_u.address_st.number]->doepctl = epctl.d32;
 369              		.loc 1 447 0
 370 0072 1360     		str	r3, [r2]
 448:/opt/XMClib/XMC_Peripheral_Library_v2.1.16/XMCLib/src/xmc_usbd.c **** }
 371              		.loc 1 448 0
 372 0074 30BC     		pop	{r4, r5}
 373              	.LCFI6:
 374              		.cfi_remember_state
 375              		.cfi_restore 5
 376              		.cfi_restore 4
 377              		.cfi_def_cfa_offset 0
 378 0076 7047     		bx	lr
 379              	.LVL35:
 380              	.L39:
 381              	.LCFI7:
 382              		.cfi_restore_state
 424:/opt/XMClib/XMC_Peripheral_Library_v2.1.16/XMCLib/src/xmc_usbd.c ****     {
 383              		.loc 1 424 0
 384 0078 836A     		ldr	r3, [r0, #40]
 385 007a 2BB9     		cbnz	r3, .L41
 426:/opt/XMClib/XMC_Peripheral_Library_v2.1.16/XMCLib/src/xmc_usbd.c ****       data.b.pktcnt = 1U;
 386              		.loc 1 426 0
 387 007c 6FF31201 		bfc	r1, #0, #19
 388              	.LVL36:
 427:/opt/XMClib/XMC_Peripheral_Library_v2.1.16/XMCLib/src/xmc_usbd.c ****     }
 389              		.loc 1 427 0
 390 0080 0123     		movs	r3, #1
 391 0082 63F3DC41 		bfi	r1, r3, #19, #10
 392 0086 D3E7     		b	.L40
 393              	.LVL37:
 394              	.L41:
 432:/opt/XMClib/XMC_Peripheral_Library_v2.1.16/XMCLib/src/xmc_usbd.c ****       data.b.xfersize =(uint32_t)(ep->xferLength - ep->xferCount);
 395              		.loc 1 432 0
 396 0088 C26A     		ldr	r2, [r0, #44]
 397 008a 9B1A     		subs	r3, r3, r2
 398 008c 4268     		ldr	r2, [r0, #4]
 399 008e C2F3C624 		ubfx	r4, r2, #11, #7
 400 0092 1A19     		adds	r2, r3, r4
 401 0094 013A     		subs	r2, r2, #1
 402 0096 B2FBF4F2 		udiv	r2, r2, r4
 403 009a 62F3DC41 		bfi	r1, r2, #19, #10
 404              	.LVL38:
 433:/opt/XMClib/XMC_Peripheral_Library_v2.1.16/XMCLib/src/xmc_usbd.c ****     }
 405              		.loc 1 433 0
 406 009e 63F31201 		bfi	r1, r3, #0, #19
 407 00a2 C5E7     		b	.L40
 408              	.L45:
 409              		.align	2
 410              	.L44:
 411 00a4 00000000 		.word	usbd_init
 412 00a8 00000000 		.word	xmc_device
 413              		.cfi_endproc
 414              	.LFE169:
 416              		.section	.text.XMC_USBD_lStartWriteXfer,"ax",%progbits
 417              		.align	1
 418              		.syntax unified
 419              		.thumb
 420              		.thumb_func
 421              		.fpu fpv4-sp-d16
 423              	XMC_USBD_lStartWriteXfer:
 424              	.LFB170:
 449:/opt/XMClib/XMC_Peripheral_Library_v2.1.16/XMCLib/src/xmc_usbd.c **** 
 450:/opt/XMClib/XMC_Peripheral_Library_v2.1.16/XMCLib/src/xmc_usbd.c **** /**
 451:/opt/XMClib/XMC_Peripheral_Library_v2.1.16/XMCLib/src/xmc_usbd.c ****  * @brief Start a new in transfer
 452:/opt/XMClib/XMC_Peripheral_Library_v2.1.16/XMCLib/src/xmc_usbd.c ****  *
 453:/opt/XMClib/XMC_Peripheral_Library_v2.1.16/XMCLib/src/xmc_usbd.c ****  * Based on the transfer values of the endpoint the in endpoint registers will be programmed
 454:/opt/XMClib/XMC_Peripheral_Library_v2.1.16/XMCLib/src/xmc_usbd.c ****  * to start a new in transfer
 455:/opt/XMClib/XMC_Peripheral_Library_v2.1.16/XMCLib/src/xmc_usbd.c ****  *
 456:/opt/XMClib/XMC_Peripheral_Library_v2.1.16/XMCLib/src/xmc_usbd.c ****  * @param[in] ep Endpoint to start the transfer
 457:/opt/XMClib/XMC_Peripheral_Library_v2.1.16/XMCLib/src/xmc_usbd.c ****  */
 458:/opt/XMClib/XMC_Peripheral_Library_v2.1.16/XMCLib/src/xmc_usbd.c **** static void XMC_USBD_lStartWriteXfer(XMC_USBD_EP_t *const ep) 
 459:/opt/XMClib/XMC_Peripheral_Library_v2.1.16/XMCLib/src/xmc_usbd.c **** {
 425              		.loc 1 459 0
 426              		.cfi_startproc
 427              		@ args = 0, pretend = 0, frame = 0
 428              		@ frame_needed = 0, uses_anonymous_args = 0
 429              		@ link register save eliminated.
 430              	.LVL39:
 431 0000 70B4     		push	{r4, r5, r6}
 432              	.LCFI8:
 433              		.cfi_def_cfa_offset 12
 434              		.cfi_offset 4, -12
 435              		.cfi_offset 5, -8
 436              		.cfi_offset 6, -4
 460:/opt/XMClib/XMC_Peripheral_Library_v2.1.16/XMCLib/src/xmc_usbd.c ****   deptsiz_data_t size;
 461:/opt/XMClib/XMC_Peripheral_Library_v2.1.16/XMCLib/src/xmc_usbd.c ****   depctl_data_t ctl;
 462:/opt/XMClib/XMC_Peripheral_Library_v2.1.16/XMCLib/src/xmc_usbd.c **** 	
 463:/opt/XMClib/XMC_Peripheral_Library_v2.1.16/XMCLib/src/xmc_usbd.c ****   size.d32 = 0U;  
 437              		.loc 1 463 0
 438 0002 0021     		movs	r1, #0
 439              	.LVL40:
 464:/opt/XMClib/XMC_Peripheral_Library_v2.1.16/XMCLib/src/xmc_usbd.c ****   ctl.d32 = xmc_device.endpoint_in_register[ep->address_u.address_st.number]->diepctl;
 440              		.loc 1 464 0
 441 0004 0378     		ldrb	r3, [r0]	@ zero_extendqisi2
 442 0006 03F00F03 		and	r3, r3, #15
 443 000a 6A33     		adds	r3, r3, #106
 444 000c 304A     		ldr	r2, .L56
 445 000e 52F82330 		ldr	r3, [r2, r3, lsl #2]
 446 0012 1A68     		ldr	r2, [r3]
 447              	.LVL41:
 465:/opt/XMClib/XMC_Peripheral_Library_v2.1.16/XMCLib/src/xmc_usbd.c **** 
 466:/opt/XMClib/XMC_Peripheral_Library_v2.1.16/XMCLib/src/xmc_usbd.c ****   if ((ep->xferTotal - ep->xferLength)  < ep->maxTransferSize)
 448              		.loc 1 466 0
 449 0014 056B     		ldr	r5, [r0, #48]
 450 0016 846A     		ldr	r4, [r0, #40]
 451 0018 8368     		ldr	r3, [r0, #8]
 452 001a C3F31203 		ubfx	r3, r3, #0, #19
 453 001e 2E1B     		subs	r6, r5, r4
 454 0020 9E42     		cmp	r6, r3
 467:/opt/XMClib/XMC_Peripheral_Library_v2.1.16/XMCLib/src/xmc_usbd.c ****   {
 468:/opt/XMClib/XMC_Peripheral_Library_v2.1.16/XMCLib/src/xmc_usbd.c ****     ep->xferLength = ep->xferTotal;
 455              		.loc 1 468 0
 456 0022 32BF     		itee	cc
 457 0024 8562     		strcc	r5, [r0, #40]
 469:/opt/XMClib/XMC_Peripheral_Library_v2.1.16/XMCLib/src/xmc_usbd.c ****   }
 470:/opt/XMClib/XMC_Peripheral_Library_v2.1.16/XMCLib/src/xmc_usbd.c ****   else
 471:/opt/XMClib/XMC_Peripheral_Library_v2.1.16/XMCLib/src/xmc_usbd.c ****   {
 472:/opt/XMClib/XMC_Peripheral_Library_v2.1.16/XMCLib/src/xmc_usbd.c ****     ep->xferLength += ep->maxTransferSize;
 458              		.loc 1 472 0
 459 0026 1B19     		addcs	r3, r3, r4
 460 0028 8362     		strcs	r3, [r0, #40]
 473:/opt/XMClib/XMC_Peripheral_Library_v2.1.16/XMCLib/src/xmc_usbd.c ****   }
 474:/opt/XMClib/XMC_Peripheral_Library_v2.1.16/XMCLib/src/xmc_usbd.c ****   if (ep->xferLength == 0U)
 461              		.loc 1 474 0
 462 002a 836A     		ldr	r3, [r0, #40]
 463 002c 33B3     		cbz	r3, .L55
 475:/opt/XMClib/XMC_Peripheral_Library_v2.1.16/XMCLib/src/xmc_usbd.c ****   {
 476:/opt/XMClib/XMC_Peripheral_Library_v2.1.16/XMCLib/src/xmc_usbd.c ****     size.b.xfersize = 0U;
 477:/opt/XMClib/XMC_Peripheral_Library_v2.1.16/XMCLib/src/xmc_usbd.c ****     size.b.pktcnt = 1U;
 478:/opt/XMClib/XMC_Peripheral_Library_v2.1.16/XMCLib/src/xmc_usbd.c ****   }
 479:/opt/XMClib/XMC_Peripheral_Library_v2.1.16/XMCLib/src/xmc_usbd.c ****   else
 480:/opt/XMClib/XMC_Peripheral_Library_v2.1.16/XMCLib/src/xmc_usbd.c ****   {
 481:/opt/XMClib/XMC_Peripheral_Library_v2.1.16/XMCLib/src/xmc_usbd.c ****     if (ep->address_u.address_st.number == 0U)
 464              		.loc 1 481 0
 465 002e 0478     		ldrb	r4, [r0]	@ zero_extendqisi2
 466 0030 14F00F0F 		tst	r4, #15
 467 0034 3AD1     		bne	.L51
 482:/opt/XMClib/XMC_Peripheral_Library_v2.1.16/XMCLib/src/xmc_usbd.c ****     {
 483:/opt/XMClib/XMC_Peripheral_Library_v2.1.16/XMCLib/src/xmc_usbd.c ****       size.b.pktcnt = 1U;
 468              		.loc 1 483 0
 469 0036 0124     		movs	r4, #1
 470 0038 64F3DC41 		bfi	r1, r4, #19, #10
 471              	.LVL42:
 484:/opt/XMClib/XMC_Peripheral_Library_v2.1.16/XMCLib/src/xmc_usbd.c ****       /* ep->maxXferSize equals maxPacketSize */
 485:/opt/XMClib/XMC_Peripheral_Library_v2.1.16/XMCLib/src/xmc_usbd.c ****       size.b.xfersize = (uint32_t)(ep->xferLength - ep->xferCount);
 472              		.loc 1 485 0
 473 003c C46A     		ldr	r4, [r0, #44]
 474 003e 1B1B     		subs	r3, r3, r4
 475 0040 63F31201 		bfi	r1, r3, #0, #19
 476              	.L52:
 486:/opt/XMClib/XMC_Peripheral_Library_v2.1.16/XMCLib/src/xmc_usbd.c ****     }
 487:/opt/XMClib/XMC_Peripheral_Library_v2.1.16/XMCLib/src/xmc_usbd.c ****     else
 488:/opt/XMClib/XMC_Peripheral_Library_v2.1.16/XMCLib/src/xmc_usbd.c ****     {
 489:/opt/XMClib/XMC_Peripheral_Library_v2.1.16/XMCLib/src/xmc_usbd.c ****       size.b.xfersize =(uint32_t)(ep->xferLength - ep->xferCount);
 490:/opt/XMClib/XMC_Peripheral_Library_v2.1.16/XMCLib/src/xmc_usbd.c ****       size.b.pktcnt = (uint16_t)(((uint16_t)(ep->xferLength - ep->xferCount) + (uint16_t)((uint16_t
 491:/opt/XMClib/XMC_Peripheral_Library_v2.1.16/XMCLib/src/xmc_usbd.c ****     		 ep->maxPacketSize);
 492:/opt/XMClib/XMC_Peripheral_Library_v2.1.16/XMCLib/src/xmc_usbd.c ****     }
 493:/opt/XMClib/XMC_Peripheral_Library_v2.1.16/XMCLib/src/xmc_usbd.c ****     if(usbd_init->usbd_transfer_mode == XMC_USBD_USE_DMA)
 477              		.loc 1 493 0
 478 0044 234B     		ldr	r3, .L56+4
 479 0046 1B68     		ldr	r3, [r3]
 480 0048 5C7B     		ldrb	r4, [r3, #13]	@ zero_extendqisi2
 481 004a 44B9     		cbnz	r4, .L53
 494:/opt/XMClib/XMC_Peripheral_Library_v2.1.16/XMCLib/src/xmc_usbd.c ****     {
 495:/opt/XMClib/XMC_Peripheral_Library_v2.1.16/XMCLib/src/xmc_usbd.c ****       /* Program dma*/
 496:/opt/XMClib/XMC_Peripheral_Library_v2.1.16/XMCLib/src/xmc_usbd.c ****       xmc_device.endpoint_in_register[ep->address_u.address_st.number]->diepdma = (uint32_t)ep->xfe
 482              		.loc 1 496 0
 483 004c 0478     		ldrb	r4, [r0]	@ zero_extendqisi2
 484 004e 04F00F04 		and	r4, r4, #15
 485 0052 6A34     		adds	r4, r4, #106
 486 0054 1E4D     		ldr	r5, .L56
 487 0056 55F82440 		ldr	r4, [r5, r4, lsl #2]
 488 005a 456A     		ldr	r5, [r0, #36]
 489 005c 6561     		str	r5, [r4, #20]
 490              	.L53:
 497:/opt/XMClib/XMC_Peripheral_Library_v2.1.16/XMCLib/src/xmc_usbd.c ****     }
 498:/opt/XMClib/XMC_Peripheral_Library_v2.1.16/XMCLib/src/xmc_usbd.c ****     if(usbd_init->usbd_transfer_mode == XMC_USBD_USE_FIFO)
 491              		.loc 1 498 0
 492 005e 5B7B     		ldrb	r3, [r3, #13]	@ zero_extendqisi2
 493 0060 012B     		cmp	r3, #1
 494 0062 10D1     		bne	.L50
 499:/opt/XMClib/XMC_Peripheral_Library_v2.1.16/XMCLib/src/xmc_usbd.c ****     {
 500:/opt/XMClib/XMC_Peripheral_Library_v2.1.16/XMCLib/src/xmc_usbd.c ****       /* enable fifo empty interrupt */
 501:/opt/XMClib/XMC_Peripheral_Library_v2.1.16/XMCLib/src/xmc_usbd.c **** 			xmc_device.device_register->dtknqr4_fifoemptymsk |= (uint32_t)((uint32_t)1U << (uint8_t)ep->addr
 495              		.loc 1 501 0
 496 0064 1A4B     		ldr	r3, .L56
 497 0066 D3F8A451 		ldr	r5, [r3, #420]
 498 006a 6E6B     		ldr	r6, [r5, #52]
 499 006c 0378     		ldrb	r3, [r0]	@ zero_extendqisi2
 500 006e 03F00F04 		and	r4, r3, #15
 501 0072 0123     		movs	r3, #1
 502 0074 A340     		lsls	r3, r3, r4
 503 0076 3343     		orrs	r3, r3, r6
 504 0078 6B63     		str	r3, [r5, #52]
 505 007a 04E0     		b	.L50
 506              	.LVL43:
 507              	.L55:
 476:/opt/XMClib/XMC_Peripheral_Library_v2.1.16/XMCLib/src/xmc_usbd.c ****     size.b.pktcnt = 1U;
 508              		.loc 1 476 0
 509 007c 6FF31201 		bfc	r1, #0, #19
 510              	.LVL44:
 477:/opt/XMClib/XMC_Peripheral_Library_v2.1.16/XMCLib/src/xmc_usbd.c ****   }
 511              		.loc 1 477 0
 512 0080 0123     		movs	r3, #1
 513 0082 63F3DC41 		bfi	r1, r3, #19, #10
 514              	.L50:
 502:/opt/XMClib/XMC_Peripheral_Library_v2.1.16/XMCLib/src/xmc_usbd.c ****     }
 503:/opt/XMClib/XMC_Peripheral_Library_v2.1.16/XMCLib/src/xmc_usbd.c ****   }
 504:/opt/XMClib/XMC_Peripheral_Library_v2.1.16/XMCLib/src/xmc_usbd.c **** 
 505:/opt/XMClib/XMC_Peripheral_Library_v2.1.16/XMCLib/src/xmc_usbd.c ****   /* Program size of transfer and enable endpoint */
 506:/opt/XMClib/XMC_Peripheral_Library_v2.1.16/XMCLib/src/xmc_usbd.c ****   xmc_device.endpoint_in_register[ep->address_u.address_st.number]->dieptsiz = size.d32;
 515              		.loc 1 506 0
 516 0086 124C     		ldr	r4, .L56
 517 0088 0378     		ldrb	r3, [r0]	@ zero_extendqisi2
 518 008a 03F00F03 		and	r3, r3, #15
 519 008e 6A33     		adds	r3, r3, #106
 520 0090 54F82330 		ldr	r3, [r4, r3, lsl #2]
 521 0094 1961     		str	r1, [r3, #16]
 507:/opt/XMClib/XMC_Peripheral_Library_v2.1.16/XMCLib/src/xmc_usbd.c ****   ctl.b.epena = 1U;
 508:/opt/XMClib/XMC_Peripheral_Library_v2.1.16/XMCLib/src/xmc_usbd.c ****   ctl.b.cnak = 1U;
 522              		.loc 1 508 0
 523 0096 42F00442 		orr	r2, r2, #-2080374784
 524              	.LVL45:
 509:/opt/XMClib/XMC_Peripheral_Library_v2.1.16/XMCLib/src/xmc_usbd.c ****   xmc_device.endpoint_in_register[ep->address_u.address_st.number]->diepctl = ctl.d32;
 525              		.loc 1 509 0
 526 009a 0378     		ldrb	r3, [r0]	@ zero_extendqisi2
 527 009c 03F00F03 		and	r3, r3, #15
 528 00a0 6A33     		adds	r3, r3, #106
 529 00a2 54F82330 		ldr	r3, [r4, r3, lsl #2]
 530              	.LVL46:
 531 00a6 1A60     		str	r2, [r3]
 510:/opt/XMClib/XMC_Peripheral_Library_v2.1.16/XMCLib/src/xmc_usbd.c **** }
 532              		.loc 1 510 0
 533 00a8 70BC     		pop	{r4, r5, r6}
 534              	.LCFI9:
 535              		.cfi_remember_state
 536              		.cfi_restore 6
 537              		.cfi_restore 5
 538              		.cfi_restore 4
 539              		.cfi_def_cfa_offset 0
 540 00aa 7047     		bx	lr
 541              	.LVL47:
 542              	.L51:
 543              	.LCFI10:
 544              		.cfi_restore_state
 489:/opt/XMClib/XMC_Peripheral_Library_v2.1.16/XMCLib/src/xmc_usbd.c ****       size.b.pktcnt = (uint16_t)(((uint16_t)(ep->xferLength - ep->xferCount) + (uint16_t)((uint16_t
 545              		.loc 1 489 0
 546 00ac C56A     		ldr	r5, [r0, #44]
 547 00ae 5C1B     		subs	r4, r3, r5
 548 00b0 64F31201 		bfi	r1, r4, #0, #19
 549              	.LVL48:
 490:/opt/XMClib/XMC_Peripheral_Library_v2.1.16/XMCLib/src/xmc_usbd.c ****     		 ep->maxPacketSize);
 550              		.loc 1 490 0
 551 00b4 4468     		ldr	r4, [r0, #4]
 552 00b6 C4F3C624 		ubfx	r4, r4, #11, #7
 553 00ba 5B1B     		subs	r3, r3, r5
 554 00bc 651E     		subs	r5, r4, #1
 555 00be ADB2     		uxth	r5, r5
 556 00c0 15FA83F3 		uxtah	r3, r5, r3
 557 00c4 93FBF4F3 		sdiv	r3, r3, r4
 558 00c8 63F3DC41 		bfi	r1, r3, #19, #10
 559 00cc BAE7     		b	.L52
 560              	.L57:
 561 00ce 00BF     		.align	2
 562              	.L56:
 563 00d0 00000000 		.word	xmc_device
 564 00d4 00000000 		.word	usbd_init
 565              		.cfi_endproc
 566              	.LFE170:
 568              		.section	.text.XMC_USBD_GetCapabilities,"ax",%progbits
 569              		.align	1
 570              		.global	XMC_USBD_GetCapabilities
 571              		.syntax unified
 572              		.thumb
 573              		.thumb_func
 574              		.fpu fpv4-sp-d16
 576              	XMC_USBD_GetCapabilities:
 577              	.LFB186:
 511:/opt/XMClib/XMC_Peripheral_Library_v2.1.16/XMCLib/src/xmc_usbd.c **** 
 512:/opt/XMClib/XMC_Peripheral_Library_v2.1.16/XMCLib/src/xmc_usbd.c **** 
 513:/opt/XMClib/XMC_Peripheral_Library_v2.1.16/XMCLib/src/xmc_usbd.c **** /**
 514:/opt/XMClib/XMC_Peripheral_Library_v2.1.16/XMCLib/src/xmc_usbd.c ****  * @brief Handles the USBD reset interrupt
 515:/opt/XMClib/XMC_Peripheral_Library_v2.1.16/XMCLib/src/xmc_usbd.c ****  *
 516:/opt/XMClib/XMC_Peripheral_Library_v2.1.16/XMCLib/src/xmc_usbd.c ****  * When ever the host sets the bus into reset condition the usb otg_core generates
 517:/opt/XMClib/XMC_Peripheral_Library_v2.1.16/XMCLib/src/xmc_usbd.c ****  * an interrupt, which is handled by this function. It resets the complete otg_core
 518:/opt/XMClib/XMC_Peripheral_Library_v2.1.16/XMCLib/src/xmc_usbd.c ****  * into the default state.
 519:/opt/XMClib/XMC_Peripheral_Library_v2.1.16/XMCLib/src/xmc_usbd.c ****  */
 520:/opt/XMClib/XMC_Peripheral_Library_v2.1.16/XMCLib/src/xmc_usbd.c **** static void XMC_USBD_lHandleUSBReset(const XMC_USBD_t *const obj) 
 521:/opt/XMClib/XMC_Peripheral_Library_v2.1.16/XMCLib/src/xmc_usbd.c **** {
 522:/opt/XMClib/XMC_Peripheral_Library_v2.1.16/XMCLib/src/xmc_usbd.c ****   uint32_t i;
 523:/opt/XMClib/XMC_Peripheral_Library_v2.1.16/XMCLib/src/xmc_usbd.c ****   depctl_data_t epctl;
 524:/opt/XMClib/XMC_Peripheral_Library_v2.1.16/XMCLib/src/xmc_usbd.c ****   dctl_data_t dctl;
 525:/opt/XMClib/XMC_Peripheral_Library_v2.1.16/XMCLib/src/xmc_usbd.c ****   fifosize_data_t gnptxfsiz;
 526:/opt/XMClib/XMC_Peripheral_Library_v2.1.16/XMCLib/src/xmc_usbd.c ****   daint_data_t daint;
 527:/opt/XMClib/XMC_Peripheral_Library_v2.1.16/XMCLib/src/xmc_usbd.c ****   dcfg_data_t dcfg;
 528:/opt/XMClib/XMC_Peripheral_Library_v2.1.16/XMCLib/src/xmc_usbd.c **** 	
 529:/opt/XMClib/XMC_Peripheral_Library_v2.1.16/XMCLib/src/xmc_usbd.c ****   /* Clear the Remote Wakeup Signaling */
 530:/opt/XMClib/XMC_Peripheral_Library_v2.1.16/XMCLib/src/xmc_usbd.c ****   dctl.d32 = xmc_device.device_register->dctl;
 531:/opt/XMClib/XMC_Peripheral_Library_v2.1.16/XMCLib/src/xmc_usbd.c ****   dctl.b.rmtwkupsig = 1U;
 532:/opt/XMClib/XMC_Peripheral_Library_v2.1.16/XMCLib/src/xmc_usbd.c ****   xmc_device.device_register->dctl = dctl.d32;
 533:/opt/XMClib/XMC_Peripheral_Library_v2.1.16/XMCLib/src/xmc_usbd.c **** 
 534:/opt/XMClib/XMC_Peripheral_Library_v2.1.16/XMCLib/src/xmc_usbd.c ****   /* enable naks for all eps */
 535:/opt/XMClib/XMC_Peripheral_Library_v2.1.16/XMCLib/src/xmc_usbd.c ****   for (i = 0U;i < (uint8_t)XMC_USBD_NUM_EPS;i++)
 536:/opt/XMClib/XMC_Peripheral_Library_v2.1.16/XMCLib/src/xmc_usbd.c ****   {
 537:/opt/XMClib/XMC_Peripheral_Library_v2.1.16/XMCLib/src/xmc_usbd.c ****     epctl.d32 = xmc_device.endpoint_out_register[i]->doepctl;
 538:/opt/XMClib/XMC_Peripheral_Library_v2.1.16/XMCLib/src/xmc_usbd.c **** 		epctl.b.snak = 1U;
 539:/opt/XMClib/XMC_Peripheral_Library_v2.1.16/XMCLib/src/xmc_usbd.c **** 		epctl.b.stall = 0U;
 540:/opt/XMClib/XMC_Peripheral_Library_v2.1.16/XMCLib/src/xmc_usbd.c **** 		xmc_device.endpoint_out_register[i]->doepctl = epctl.d32;
 541:/opt/XMClib/XMC_Peripheral_Library_v2.1.16/XMCLib/src/xmc_usbd.c ****   }
 542:/opt/XMClib/XMC_Peripheral_Library_v2.1.16/XMCLib/src/xmc_usbd.c **** 
 543:/opt/XMClib/XMC_Peripheral_Library_v2.1.16/XMCLib/src/xmc_usbd.c ****   /* Configure fifos */
 544:/opt/XMClib/XMC_Peripheral_Library_v2.1.16/XMCLib/src/xmc_usbd.c ****   /* Calculate the size of the rx fifo */
 545:/opt/XMClib/XMC_Peripheral_Library_v2.1.16/XMCLib/src/xmc_usbd.c ****   xmc_device.global_register->grxfsiz = 64U;
 546:/opt/XMClib/XMC_Peripheral_Library_v2.1.16/XMCLib/src/xmc_usbd.c ****   /* Calculate the size of the tx fifo for ep 0 */  
 547:/opt/XMClib/XMC_Peripheral_Library_v2.1.16/XMCLib/src/xmc_usbd.c ****   gnptxfsiz.d32 = 0U;
 548:/opt/XMClib/XMC_Peripheral_Library_v2.1.16/XMCLib/src/xmc_usbd.c ****   gnptxfsiz.b.depth = 16U;
 549:/opt/XMClib/XMC_Peripheral_Library_v2.1.16/XMCLib/src/xmc_usbd.c ****   gnptxfsiz.b.startaddr = 64U;
 550:/opt/XMClib/XMC_Peripheral_Library_v2.1.16/XMCLib/src/xmc_usbd.c ****   xmc_device.global_register->gnptxfsiz = gnptxfsiz.d32;
 551:/opt/XMClib/XMC_Peripheral_Library_v2.1.16/XMCLib/src/xmc_usbd.c ****   /* calculate the size for the rest */
 552:/opt/XMClib/XMC_Peripheral_Library_v2.1.16/XMCLib/src/xmc_usbd.c ****   for (i = 1U;i < (uint8_t)XMC_USBD_NUM_TX_FIFOS;i++)
 553:/opt/XMClib/XMC_Peripheral_Library_v2.1.16/XMCLib/src/xmc_usbd.c ****   {
 554:/opt/XMClib/XMC_Peripheral_Library_v2.1.16/XMCLib/src/xmc_usbd.c ****     xmc_device.global_register->dtxfsiz[i- 1U] = (uint32_t)(((256U + (i*(64U)))/4U) | ((uint32_t)16
 555:/opt/XMClib/XMC_Peripheral_Library_v2.1.16/XMCLib/src/xmc_usbd.c ****   }
 556:/opt/XMClib/XMC_Peripheral_Library_v2.1.16/XMCLib/src/xmc_usbd.c **** 
 557:/opt/XMClib/XMC_Peripheral_Library_v2.1.16/XMCLib/src/xmc_usbd.c ****   /* flush the fifos for proper operation */
 558:/opt/XMClib/XMC_Peripheral_Library_v2.1.16/XMCLib/src/xmc_usbd.c ****   XMC_USBD_lFlushTXFifo(0x10U); /* 0x10 == all fifos, see doc */
 559:/opt/XMClib/XMC_Peripheral_Library_v2.1.16/XMCLib/src/xmc_usbd.c ****   XMC_USBD_lFlushTXFifo(0x0U);
 560:/opt/XMClib/XMC_Peripheral_Library_v2.1.16/XMCLib/src/xmc_usbd.c ****   XMC_USBD_lFlushRXFifo();
 561:/opt/XMClib/XMC_Peripheral_Library_v2.1.16/XMCLib/src/xmc_usbd.c ****   /* Flush learning queue not needed due to fifo config */
 562:/opt/XMClib/XMC_Peripheral_Library_v2.1.16/XMCLib/src/xmc_usbd.c ****   /* enable ep0 interrupts */  
 563:/opt/XMClib/XMC_Peripheral_Library_v2.1.16/XMCLib/src/xmc_usbd.c ****   daint.d32 = 0U;
 564:/opt/XMClib/XMC_Peripheral_Library_v2.1.16/XMCLib/src/xmc_usbd.c ****   daint.b.inep0 = 1U;
 565:/opt/XMClib/XMC_Peripheral_Library_v2.1.16/XMCLib/src/xmc_usbd.c ****   daint.b.outep0 = 1U;
 566:/opt/XMClib/XMC_Peripheral_Library_v2.1.16/XMCLib/src/xmc_usbd.c ****   xmc_device.device_register->daintmsk = daint.d32;
 567:/opt/XMClib/XMC_Peripheral_Library_v2.1.16/XMCLib/src/xmc_usbd.c **** 
 568:/opt/XMClib/XMC_Peripheral_Library_v2.1.16/XMCLib/src/xmc_usbd.c ****   /* enable endpoint interrupts */
 569:/opt/XMClib/XMC_Peripheral_Library_v2.1.16/XMCLib/src/xmc_usbd.c ****   /* out ep interrupts */
 570:/opt/XMClib/XMC_Peripheral_Library_v2.1.16/XMCLib/src/xmc_usbd.c ****   XMC_USBD_EnableEventOUTEP(((uint32_t)XMC_USBD_EVENT_OUT_EP_TX_COMPLET | (uint32_t)XMC_USBD_EVENT_
 571:/opt/XMClib/XMC_Peripheral_Library_v2.1.16/XMCLib/src/xmc_usbd.c **** 		  	  	  	  	  	  (uint32_t)XMC_USBD_EVENT_OUT_EP_SETUP | (uint32_t)XMC_USBD_EVENT_OUT_EP_AHB_ERRO
 572:/opt/XMClib/XMC_Peripheral_Library_v2.1.16/XMCLib/src/xmc_usbd.c **** 
 573:/opt/XMClib/XMC_Peripheral_Library_v2.1.16/XMCLib/src/xmc_usbd.c ****   /*in ep interrupts */
 574:/opt/XMClib/XMC_Peripheral_Library_v2.1.16/XMCLib/src/xmc_usbd.c ****   XMC_USBD_EnableEventINEP(((uint32_t)XMC_USBD_EVENT_IN_EP_TX_COMPLET | (uint32_t)XMC_USBD_EVENT_IN
 575:/opt/XMClib/XMC_Peripheral_Library_v2.1.16/XMCLib/src/xmc_usbd.c **** 		  (uint32_t)XMC_USBD_EVENT_IN_EP_AHB_ERROR | (uint32_t)XMC_USBD_EVENT_IN_EP_TIMEOUT));
 576:/opt/XMClib/XMC_Peripheral_Library_v2.1.16/XMCLib/src/xmc_usbd.c **** 
 577:/opt/XMClib/XMC_Peripheral_Library_v2.1.16/XMCLib/src/xmc_usbd.c **** 
 578:/opt/XMClib/XMC_Peripheral_Library_v2.1.16/XMCLib/src/xmc_usbd.c ****   /* Clear device Address */  
 579:/opt/XMClib/XMC_Peripheral_Library_v2.1.16/XMCLib/src/xmc_usbd.c ****   dcfg.d32 = xmc_device.device_register->dcfg;
 580:/opt/XMClib/XMC_Peripheral_Library_v2.1.16/XMCLib/src/xmc_usbd.c ****   dcfg.b.devaddr = 0U;
 581:/opt/XMClib/XMC_Peripheral_Library_v2.1.16/XMCLib/src/xmc_usbd.c ****   xmc_device.device_register->dcfg = dcfg.d32;
 582:/opt/XMClib/XMC_Peripheral_Library_v2.1.16/XMCLib/src/xmc_usbd.c **** 
 583:/opt/XMClib/XMC_Peripheral_Library_v2.1.16/XMCLib/src/xmc_usbd.c ****   if(obj->usbd_transfer_mode == XMC_USBD_USE_FIFO)
 584:/opt/XMClib/XMC_Peripheral_Library_v2.1.16/XMCLib/src/xmc_usbd.c ****   {
 585:/opt/XMClib/XMC_Peripheral_Library_v2.1.16/XMCLib/src/xmc_usbd.c ****     /* Clear Empty interrupt */
 586:/opt/XMClib/XMC_Peripheral_Library_v2.1.16/XMCLib/src/xmc_usbd.c ****     xmc_device.device_register->dtknqr4_fifoemptymsk = 0U;
 587:/opt/XMClib/XMC_Peripheral_Library_v2.1.16/XMCLib/src/xmc_usbd.c ****   }
 588:/opt/XMClib/XMC_Peripheral_Library_v2.1.16/XMCLib/src/xmc_usbd.c **** 
 589:/opt/XMClib/XMC_Peripheral_Library_v2.1.16/XMCLib/src/xmc_usbd.c ****   xmc_device.ep[0U].outInUse = 0U;
 590:/opt/XMClib/XMC_Peripheral_Library_v2.1.16/XMCLib/src/xmc_usbd.c ****   xmc_device.ep[0U].inInUse = 0U;
 591:/opt/XMClib/XMC_Peripheral_Library_v2.1.16/XMCLib/src/xmc_usbd.c **** 
 592:/opt/XMClib/XMC_Peripheral_Library_v2.1.16/XMCLib/src/xmc_usbd.c ****   xmc_device.DeviceEvent_cb(XMC_USBD_EVENT_RESET);
 593:/opt/XMClib/XMC_Peripheral_Library_v2.1.16/XMCLib/src/xmc_usbd.c **** 
 594:/opt/XMClib/XMC_Peripheral_Library_v2.1.16/XMCLib/src/xmc_usbd.c ****   /* clear reset intr */
 595:/opt/XMClib/XMC_Peripheral_Library_v2.1.16/XMCLib/src/xmc_usbd.c ****   XMC_USBD_ClearEvent(XMC_USBD_EVENT_RESET);
 596:/opt/XMClib/XMC_Peripheral_Library_v2.1.16/XMCLib/src/xmc_usbd.c **** }
 597:/opt/XMClib/XMC_Peripheral_Library_v2.1.16/XMCLib/src/xmc_usbd.c **** 
 598:/opt/XMClib/XMC_Peripheral_Library_v2.1.16/XMCLib/src/xmc_usbd.c **** /**
 599:/opt/XMClib/XMC_Peripheral_Library_v2.1.16/XMCLib/src/xmc_usbd.c **** * @brief Handle OTG Interrupt
 600:/opt/XMClib/XMC_Peripheral_Library_v2.1.16/XMCLib/src/xmc_usbd.c **** *
 601:/opt/XMClib/XMC_Peripheral_Library_v2.1.16/XMCLib/src/xmc_usbd.c **** * It detects especially connect and disconnect events.
 602:/opt/XMClib/XMC_Peripheral_Library_v2.1.16/XMCLib/src/xmc_usbd.c **** */
 603:/opt/XMClib/XMC_Peripheral_Library_v2.1.16/XMCLib/src/xmc_usbd.c **** static void XMC_USBD_lHandleOTGInt(void) 
 604:/opt/XMClib/XMC_Peripheral_Library_v2.1.16/XMCLib/src/xmc_usbd.c **** {
 605:/opt/XMClib/XMC_Peripheral_Library_v2.1.16/XMCLib/src/xmc_usbd.c ****   gotgint_data_t data;
 606:/opt/XMClib/XMC_Peripheral_Library_v2.1.16/XMCLib/src/xmc_usbd.c ****   data.d32 = xmc_device.global_register->gotgint;
 607:/opt/XMClib/XMC_Peripheral_Library_v2.1.16/XMCLib/src/xmc_usbd.c ****   if (data.b.sesenddet)
 608:/opt/XMClib/XMC_Peripheral_Library_v2.1.16/XMCLib/src/xmc_usbd.c ****   {
 609:/opt/XMClib/XMC_Peripheral_Library_v2.1.16/XMCLib/src/xmc_usbd.c **** 		xmc_device.IsPowered = 0U;
 610:/opt/XMClib/XMC_Peripheral_Library_v2.1.16/XMCLib/src/xmc_usbd.c **** 		xmc_device.DeviceEvent_cb(XMC_USBD_EVENT_POWER_OFF);
 611:/opt/XMClib/XMC_Peripheral_Library_v2.1.16/XMCLib/src/xmc_usbd.c ****   }
 612:/opt/XMClib/XMC_Peripheral_Library_v2.1.16/XMCLib/src/xmc_usbd.c ****   XMC_USBD_lClearEventOTG(data.d32);
 613:/opt/XMClib/XMC_Peripheral_Library_v2.1.16/XMCLib/src/xmc_usbd.c **** 
 614:/opt/XMClib/XMC_Peripheral_Library_v2.1.16/XMCLib/src/xmc_usbd.c **** }
 615:/opt/XMClib/XMC_Peripheral_Library_v2.1.16/XMCLib/src/xmc_usbd.c **** 
 616:/opt/XMClib/XMC_Peripheral_Library_v2.1.16/XMCLib/src/xmc_usbd.c **** /**
 617:/opt/XMClib/XMC_Peripheral_Library_v2.1.16/XMCLib/src/xmc_usbd.c ****  * @brief Interrupt handler for device enumeration done.
 618:/opt/XMClib/XMC_Peripheral_Library_v2.1.16/XMCLib/src/xmc_usbd.c ****  *
 619:/opt/XMClib/XMC_Peripheral_Library_v2.1.16/XMCLib/src/xmc_usbd.c ****  * Handles the enumeration done from dwc_otg, when the host has enumerated the device.
 620:/opt/XMClib/XMC_Peripheral_Library_v2.1.16/XMCLib/src/xmc_usbd.c ****  */
 621:/opt/XMClib/XMC_Peripheral_Library_v2.1.16/XMCLib/src/xmc_usbd.c **** static void XMC_USBD_lHandleEnumDone(void) 
 622:/opt/XMClib/XMC_Peripheral_Library_v2.1.16/XMCLib/src/xmc_usbd.c **** {
 623:/opt/XMClib/XMC_Peripheral_Library_v2.1.16/XMCLib/src/xmc_usbd.c ****   /* Normaly we need to check dctl
 624:/opt/XMClib/XMC_Peripheral_Library_v2.1.16/XMCLib/src/xmc_usbd.c ****    * We are always fullspeed, so max it up. */
 625:/opt/XMClib/XMC_Peripheral_Library_v2.1.16/XMCLib/src/xmc_usbd.c ****   depctl_data_t epctl;
 626:/opt/XMClib/XMC_Peripheral_Library_v2.1.16/XMCLib/src/xmc_usbd.c ****   gusbcfg_data_t gusbcfg;
 627:/opt/XMClib/XMC_Peripheral_Library_v2.1.16/XMCLib/src/xmc_usbd.c **** 	
 628:/opt/XMClib/XMC_Peripheral_Library_v2.1.16/XMCLib/src/xmc_usbd.c ****   epctl.d32=xmc_device.endpoint_in_register[0U]->diepctl;
 629:/opt/XMClib/XMC_Peripheral_Library_v2.1.16/XMCLib/src/xmc_usbd.c ****   epctl.b.mps = 0x00U; /* 64 Byte, this is also automatically set for out ep */
 630:/opt/XMClib/XMC_Peripheral_Library_v2.1.16/XMCLib/src/xmc_usbd.c ****   xmc_device.endpoint_in_register[0U]->diepctl = epctl.d32;
 631:/opt/XMClib/XMC_Peripheral_Library_v2.1.16/XMCLib/src/xmc_usbd.c **** 
 632:/opt/XMClib/XMC_Peripheral_Library_v2.1.16/XMCLib/src/xmc_usbd.c ****   /* update device connected flag */
 633:/opt/XMClib/XMC_Peripheral_Library_v2.1.16/XMCLib/src/xmc_usbd.c ****   xmc_device.IsConnected = 1U;
 634:/opt/XMClib/XMC_Peripheral_Library_v2.1.16/XMCLib/src/xmc_usbd.c ****   xmc_device.IsPowered = 1U;
 635:/opt/XMClib/XMC_Peripheral_Library_v2.1.16/XMCLib/src/xmc_usbd.c **** 
 636:/opt/XMClib/XMC_Peripheral_Library_v2.1.16/XMCLib/src/xmc_usbd.c ****   xmc_device.DeviceEvent_cb(XMC_USBD_EVENT_CONNECT);
 637:/opt/XMClib/XMC_Peripheral_Library_v2.1.16/XMCLib/src/xmc_usbd.c **** 
 638:/opt/XMClib/XMC_Peripheral_Library_v2.1.16/XMCLib/src/xmc_usbd.c ****   /* Set Trim */  
 639:/opt/XMClib/XMC_Peripheral_Library_v2.1.16/XMCLib/src/xmc_usbd.c ****   gusbcfg.d32 = xmc_device.global_register->gusbcfg;
 640:/opt/XMClib/XMC_Peripheral_Library_v2.1.16/XMCLib/src/xmc_usbd.c ****   gusbcfg.b.usbtrdtim = 9U; /* default value for LS/FS */
 641:/opt/XMClib/XMC_Peripheral_Library_v2.1.16/XMCLib/src/xmc_usbd.c ****   xmc_device.global_register->gusbcfg = gusbcfg.d32;
 642:/opt/XMClib/XMC_Peripheral_Library_v2.1.16/XMCLib/src/xmc_usbd.c **** 
 643:/opt/XMClib/XMC_Peripheral_Library_v2.1.16/XMCLib/src/xmc_usbd.c ****   /* clear interrupt */
 644:/opt/XMClib/XMC_Peripheral_Library_v2.1.16/XMCLib/src/xmc_usbd.c ****   XMC_USBD_ClearEvent(XMC_USBD_EVENT_ENUMDONE);
 645:/opt/XMClib/XMC_Peripheral_Library_v2.1.16/XMCLib/src/xmc_usbd.c **** }
 646:/opt/XMClib/XMC_Peripheral_Library_v2.1.16/XMCLib/src/xmc_usbd.c **** 
 647:/opt/XMClib/XMC_Peripheral_Library_v2.1.16/XMCLib/src/xmc_usbd.c **** 
 648:/opt/XMClib/XMC_Peripheral_Library_v2.1.16/XMCLib/src/xmc_usbd.c **** /**
 649:/opt/XMClib/XMC_Peripheral_Library_v2.1.16/XMCLib/src/xmc_usbd.c ****  * @brief Handles all interrupts for all out endpoints
 650:/opt/XMClib/XMC_Peripheral_Library_v2.1.16/XMCLib/src/xmc_usbd.c ****  *
 651:/opt/XMClib/XMC_Peripheral_Library_v2.1.16/XMCLib/src/xmc_usbd.c ****  * The interrupt handler first checks, which endpoint has caused the interrupt and then
 652:/opt/XMClib/XMC_Peripheral_Library_v2.1.16/XMCLib/src/xmc_usbd.c ****  * determines, which interrupt should be handled.
 653:/opt/XMClib/XMC_Peripheral_Library_v2.1.16/XMCLib/src/xmc_usbd.c ****  */
 654:/opt/XMClib/XMC_Peripheral_Library_v2.1.16/XMCLib/src/xmc_usbd.c **** static void XMC_USBD_lHandleOEPInt(const XMC_USBD_t *const obj) 
 655:/opt/XMClib/XMC_Peripheral_Library_v2.1.16/XMCLib/src/xmc_usbd.c **** {
 656:/opt/XMClib/XMC_Peripheral_Library_v2.1.16/XMCLib/src/xmc_usbd.c ****   daint_data_t daint;
 657:/opt/XMClib/XMC_Peripheral_Library_v2.1.16/XMCLib/src/xmc_usbd.c ****   daint_data_t daintmsk;
 658:/opt/XMClib/XMC_Peripheral_Library_v2.1.16/XMCLib/src/xmc_usbd.c ****   doepmsk_data_t doepmsk;
 659:/opt/XMClib/XMC_Peripheral_Library_v2.1.16/XMCLib/src/xmc_usbd.c ****   doepint_data_t doepint;
 660:/opt/XMClib/XMC_Peripheral_Library_v2.1.16/XMCLib/src/xmc_usbd.c ****   deptsiz_data_t doeptsiz;
 661:/opt/XMClib/XMC_Peripheral_Library_v2.1.16/XMCLib/src/xmc_usbd.c ****   XMC_USBD_EP_t *ep;
 662:/opt/XMClib/XMC_Peripheral_Library_v2.1.16/XMCLib/src/xmc_usbd.c ****   uint16_t temp;
 663:/opt/XMClib/XMC_Peripheral_Library_v2.1.16/XMCLib/src/xmc_usbd.c ****   uint16_t temp1;
 664:/opt/XMClib/XMC_Peripheral_Library_v2.1.16/XMCLib/src/xmc_usbd.c ****   uint16_t mask;
 665:/opt/XMClib/XMC_Peripheral_Library_v2.1.16/XMCLib/src/xmc_usbd.c ****   uint8_t ep_num;
 666:/opt/XMClib/XMC_Peripheral_Library_v2.1.16/XMCLib/src/xmc_usbd.c **** 	
 667:/opt/XMClib/XMC_Peripheral_Library_v2.1.16/XMCLib/src/xmc_usbd.c ****   daint.d32 = xmc_device.device_register->daint;
 668:/opt/XMClib/XMC_Peripheral_Library_v2.1.16/XMCLib/src/xmc_usbd.c ****   
 669:/opt/XMClib/XMC_Peripheral_Library_v2.1.16/XMCLib/src/xmc_usbd.c ****   daintmsk.d32 = xmc_device.device_register->daintmsk;
 670:/opt/XMClib/XMC_Peripheral_Library_v2.1.16/XMCLib/src/xmc_usbd.c ****   
 671:/opt/XMClib/XMC_Peripheral_Library_v2.1.16/XMCLib/src/xmc_usbd.c ****   doepmsk.d32 = xmc_device.device_register->doepmsk;  
 672:/opt/XMClib/XMC_Peripheral_Library_v2.1.16/XMCLib/src/xmc_usbd.c ****   
 673:/opt/XMClib/XMC_Peripheral_Library_v2.1.16/XMCLib/src/xmc_usbd.c ****   mask = daint.ep.out & daintmsk.ep.out;
 674:/opt/XMClib/XMC_Peripheral_Library_v2.1.16/XMCLib/src/xmc_usbd.c ****   ep_num = 0U;
 675:/opt/XMClib/XMC_Peripheral_Library_v2.1.16/XMCLib/src/xmc_usbd.c ****   doeptsiz.d32 = 0U;
 676:/opt/XMClib/XMC_Peripheral_Library_v2.1.16/XMCLib/src/xmc_usbd.c ****  
 677:/opt/XMClib/XMC_Peripheral_Library_v2.1.16/XMCLib/src/xmc_usbd.c ****   while ((uint16_t)mask >> ep_num)
 678:/opt/XMClib/XMC_Peripheral_Library_v2.1.16/XMCLib/src/xmc_usbd.c ****   {
 679:/opt/XMClib/XMC_Peripheral_Library_v2.1.16/XMCLib/src/xmc_usbd.c ****     temp1 = (mask >> (uint16_t)ep_num);
 680:/opt/XMClib/XMC_Peripheral_Library_v2.1.16/XMCLib/src/xmc_usbd.c ****     temp = temp1 & 0x1U;
 681:/opt/XMClib/XMC_Peripheral_Library_v2.1.16/XMCLib/src/xmc_usbd.c ****     if (temp)
 682:/opt/XMClib/XMC_Peripheral_Library_v2.1.16/XMCLib/src/xmc_usbd.c ****     {
 683:/opt/XMClib/XMC_Peripheral_Library_v2.1.16/XMCLib/src/xmc_usbd.c ****       /* load register data for endpoint */
 684:/opt/XMClib/XMC_Peripheral_Library_v2.1.16/XMCLib/src/xmc_usbd.c ****       ep = &xmc_device.ep[ep_num];
 685:/opt/XMClib/XMC_Peripheral_Library_v2.1.16/XMCLib/src/xmc_usbd.c ****       doepint.d32 = xmc_device.endpoint_out_register[ep_num]->doepint & doepmsk.d32;
 686:/opt/XMClib/XMC_Peripheral_Library_v2.1.16/XMCLib/src/xmc_usbd.c ****       if(obj->usbd_transfer_mode == XMC_USBD_USE_DMA)
 687:/opt/XMClib/XMC_Peripheral_Library_v2.1.16/XMCLib/src/xmc_usbd.c ****       {
 688:/opt/XMClib/XMC_Peripheral_Library_v2.1.16/XMCLib/src/xmc_usbd.c ****         doeptsiz.d32 = xmc_device.endpoint_out_register[ep_num]->doeptsiz;
 689:/opt/XMClib/XMC_Peripheral_Library_v2.1.16/XMCLib/src/xmc_usbd.c ****       }
 690:/opt/XMClib/XMC_Peripheral_Library_v2.1.16/XMCLib/src/xmc_usbd.c **** 	  /* Setup Phase Complete */
 691:/opt/XMClib/XMC_Peripheral_Library_v2.1.16/XMCLib/src/xmc_usbd.c ****       if (doepint.b.setup)
 692:/opt/XMClib/XMC_Peripheral_Library_v2.1.16/XMCLib/src/xmc_usbd.c ****       {
 693:/opt/XMClib/XMC_Peripheral_Library_v2.1.16/XMCLib/src/xmc_usbd.c ****         /* ep0 not stalled any more */
 694:/opt/XMClib/XMC_Peripheral_Library_v2.1.16/XMCLib/src/xmc_usbd.c ****         ep->isStalled = 0U;
 695:/opt/XMClib/XMC_Peripheral_Library_v2.1.16/XMCLib/src/xmc_usbd.c ****         if(obj->usbd_transfer_mode == XMC_USBD_USE_DMA)
 696:/opt/XMClib/XMC_Peripheral_Library_v2.1.16/XMCLib/src/xmc_usbd.c ****         {
 697:/opt/XMClib/XMC_Peripheral_Library_v2.1.16/XMCLib/src/xmc_usbd.c ****           /* calculate size for setup packet */
 698:/opt/XMClib/XMC_Peripheral_Library_v2.1.16/XMCLib/src/xmc_usbd.c **** 		  ep->outBytesAvailable = (uint32_t)(((uint32_t)XMC_USBD_SETUP_COUNT -
 699:/opt/XMClib/XMC_Peripheral_Library_v2.1.16/XMCLib/src/xmc_usbd.c **** 		  (uint32_t)((deptsiz0_data_t*)&doeptsiz)->b.supcnt)*(uint32_t)XMC_USBD_SETUP_SIZE);
 700:/opt/XMClib/XMC_Peripheral_Library_v2.1.16/XMCLib/src/xmc_usbd.c ****         }
 701:/opt/XMClib/XMC_Peripheral_Library_v2.1.16/XMCLib/src/xmc_usbd.c **** 		if(obj->usbd_transfer_mode == XMC_USBD_USE_FIFO)
 702:/opt/XMClib/XMC_Peripheral_Library_v2.1.16/XMCLib/src/xmc_usbd.c **** 		{
 703:/opt/XMClib/XMC_Peripheral_Library_v2.1.16/XMCLib/src/xmc_usbd.c **** 			ep->outBytesAvailable += ep->xferCount;
 704:/opt/XMClib/XMC_Peripheral_Library_v2.1.16/XMCLib/src/xmc_usbd.c **** 		}
 705:/opt/XMClib/XMC_Peripheral_Library_v2.1.16/XMCLib/src/xmc_usbd.c **** 		ep->outInUse = 0U;
 706:/opt/XMClib/XMC_Peripheral_Library_v2.1.16/XMCLib/src/xmc_usbd.c **** 		xmc_device.EndpointEvent_cb(0U,XMC_USBD_EP_EVENT_SETUP); /* signal endpoint event */
 707:/opt/XMClib/XMC_Peripheral_Library_v2.1.16/XMCLib/src/xmc_usbd.c **** 				/* clear the interrupt */
 708:/opt/XMClib/XMC_Peripheral_Library_v2.1.16/XMCLib/src/xmc_usbd.c **** 		XMC_USBD_ClearEventOUTEP((uint32_t)XMC_USBD_EVENT_OUT_EP_SETUP,ep_num);
 709:/opt/XMClib/XMC_Peripheral_Library_v2.1.16/XMCLib/src/xmc_usbd.c ****       }
 710:/opt/XMClib/XMC_Peripheral_Library_v2.1.16/XMCLib/src/xmc_usbd.c ****       if (doepint.b.xfercompl)
 711:/opt/XMClib/XMC_Peripheral_Library_v2.1.16/XMCLib/src/xmc_usbd.c ****       {
 712:/opt/XMClib/XMC_Peripheral_Library_v2.1.16/XMCLib/src/xmc_usbd.c ****         if(obj->usbd_transfer_mode == XMC_USBD_USE_DMA)
 713:/opt/XMClib/XMC_Peripheral_Library_v2.1.16/XMCLib/src/xmc_usbd.c ****         {
 714:/opt/XMClib/XMC_Peripheral_Library_v2.1.16/XMCLib/src/xmc_usbd.c ****           uint32_t bytes = (ep->xferLength - ep->xferCount) - doeptsiz.b.xfersize;
 715:/opt/XMClib/XMC_Peripheral_Library_v2.1.16/XMCLib/src/xmc_usbd.c ****           ep->xferCount += bytes;
 716:/opt/XMClib/XMC_Peripheral_Library_v2.1.16/XMCLib/src/xmc_usbd.c ****           ep->xferBuffer += bytes;
 717:/opt/XMClib/XMC_Peripheral_Library_v2.1.16/XMCLib/src/xmc_usbd.c **** 				}
 718:/opt/XMClib/XMC_Peripheral_Library_v2.1.16/XMCLib/src/xmc_usbd.c ****         if (ep->xferTotal == ep->xferLength)
 719:/opt/XMClib/XMC_Peripheral_Library_v2.1.16/XMCLib/src/xmc_usbd.c ****         {
 720:/opt/XMClib/XMC_Peripheral_Library_v2.1.16/XMCLib/src/xmc_usbd.c ****           ep->outBytesAvailable = ep->xferCount;
 721:/opt/XMClib/XMC_Peripheral_Library_v2.1.16/XMCLib/src/xmc_usbd.c ****           ep->outInUse = 0U;
 722:/opt/XMClib/XMC_Peripheral_Library_v2.1.16/XMCLib/src/xmc_usbd.c ****           xmc_device.EndpointEvent_cb(ep_num,XMC_USBD_EP_EVENT_OUT);
 723:/opt/XMClib/XMC_Peripheral_Library_v2.1.16/XMCLib/src/xmc_usbd.c ****         }
 724:/opt/XMClib/XMC_Peripheral_Library_v2.1.16/XMCLib/src/xmc_usbd.c ****         else
 725:/opt/XMClib/XMC_Peripheral_Library_v2.1.16/XMCLib/src/xmc_usbd.c ****         {
 726:/opt/XMClib/XMC_Peripheral_Library_v2.1.16/XMCLib/src/xmc_usbd.c ****           XMC_USBD_lStartReadXfer(ep);
 727:/opt/XMClib/XMC_Peripheral_Library_v2.1.16/XMCLib/src/xmc_usbd.c ****         }
 728:/opt/XMClib/XMC_Peripheral_Library_v2.1.16/XMCLib/src/xmc_usbd.c **** 
 729:/opt/XMClib/XMC_Peripheral_Library_v2.1.16/XMCLib/src/xmc_usbd.c ****       }
 730:/opt/XMClib/XMC_Peripheral_Library_v2.1.16/XMCLib/src/xmc_usbd.c **** 
 731:/opt/XMClib/XMC_Peripheral_Library_v2.1.16/XMCLib/src/xmc_usbd.c ****       XMC_USBD_ClearEventOUTEP(doepint.d32,ep_num);
 732:/opt/XMClib/XMC_Peripheral_Library_v2.1.16/XMCLib/src/xmc_usbd.c ****     }
 733:/opt/XMClib/XMC_Peripheral_Library_v2.1.16/XMCLib/src/xmc_usbd.c ****     ep_num++;
 734:/opt/XMClib/XMC_Peripheral_Library_v2.1.16/XMCLib/src/xmc_usbd.c ****   }
 735:/opt/XMClib/XMC_Peripheral_Library_v2.1.16/XMCLib/src/xmc_usbd.c **** 
 736:/opt/XMClib/XMC_Peripheral_Library_v2.1.16/XMCLib/src/xmc_usbd.c ****   /* clear interrupt */
 737:/opt/XMClib/XMC_Peripheral_Library_v2.1.16/XMCLib/src/xmc_usbd.c ****   XMC_USBD_ClearEvent(XMC_USBD_EVENT_OUTEP);
 738:/opt/XMClib/XMC_Peripheral_Library_v2.1.16/XMCLib/src/xmc_usbd.c **** }
 739:/opt/XMClib/XMC_Peripheral_Library_v2.1.16/XMCLib/src/xmc_usbd.c **** 
 740:/opt/XMClib/XMC_Peripheral_Library_v2.1.16/XMCLib/src/xmc_usbd.c **** /**
 741:/opt/XMClib/XMC_Peripheral_Library_v2.1.16/XMCLib/src/xmc_usbd.c ****  * @brief Handles all interrupts for all in endpoints
 742:/opt/XMClib/XMC_Peripheral_Library_v2.1.16/XMCLib/src/xmc_usbd.c ****  *
 743:/opt/XMClib/XMC_Peripheral_Library_v2.1.16/XMCLib/src/xmc_usbd.c ****  * The interrupt handler first checks, which endpoint has caused the interrupt and then
 744:/opt/XMClib/XMC_Peripheral_Library_v2.1.16/XMCLib/src/xmc_usbd.c ****  * determines, which interrupt should be handled.
 745:/opt/XMClib/XMC_Peripheral_Library_v2.1.16/XMCLib/src/xmc_usbd.c ****  */
 746:/opt/XMClib/XMC_Peripheral_Library_v2.1.16/XMCLib/src/xmc_usbd.c **** static void XMC_USBD_lHandleIEPInt(const XMC_USBD_t *const obj) 
 747:/opt/XMClib/XMC_Peripheral_Library_v2.1.16/XMCLib/src/xmc_usbd.c **** {
 748:/opt/XMClib/XMC_Peripheral_Library_v2.1.16/XMCLib/src/xmc_usbd.c ****   XMC_USBD_EP_t *ep;
 749:/opt/XMClib/XMC_Peripheral_Library_v2.1.16/XMCLib/src/xmc_usbd.c ****   daint_data_t daint;
 750:/opt/XMClib/XMC_Peripheral_Library_v2.1.16/XMCLib/src/xmc_usbd.c ****   diepmsk_data_t diepmsk;
 751:/opt/XMClib/XMC_Peripheral_Library_v2.1.16/XMCLib/src/xmc_usbd.c ****   diepint_data_t diepint;
 752:/opt/XMClib/XMC_Peripheral_Library_v2.1.16/XMCLib/src/xmc_usbd.c ****   deptsiz_data_t dieptsiz;
 753:/opt/XMClib/XMC_Peripheral_Library_v2.1.16/XMCLib/src/xmc_usbd.c ****   uint16_t temp;
 754:/opt/XMClib/XMC_Peripheral_Library_v2.1.16/XMCLib/src/xmc_usbd.c ****   uint16_t temp1;
 755:/opt/XMClib/XMC_Peripheral_Library_v2.1.16/XMCLib/src/xmc_usbd.c ****   uint16_t mask;
 756:/opt/XMClib/XMC_Peripheral_Library_v2.1.16/XMCLib/src/xmc_usbd.c ****   uint8_t ep_num;
 757:/opt/XMClib/XMC_Peripheral_Library_v2.1.16/XMCLib/src/xmc_usbd.c ****   uint32_t inepint;
 758:/opt/XMClib/XMC_Peripheral_Library_v2.1.16/XMCLib/src/xmc_usbd.c **** 	
 759:/opt/XMClib/XMC_Peripheral_Library_v2.1.16/XMCLib/src/xmc_usbd.c ****   daint.d32 = xmc_device.device_register->daint;
 760:/opt/XMClib/XMC_Peripheral_Library_v2.1.16/XMCLib/src/xmc_usbd.c ****   
 761:/opt/XMClib/XMC_Peripheral_Library_v2.1.16/XMCLib/src/xmc_usbd.c ****   diepmsk.d32 = xmc_device.device_register->diepmsk;
 762:/opt/XMClib/XMC_Peripheral_Library_v2.1.16/XMCLib/src/xmc_usbd.c ****   
 763:/opt/XMClib/XMC_Peripheral_Library_v2.1.16/XMCLib/src/xmc_usbd.c ****   dieptsiz.d32 = 0U;
 764:/opt/XMClib/XMC_Peripheral_Library_v2.1.16/XMCLib/src/xmc_usbd.c ****   mask = daint.ep.in;
 765:/opt/XMClib/XMC_Peripheral_Library_v2.1.16/XMCLib/src/xmc_usbd.c ****   ep_num = 0U;
 766:/opt/XMClib/XMC_Peripheral_Library_v2.1.16/XMCLib/src/xmc_usbd.c ****   
 767:/opt/XMClib/XMC_Peripheral_Library_v2.1.16/XMCLib/src/xmc_usbd.c ****   while ((uint16_t)mask >> ep_num)
 768:/opt/XMClib/XMC_Peripheral_Library_v2.1.16/XMCLib/src/xmc_usbd.c ****   {
 769:/opt/XMClib/XMC_Peripheral_Library_v2.1.16/XMCLib/src/xmc_usbd.c ****     temp1 = ((uint16_t)mask >> (uint16_t)ep_num);
 770:/opt/XMClib/XMC_Peripheral_Library_v2.1.16/XMCLib/src/xmc_usbd.c ****     temp = (uint16_t)temp1 & (uint16_t)0x1U;
 771:/opt/XMClib/XMC_Peripheral_Library_v2.1.16/XMCLib/src/xmc_usbd.c ****     if ((uint16_t)temp)
 772:/opt/XMClib/XMC_Peripheral_Library_v2.1.16/XMCLib/src/xmc_usbd.c ****     {
 773:/opt/XMClib/XMC_Peripheral_Library_v2.1.16/XMCLib/src/xmc_usbd.c ****       ep = &xmc_device.ep[ep_num];
 774:/opt/XMClib/XMC_Peripheral_Library_v2.1.16/XMCLib/src/xmc_usbd.c **** 			inepint = (uint32_t)xmc_device.endpoint_in_register[ep_num]->diepint;
 775:/opt/XMClib/XMC_Peripheral_Library_v2.1.16/XMCLib/src/xmc_usbd.c ****       diepint.d32 = inepint &
 776:/opt/XMClib/XMC_Peripheral_Library_v2.1.16/XMCLib/src/xmc_usbd.c ****       ((((uint32_t)((uint32_t)xmc_device.device_register->dtknqr4_fifoemptymsk >> ep->address_u.add
 777:/opt/XMClib/XMC_Peripheral_Library_v2.1.16/XMCLib/src/xmc_usbd.c ****                      0x1U) << 7U) | (uint32_t)diepmsk.d32);
 778:/opt/XMClib/XMC_Peripheral_Library_v2.1.16/XMCLib/src/xmc_usbd.c ****       if(obj->usbd_transfer_mode == XMC_USBD_USE_DMA)
 779:/opt/XMClib/XMC_Peripheral_Library_v2.1.16/XMCLib/src/xmc_usbd.c ****       {
 780:/opt/XMClib/XMC_Peripheral_Library_v2.1.16/XMCLib/src/xmc_usbd.c ****         dieptsiz.d32 = xmc_device.endpoint_in_register[ep_num]->dieptsiz;
 781:/opt/XMClib/XMC_Peripheral_Library_v2.1.16/XMCLib/src/xmc_usbd.c ****       }
 782:/opt/XMClib/XMC_Peripheral_Library_v2.1.16/XMCLib/src/xmc_usbd.c ****       if(obj->usbd_transfer_mode == XMC_USBD_USE_FIFO)
 783:/opt/XMClib/XMC_Peripheral_Library_v2.1.16/XMCLib/src/xmc_usbd.c ****       {
 784:/opt/XMClib/XMC_Peripheral_Library_v2.1.16/XMCLib/src/xmc_usbd.c ****         if (diepint.b.emptyintr)
 785:/opt/XMClib/XMC_Peripheral_Library_v2.1.16/XMCLib/src/xmc_usbd.c ****         {
 786:/opt/XMClib/XMC_Peripheral_Library_v2.1.16/XMCLib/src/xmc_usbd.c ****           uint32_t bytes;
 787:/opt/XMClib/XMC_Peripheral_Library_v2.1.16/XMCLib/src/xmc_usbd.c ****           bytes = XMC_USBD_lWriteFifo(ep);
 788:/opt/XMClib/XMC_Peripheral_Library_v2.1.16/XMCLib/src/xmc_usbd.c ****           ep->xferCount += bytes;
 789:/opt/XMClib/XMC_Peripheral_Library_v2.1.16/XMCLib/src/xmc_usbd.c ****           ep->xferBuffer += bytes;
 790:/opt/XMClib/XMC_Peripheral_Library_v2.1.16/XMCLib/src/xmc_usbd.c ****         }
 791:/opt/XMClib/XMC_Peripheral_Library_v2.1.16/XMCLib/src/xmc_usbd.c ****       }
 792:/opt/XMClib/XMC_Peripheral_Library_v2.1.16/XMCLib/src/xmc_usbd.c ****       if (diepint.b.xfercompl)
 793:/opt/XMClib/XMC_Peripheral_Library_v2.1.16/XMCLib/src/xmc_usbd.c ****       {
 794:/opt/XMClib/XMC_Peripheral_Library_v2.1.16/XMCLib/src/xmc_usbd.c ****         if(obj->usbd_transfer_mode == XMC_USBD_USE_DMA)
 795:/opt/XMClib/XMC_Peripheral_Library_v2.1.16/XMCLib/src/xmc_usbd.c ****         {
 796:/opt/XMClib/XMC_Peripheral_Library_v2.1.16/XMCLib/src/xmc_usbd.c ****           /* update xfer values */
 797:/opt/XMClib/XMC_Peripheral_Library_v2.1.16/XMCLib/src/xmc_usbd.c ****           if ((dieptsiz.b.pktcnt == 0U) && (dieptsiz.b.xfersize == 0U))
 798:/opt/XMClib/XMC_Peripheral_Library_v2.1.16/XMCLib/src/xmc_usbd.c ****           {
 799:/opt/XMClib/XMC_Peripheral_Library_v2.1.16/XMCLib/src/xmc_usbd.c ****             uint32_t Bytes = ep->xferLength - ep->xferCount;
 800:/opt/XMClib/XMC_Peripheral_Library_v2.1.16/XMCLib/src/xmc_usbd.c ****             ep->xferCount += Bytes;
 801:/opt/XMClib/XMC_Peripheral_Library_v2.1.16/XMCLib/src/xmc_usbd.c ****             ep->xferBuffer += Bytes;
 802:/opt/XMClib/XMC_Peripheral_Library_v2.1.16/XMCLib/src/xmc_usbd.c ****           }
 803:/opt/XMClib/XMC_Peripheral_Library_v2.1.16/XMCLib/src/xmc_usbd.c ****         }
 804:/opt/XMClib/XMC_Peripheral_Library_v2.1.16/XMCLib/src/xmc_usbd.c ****         if (ep->xferTotal==ep->xferLength)
 805:/opt/XMClib/XMC_Peripheral_Library_v2.1.16/XMCLib/src/xmc_usbd.c ****         {
 806:/opt/XMClib/XMC_Peripheral_Library_v2.1.16/XMCLib/src/xmc_usbd.c ****           ep->inInUse = 0U;
 807:/opt/XMClib/XMC_Peripheral_Library_v2.1.16/XMCLib/src/xmc_usbd.c ****           if(obj->usbd_transfer_mode == XMC_USBD_USE_FIFO)
 808:/opt/XMClib/XMC_Peripheral_Library_v2.1.16/XMCLib/src/xmc_usbd.c ****           {
 809:/opt/XMClib/XMC_Peripheral_Library_v2.1.16/XMCLib/src/xmc_usbd.c ****             /* mask fifo empty interrupt */
 810:/opt/XMClib/XMC_Peripheral_Library_v2.1.16/XMCLib/src/xmc_usbd.c ****             xmc_device.device_register->dtknqr4_fifoemptymsk =
 811:/opt/XMClib/XMC_Peripheral_Library_v2.1.16/XMCLib/src/xmc_usbd.c ****             (uint32_t)(xmc_device.device_register->dtknqr4_fifoemptymsk & ~(((uint32_t)1U << ep_num
 812:/opt/XMClib/XMC_Peripheral_Library_v2.1.16/XMCLib/src/xmc_usbd.c ****           }
 813:/opt/XMClib/XMC_Peripheral_Library_v2.1.16/XMCLib/src/xmc_usbd.c ****           xmc_device.EndpointEvent_cb(0x80U | ep_num,XMC_USBD_EP_EVENT_IN);
 814:/opt/XMClib/XMC_Peripheral_Library_v2.1.16/XMCLib/src/xmc_usbd.c ****         }
 815:/opt/XMClib/XMC_Peripheral_Library_v2.1.16/XMCLib/src/xmc_usbd.c ****         else
 816:/opt/XMClib/XMC_Peripheral_Library_v2.1.16/XMCLib/src/xmc_usbd.c ****         {
 817:/opt/XMClib/XMC_Peripheral_Library_v2.1.16/XMCLib/src/xmc_usbd.c ****           /* start next step of transfer */
 818:/opt/XMClib/XMC_Peripheral_Library_v2.1.16/XMCLib/src/xmc_usbd.c ****           XMC_USBD_lStartWriteXfer(ep);
 819:/opt/XMClib/XMC_Peripheral_Library_v2.1.16/XMCLib/src/xmc_usbd.c ****         }
 820:/opt/XMClib/XMC_Peripheral_Library_v2.1.16/XMCLib/src/xmc_usbd.c **** 
 821:/opt/XMClib/XMC_Peripheral_Library_v2.1.16/XMCLib/src/xmc_usbd.c ****       }
 822:/opt/XMClib/XMC_Peripheral_Library_v2.1.16/XMCLib/src/xmc_usbd.c **** 
 823:/opt/XMClib/XMC_Peripheral_Library_v2.1.16/XMCLib/src/xmc_usbd.c ****       XMC_USBD_ClearEventINEP((uint32_t)diepint.d32,ep_num);
 824:/opt/XMClib/XMC_Peripheral_Library_v2.1.16/XMCLib/src/xmc_usbd.c ****     }
 825:/opt/XMClib/XMC_Peripheral_Library_v2.1.16/XMCLib/src/xmc_usbd.c ****     ep_num++;
 826:/opt/XMClib/XMC_Peripheral_Library_v2.1.16/XMCLib/src/xmc_usbd.c ****   }
 827:/opt/XMClib/XMC_Peripheral_Library_v2.1.16/XMCLib/src/xmc_usbd.c ****   XMC_USBD_ClearEvent(XMC_USBD_EVENT_INEP);
 828:/opt/XMClib/XMC_Peripheral_Library_v2.1.16/XMCLib/src/xmc_usbd.c **** }
 829:/opt/XMClib/XMC_Peripheral_Library_v2.1.16/XMCLib/src/xmc_usbd.c **** 
 830:/opt/XMClib/XMC_Peripheral_Library_v2.1.16/XMCLib/src/xmc_usbd.c **** /**
 831:/opt/XMClib/XMC_Peripheral_Library_v2.1.16/XMCLib/src/xmc_usbd.c ****  * @brief RX Fifo interrupt handler
 832:/opt/XMClib/XMC_Peripheral_Library_v2.1.16/XMCLib/src/xmc_usbd.c ****  *
 833:/opt/XMClib/XMC_Peripheral_Library_v2.1.16/XMCLib/src/xmc_usbd.c ****  * This function handles the interrupt, when the rx fifo is not empty anymore.
 834:/opt/XMClib/XMC_Peripheral_Library_v2.1.16/XMCLib/src/xmc_usbd.c ****  */
 835:/opt/XMClib/XMC_Peripheral_Library_v2.1.16/XMCLib/src/xmc_usbd.c **** static void XMC_USBD_lHandleRxFLvl(void) 
 836:/opt/XMClib/XMC_Peripheral_Library_v2.1.16/XMCLib/src/xmc_usbd.c **** {
 837:/opt/XMClib/XMC_Peripheral_Library_v2.1.16/XMCLib/src/xmc_usbd.c ****   device_grxsts_data_t data;	
 838:/opt/XMClib/XMC_Peripheral_Library_v2.1.16/XMCLib/src/xmc_usbd.c ****   data.d32 = xmc_device.global_register->grxstsp;
 839:/opt/XMClib/XMC_Peripheral_Library_v2.1.16/XMCLib/src/xmc_usbd.c **** 
 840:/opt/XMClib/XMC_Peripheral_Library_v2.1.16/XMCLib/src/xmc_usbd.c ****   switch (data.b.pktsts)
 841:/opt/XMClib/XMC_Peripheral_Library_v2.1.16/XMCLib/src/xmc_usbd.c **** 	{
 842:/opt/XMClib/XMC_Peripheral_Library_v2.1.16/XMCLib/src/xmc_usbd.c ****     case XMC_USBD_GRXSTS_PKTSTS_GOUTNAK:
 843:/opt/XMClib/XMC_Peripheral_Library_v2.1.16/XMCLib/src/xmc_usbd.c ****       break;
 844:/opt/XMClib/XMC_Peripheral_Library_v2.1.16/XMCLib/src/xmc_usbd.c ****     case XMC_USBD_GRXSTS_PKTSTS_OUTCMPL:
 845:/opt/XMClib/XMC_Peripheral_Library_v2.1.16/XMCLib/src/xmc_usbd.c ****       break;
 846:/opt/XMClib/XMC_Peripheral_Library_v2.1.16/XMCLib/src/xmc_usbd.c ****     case XMC_USBD_GRXSTS_PKTSTS_OUTDATA:
 847:/opt/XMClib/XMC_Peripheral_Library_v2.1.16/XMCLib/src/xmc_usbd.c ****       XMC_USBD_lReadFifo((uint32_t)data.b.epnum,(uint32_t)data.b.bcnt);
 848:/opt/XMClib/XMC_Peripheral_Library_v2.1.16/XMCLib/src/xmc_usbd.c ****       break;
 849:/opt/XMClib/XMC_Peripheral_Library_v2.1.16/XMCLib/src/xmc_usbd.c ****     case XMC_USBD_GRXSTS_PKTSTS_SETUP:
 850:/opt/XMClib/XMC_Peripheral_Library_v2.1.16/XMCLib/src/xmc_usbd.c ****       XMC_USBD_lReadFifo((uint32_t)data.b.epnum,(uint32_t)data.b.bcnt);
 851:/opt/XMClib/XMC_Peripheral_Library_v2.1.16/XMCLib/src/xmc_usbd.c ****       break;
 852:/opt/XMClib/XMC_Peripheral_Library_v2.1.16/XMCLib/src/xmc_usbd.c ****     case XMC_USBD_GRXSTS_PKTSTS_SETUPCMPL:
 853:/opt/XMClib/XMC_Peripheral_Library_v2.1.16/XMCLib/src/xmc_usbd.c ****       break;
 854:/opt/XMClib/XMC_Peripheral_Library_v2.1.16/XMCLib/src/xmc_usbd.c ****     default:
 855:/opt/XMClib/XMC_Peripheral_Library_v2.1.16/XMCLib/src/xmc_usbd.c ****       break;
 856:/opt/XMClib/XMC_Peripheral_Library_v2.1.16/XMCLib/src/xmc_usbd.c **** 	}
 857:/opt/XMClib/XMC_Peripheral_Library_v2.1.16/XMCLib/src/xmc_usbd.c ****   /* no need to clear */
 858:/opt/XMClib/XMC_Peripheral_Library_v2.1.16/XMCLib/src/xmc_usbd.c **** }
 859:/opt/XMClib/XMC_Peripheral_Library_v2.1.16/XMCLib/src/xmc_usbd.c **** 
 860:/opt/XMClib/XMC_Peripheral_Library_v2.1.16/XMCLib/src/xmc_usbd.c **** /**
 861:/opt/XMClib/XMC_Peripheral_Library_v2.1.16/XMCLib/src/xmc_usbd.c ****  * @brief Global interrupt handler
 862:/opt/XMClib/XMC_Peripheral_Library_v2.1.16/XMCLib/src/xmc_usbd.c ****  *
 863:/opt/XMClib/XMC_Peripheral_Library_v2.1.16/XMCLib/src/xmc_usbd.c ****  * The handler first checks, which global interrupt has caused the interrupt
 864:/opt/XMClib/XMC_Peripheral_Library_v2.1.16/XMCLib/src/xmc_usbd.c ****  * and then dispatches interrupt to the corresponding sub-handler.
 865:/opt/XMClib/XMC_Peripheral_Library_v2.1.16/XMCLib/src/xmc_usbd.c ****  */
 866:/opt/XMClib/XMC_Peripheral_Library_v2.1.16/XMCLib/src/xmc_usbd.c **** void XMC_USBD_IRQHandler(const XMC_USBD_t *const obj) 
 867:/opt/XMClib/XMC_Peripheral_Library_v2.1.16/XMCLib/src/xmc_usbd.c **** {
 868:/opt/XMClib/XMC_Peripheral_Library_v2.1.16/XMCLib/src/xmc_usbd.c ****   gintmsk_data_t gintmsk;
 869:/opt/XMClib/XMC_Peripheral_Library_v2.1.16/XMCLib/src/xmc_usbd.c ****   gintsts_data_t data;
 870:/opt/XMClib/XMC_Peripheral_Library_v2.1.16/XMCLib/src/xmc_usbd.c **** 	
 871:/opt/XMClib/XMC_Peripheral_Library_v2.1.16/XMCLib/src/xmc_usbd.c ****   gintmsk.d32 = xmc_device.global_register->gintmsk;
 872:/opt/XMClib/XMC_Peripheral_Library_v2.1.16/XMCLib/src/xmc_usbd.c ****   data.d32 = xmc_device.global_register->gintsts & gintmsk.d32;
 873:/opt/XMClib/XMC_Peripheral_Library_v2.1.16/XMCLib/src/xmc_usbd.c **** 	
 874:/opt/XMClib/XMC_Peripheral_Library_v2.1.16/XMCLib/src/xmc_usbd.c ****   if (data.b.sofintr)
 875:/opt/XMClib/XMC_Peripheral_Library_v2.1.16/XMCLib/src/xmc_usbd.c ****   {
 876:/opt/XMClib/XMC_Peripheral_Library_v2.1.16/XMCLib/src/xmc_usbd.c ****     xmc_device.DeviceEvent_cb(XMC_USBD_EVENT_SOF);
 877:/opt/XMClib/XMC_Peripheral_Library_v2.1.16/XMCLib/src/xmc_usbd.c ****     XMC_USBD_ClearEvent(XMC_USBD_EVENT_SOF);
 878:/opt/XMClib/XMC_Peripheral_Library_v2.1.16/XMCLib/src/xmc_usbd.c ****   }
 879:/opt/XMClib/XMC_Peripheral_Library_v2.1.16/XMCLib/src/xmc_usbd.c ****   if(obj->usbd_transfer_mode == XMC_USBD_USE_FIFO)
 880:/opt/XMClib/XMC_Peripheral_Library_v2.1.16/XMCLib/src/xmc_usbd.c ****   {
 881:/opt/XMClib/XMC_Peripheral_Library_v2.1.16/XMCLib/src/xmc_usbd.c ****     if (data.b.rxstsqlvl)
 882:/opt/XMClib/XMC_Peripheral_Library_v2.1.16/XMCLib/src/xmc_usbd.c ****     {
 883:/opt/XMClib/XMC_Peripheral_Library_v2.1.16/XMCLib/src/xmc_usbd.c ****       /* Masked that interrupt so its only done once */
 884:/opt/XMClib/XMC_Peripheral_Library_v2.1.16/XMCLib/src/xmc_usbd.c ****       gintmsk.b.rxstsqlvl = 0U;
 885:/opt/XMClib/XMC_Peripheral_Library_v2.1.16/XMCLib/src/xmc_usbd.c ****       xmc_device.global_register->gintmsk = gintmsk.d32;
 886:/opt/XMClib/XMC_Peripheral_Library_v2.1.16/XMCLib/src/xmc_usbd.c ****       XMC_USBD_lHandleRxFLvl(); /* handle the interrupt */
 887:/opt/XMClib/XMC_Peripheral_Library_v2.1.16/XMCLib/src/xmc_usbd.c ****       gintmsk.b.rxstsqlvl = 1U;
 888:/opt/XMClib/XMC_Peripheral_Library_v2.1.16/XMCLib/src/xmc_usbd.c ****       xmc_device.global_register->gintmsk = gintmsk.d32;
 889:/opt/XMClib/XMC_Peripheral_Library_v2.1.16/XMCLib/src/xmc_usbd.c ****     }
 890:/opt/XMClib/XMC_Peripheral_Library_v2.1.16/XMCLib/src/xmc_usbd.c ****   }
 891:/opt/XMClib/XMC_Peripheral_Library_v2.1.16/XMCLib/src/xmc_usbd.c ****   if (data.b.erlysuspend)
 892:/opt/XMClib/XMC_Peripheral_Library_v2.1.16/XMCLib/src/xmc_usbd.c ****   {
 893:/opt/XMClib/XMC_Peripheral_Library_v2.1.16/XMCLib/src/xmc_usbd.c ****     XMC_USBD_ClearEvent(XMC_USBD_EVENT_EARLYSUSPEND);
 894:/opt/XMClib/XMC_Peripheral_Library_v2.1.16/XMCLib/src/xmc_usbd.c ****   }
 895:/opt/XMClib/XMC_Peripheral_Library_v2.1.16/XMCLib/src/xmc_usbd.c ****   if (data.b.usbsuspend)
 896:/opt/XMClib/XMC_Peripheral_Library_v2.1.16/XMCLib/src/xmc_usbd.c ****   {
 897:/opt/XMClib/XMC_Peripheral_Library_v2.1.16/XMCLib/src/xmc_usbd.c ****     xmc_device.DeviceEvent_cb(XMC_USBD_EVENT_SUSPEND);
 898:/opt/XMClib/XMC_Peripheral_Library_v2.1.16/XMCLib/src/xmc_usbd.c ****     XMC_USBD_ClearEvent(XMC_USBD_EVENT_SUSPEND);
 899:/opt/XMClib/XMC_Peripheral_Library_v2.1.16/XMCLib/src/xmc_usbd.c ****   }
 900:/opt/XMClib/XMC_Peripheral_Library_v2.1.16/XMCLib/src/xmc_usbd.c ****   if (data.b.wkupintr)
 901:/opt/XMClib/XMC_Peripheral_Library_v2.1.16/XMCLib/src/xmc_usbd.c ****   {
 902:/opt/XMClib/XMC_Peripheral_Library_v2.1.16/XMCLib/src/xmc_usbd.c ****     xmc_device.DeviceEvent_cb(XMC_USBD_EVENT_REMOTE_WAKEUP);
 903:/opt/XMClib/XMC_Peripheral_Library_v2.1.16/XMCLib/src/xmc_usbd.c ****     XMC_USBD_ClearEvent(XMC_USBD_EVENT_REMOTE_WAKEUP);
 904:/opt/XMClib/XMC_Peripheral_Library_v2.1.16/XMCLib/src/xmc_usbd.c ****   }
 905:/opt/XMClib/XMC_Peripheral_Library_v2.1.16/XMCLib/src/xmc_usbd.c ****   if (data.b.sessreqintr)
 906:/opt/XMClib/XMC_Peripheral_Library_v2.1.16/XMCLib/src/xmc_usbd.c ****   {
 907:/opt/XMClib/XMC_Peripheral_Library_v2.1.16/XMCLib/src/xmc_usbd.c ****     xmc_device.IsPowered = 1U;
 908:/opt/XMClib/XMC_Peripheral_Library_v2.1.16/XMCLib/src/xmc_usbd.c ****     xmc_device.DeviceEvent_cb(XMC_USBD_EVENT_POWER_ON);
 909:/opt/XMClib/XMC_Peripheral_Library_v2.1.16/XMCLib/src/xmc_usbd.c ****     XMC_USBD_ClearEvent(XMC_USBD_EVENT_POWER_ON);
 910:/opt/XMClib/XMC_Peripheral_Library_v2.1.16/XMCLib/src/xmc_usbd.c ****   }
 911:/opt/XMClib/XMC_Peripheral_Library_v2.1.16/XMCLib/src/xmc_usbd.c ****   if (data.b.usbreset)
 912:/opt/XMClib/XMC_Peripheral_Library_v2.1.16/XMCLib/src/xmc_usbd.c ****   {
 913:/opt/XMClib/XMC_Peripheral_Library_v2.1.16/XMCLib/src/xmc_usbd.c ****     XMC_USBD_lHandleUSBReset(obj);
 914:/opt/XMClib/XMC_Peripheral_Library_v2.1.16/XMCLib/src/xmc_usbd.c ****   }
 915:/opt/XMClib/XMC_Peripheral_Library_v2.1.16/XMCLib/src/xmc_usbd.c ****   if (data.b.enumdone)
 916:/opt/XMClib/XMC_Peripheral_Library_v2.1.16/XMCLib/src/xmc_usbd.c ****   {
 917:/opt/XMClib/XMC_Peripheral_Library_v2.1.16/XMCLib/src/xmc_usbd.c ****     XMC_USBD_lHandleEnumDone();
 918:/opt/XMClib/XMC_Peripheral_Library_v2.1.16/XMCLib/src/xmc_usbd.c ****   }
 919:/opt/XMClib/XMC_Peripheral_Library_v2.1.16/XMCLib/src/xmc_usbd.c ****   if (data.b.inepint)
 920:/opt/XMClib/XMC_Peripheral_Library_v2.1.16/XMCLib/src/xmc_usbd.c ****   {
 921:/opt/XMClib/XMC_Peripheral_Library_v2.1.16/XMCLib/src/xmc_usbd.c ****     XMC_USBD_lHandleIEPInt(obj);
 922:/opt/XMClib/XMC_Peripheral_Library_v2.1.16/XMCLib/src/xmc_usbd.c ****   }
 923:/opt/XMClib/XMC_Peripheral_Library_v2.1.16/XMCLib/src/xmc_usbd.c ****   if (data.b.outepintr)
 924:/opt/XMClib/XMC_Peripheral_Library_v2.1.16/XMCLib/src/xmc_usbd.c ****   {
 925:/opt/XMClib/XMC_Peripheral_Library_v2.1.16/XMCLib/src/xmc_usbd.c **** 		XMC_USBD_lHandleOEPInt(obj);
 926:/opt/XMClib/XMC_Peripheral_Library_v2.1.16/XMCLib/src/xmc_usbd.c ****   }
 927:/opt/XMClib/XMC_Peripheral_Library_v2.1.16/XMCLib/src/xmc_usbd.c **** 	if (data.b.otgintr)
 928:/opt/XMClib/XMC_Peripheral_Library_v2.1.16/XMCLib/src/xmc_usbd.c ****   {
 929:/opt/XMClib/XMC_Peripheral_Library_v2.1.16/XMCLib/src/xmc_usbd.c **** 	  XMC_USBD_lHandleOTGInt();
 930:/opt/XMClib/XMC_Peripheral_Library_v2.1.16/XMCLib/src/xmc_usbd.c ****   }
 931:/opt/XMClib/XMC_Peripheral_Library_v2.1.16/XMCLib/src/xmc_usbd.c **** 
 932:/opt/XMClib/XMC_Peripheral_Library_v2.1.16/XMCLib/src/xmc_usbd.c **** }
 933:/opt/XMClib/XMC_Peripheral_Library_v2.1.16/XMCLib/src/xmc_usbd.c **** 
 934:/opt/XMClib/XMC_Peripheral_Library_v2.1.16/XMCLib/src/xmc_usbd.c **** 
 935:/opt/XMClib/XMC_Peripheral_Library_v2.1.16/XMCLib/src/xmc_usbd.c **** /*******************************************************************************
 936:/opt/XMClib/XMC_Peripheral_Library_v2.1.16/XMCLib/src/xmc_usbd.c ****  * API IMPLEMENTATION
 937:/opt/XMClib/XMC_Peripheral_Library_v2.1.16/XMCLib/src/xmc_usbd.c ****  *******************************************************************************/
 938:/opt/XMClib/XMC_Peripheral_Library_v2.1.16/XMCLib/src/xmc_usbd.c **** /**
 939:/opt/XMClib/XMC_Peripheral_Library_v2.1.16/XMCLib/src/xmc_usbd.c ****  * Enables the USB0 module
 940:/opt/XMClib/XMC_Peripheral_Library_v2.1.16/XMCLib/src/xmc_usbd.c ****  **/
 941:/opt/XMClib/XMC_Peripheral_Library_v2.1.16/XMCLib/src/xmc_usbd.c **** void XMC_USBD_Enable(void) 
 942:/opt/XMClib/XMC_Peripheral_Library_v2.1.16/XMCLib/src/xmc_usbd.c **** {
 943:/opt/XMClib/XMC_Peripheral_Library_v2.1.16/XMCLib/src/xmc_usbd.c **** #if defined(CLOCK_GATING_SUPPORTED)
 944:/opt/XMClib/XMC_Peripheral_Library_v2.1.16/XMCLib/src/xmc_usbd.c ****   XMC_SCU_CLOCK_UngatePeripheralClock(XMC_SCU_PERIPHERAL_CLOCK_USB0);
 945:/opt/XMClib/XMC_Peripheral_Library_v2.1.16/XMCLib/src/xmc_usbd.c **** #endif
 946:/opt/XMClib/XMC_Peripheral_Library_v2.1.16/XMCLib/src/xmc_usbd.c ****   /* Reset and power up */
 947:/opt/XMClib/XMC_Peripheral_Library_v2.1.16/XMCLib/src/xmc_usbd.c ****   XMC_SCU_RESET_DeassertPeripheralReset(XMC_SCU_PERIPHERAL_RESET_USB0);
 948:/opt/XMClib/XMC_Peripheral_Library_v2.1.16/XMCLib/src/xmc_usbd.c ****   XMC_SCU_POWER_EnableUsb();
 949:/opt/XMClib/XMC_Peripheral_Library_v2.1.16/XMCLib/src/xmc_usbd.c **** }
 950:/opt/XMClib/XMC_Peripheral_Library_v2.1.16/XMCLib/src/xmc_usbd.c **** 
 951:/opt/XMClib/XMC_Peripheral_Library_v2.1.16/XMCLib/src/xmc_usbd.c **** /**
 952:/opt/XMClib/XMC_Peripheral_Library_v2.1.16/XMCLib/src/xmc_usbd.c ****  * Disables the USB0 module
 953:/opt/XMClib/XMC_Peripheral_Library_v2.1.16/XMCLib/src/xmc_usbd.c ****  **/
 954:/opt/XMClib/XMC_Peripheral_Library_v2.1.16/XMCLib/src/xmc_usbd.c **** void XMC_USBD_Disable(void) 
 955:/opt/XMClib/XMC_Peripheral_Library_v2.1.16/XMCLib/src/xmc_usbd.c **** {
 956:/opt/XMClib/XMC_Peripheral_Library_v2.1.16/XMCLib/src/xmc_usbd.c ****   /* Clear Reset and power up */
 957:/opt/XMClib/XMC_Peripheral_Library_v2.1.16/XMCLib/src/xmc_usbd.c ****   XMC_SCU_RESET_AssertPeripheralReset(XMC_SCU_PERIPHERAL_RESET_USB0);
 958:/opt/XMClib/XMC_Peripheral_Library_v2.1.16/XMCLib/src/xmc_usbd.c **** #if defined(CLOCK_GATING_SUPPORTED)
 959:/opt/XMClib/XMC_Peripheral_Library_v2.1.16/XMCLib/src/xmc_usbd.c ****   XMC_SCU_CLOCK_GatePeripheralClock(XMC_SCU_PERIPHERAL_CLOCK_USB0);
 960:/opt/XMClib/XMC_Peripheral_Library_v2.1.16/XMCLib/src/xmc_usbd.c **** #endif
 961:/opt/XMClib/XMC_Peripheral_Library_v2.1.16/XMCLib/src/xmc_usbd.c ****   XMC_SCU_POWER_DisableUsb();
 962:/opt/XMClib/XMC_Peripheral_Library_v2.1.16/XMCLib/src/xmc_usbd.c **** }
 963:/opt/XMClib/XMC_Peripheral_Library_v2.1.16/XMCLib/src/xmc_usbd.c **** 
 964:/opt/XMClib/XMC_Peripheral_Library_v2.1.16/XMCLib/src/xmc_usbd.c **** /**
 965:/opt/XMClib/XMC_Peripheral_Library_v2.1.16/XMCLib/src/xmc_usbd.c ****  * Clear the USB device event
 966:/opt/XMClib/XMC_Peripheral_Library_v2.1.16/XMCLib/src/xmc_usbd.c ****  **/
 967:/opt/XMClib/XMC_Peripheral_Library_v2.1.16/XMCLib/src/xmc_usbd.c **** void XMC_USBD_ClearEvent(const XMC_USBD_EVENT_t event) 
 968:/opt/XMClib/XMC_Peripheral_Library_v2.1.16/XMCLib/src/xmc_usbd.c **** {
 969:/opt/XMClib/XMC_Peripheral_Library_v2.1.16/XMCLib/src/xmc_usbd.c ****   gintsts_data_t clear;
 970:/opt/XMClib/XMC_Peripheral_Library_v2.1.16/XMCLib/src/xmc_usbd.c ****   clear.d32 = 0U;
 971:/opt/XMClib/XMC_Peripheral_Library_v2.1.16/XMCLib/src/xmc_usbd.c ****   switch(event)
 972:/opt/XMClib/XMC_Peripheral_Library_v2.1.16/XMCLib/src/xmc_usbd.c ****   {
 973:/opt/XMClib/XMC_Peripheral_Library_v2.1.16/XMCLib/src/xmc_usbd.c ****     case (XMC_USBD_EVENT_POWER_ON):
 974:/opt/XMClib/XMC_Peripheral_Library_v2.1.16/XMCLib/src/xmc_usbd.c **** 	  clear.b.sessreqintr = 1U;
 975:/opt/XMClib/XMC_Peripheral_Library_v2.1.16/XMCLib/src/xmc_usbd.c **** 	  break;
 976:/opt/XMClib/XMC_Peripheral_Library_v2.1.16/XMCLib/src/xmc_usbd.c ****     case (XMC_USBD_EVENT_RESET):
 977:/opt/XMClib/XMC_Peripheral_Library_v2.1.16/XMCLib/src/xmc_usbd.c **** 	  clear.b.usbreset = 1U;
 978:/opt/XMClib/XMC_Peripheral_Library_v2.1.16/XMCLib/src/xmc_usbd.c **** 	  break;
 979:/opt/XMClib/XMC_Peripheral_Library_v2.1.16/XMCLib/src/xmc_usbd.c ****     case (XMC_USBD_EVENT_SUSPEND):
 980:/opt/XMClib/XMC_Peripheral_Library_v2.1.16/XMCLib/src/xmc_usbd.c **** 	  clear.b.usbsuspend = 1U;
 981:/opt/XMClib/XMC_Peripheral_Library_v2.1.16/XMCLib/src/xmc_usbd.c **** 	  break;
 982:/opt/XMClib/XMC_Peripheral_Library_v2.1.16/XMCLib/src/xmc_usbd.c ****     case (XMC_USBD_EVENT_RESUME):
 983:/opt/XMClib/XMC_Peripheral_Library_v2.1.16/XMCLib/src/xmc_usbd.c **** 	  clear.b.wkupintr = 1U;
 984:/opt/XMClib/XMC_Peripheral_Library_v2.1.16/XMCLib/src/xmc_usbd.c **** 	  break;
 985:/opt/XMClib/XMC_Peripheral_Library_v2.1.16/XMCLib/src/xmc_usbd.c ****     case (XMC_USBD_EVENT_REMOTE_WAKEUP):
 986:/opt/XMClib/XMC_Peripheral_Library_v2.1.16/XMCLib/src/xmc_usbd.c **** 	  clear.b.wkupintr = 1U;
 987:/opt/XMClib/XMC_Peripheral_Library_v2.1.16/XMCLib/src/xmc_usbd.c **** 	  break;
 988:/opt/XMClib/XMC_Peripheral_Library_v2.1.16/XMCLib/src/xmc_usbd.c ****     case (XMC_USBD_EVENT_SOF):
 989:/opt/XMClib/XMC_Peripheral_Library_v2.1.16/XMCLib/src/xmc_usbd.c **** 	  clear.b.sofintr = 1U;
 990:/opt/XMClib/XMC_Peripheral_Library_v2.1.16/XMCLib/src/xmc_usbd.c **** 	  break;
 991:/opt/XMClib/XMC_Peripheral_Library_v2.1.16/XMCLib/src/xmc_usbd.c ****     case (XMC_USBD_EVENT_EARLYSUSPEND):
 992:/opt/XMClib/XMC_Peripheral_Library_v2.1.16/XMCLib/src/xmc_usbd.c **** 	  clear.b.erlysuspend = 1U;
 993:/opt/XMClib/XMC_Peripheral_Library_v2.1.16/XMCLib/src/xmc_usbd.c **** 	  break;
 994:/opt/XMClib/XMC_Peripheral_Library_v2.1.16/XMCLib/src/xmc_usbd.c ****     case (XMC_USBD_EVENT_ENUMDONE):
 995:/opt/XMClib/XMC_Peripheral_Library_v2.1.16/XMCLib/src/xmc_usbd.c **** 	  clear.b.enumdone = 1U;
 996:/opt/XMClib/XMC_Peripheral_Library_v2.1.16/XMCLib/src/xmc_usbd.c **** 	  break;
 997:/opt/XMClib/XMC_Peripheral_Library_v2.1.16/XMCLib/src/xmc_usbd.c ****     case (XMC_USBD_EVENT_OUTEP):
 998:/opt/XMClib/XMC_Peripheral_Library_v2.1.16/XMCLib/src/xmc_usbd.c **** 	  clear.b.outepintr = 1U;
 999:/opt/XMClib/XMC_Peripheral_Library_v2.1.16/XMCLib/src/xmc_usbd.c **** 	  break;
1000:/opt/XMClib/XMC_Peripheral_Library_v2.1.16/XMCLib/src/xmc_usbd.c **** 		default:
1001:/opt/XMClib/XMC_Peripheral_Library_v2.1.16/XMCLib/src/xmc_usbd.c **** 		break;
1002:/opt/XMClib/XMC_Peripheral_Library_v2.1.16/XMCLib/src/xmc_usbd.c **** 	}
1003:/opt/XMClib/XMC_Peripheral_Library_v2.1.16/XMCLib/src/xmc_usbd.c **** 	xmc_device.global_register->gintsts = clear.d32;
1004:/opt/XMClib/XMC_Peripheral_Library_v2.1.16/XMCLib/src/xmc_usbd.c **** }
1005:/opt/XMClib/XMC_Peripheral_Library_v2.1.16/XMCLib/src/xmc_usbd.c **** 
1006:/opt/XMClib/XMC_Peripheral_Library_v2.1.16/XMCLib/src/xmc_usbd.c **** /**
1007:/opt/XMClib/XMC_Peripheral_Library_v2.1.16/XMCLib/src/xmc_usbd.c ****  * Clear the USB OTG events
1008:/opt/XMClib/XMC_Peripheral_Library_v2.1.16/XMCLib/src/xmc_usbd.c ****  **/
1009:/opt/XMClib/XMC_Peripheral_Library_v2.1.16/XMCLib/src/xmc_usbd.c **** static void XMC_USBD_lClearEventOTG(uint32_t event)
1010:/opt/XMClib/XMC_Peripheral_Library_v2.1.16/XMCLib/src/xmc_usbd.c **** {
1011:/opt/XMClib/XMC_Peripheral_Library_v2.1.16/XMCLib/src/xmc_usbd.c ****   gotgint_data_t clear = { .d32 = 0U};
1012:/opt/XMClib/XMC_Peripheral_Library_v2.1.16/XMCLib/src/xmc_usbd.c ****   clear.d32 = event;
1013:/opt/XMClib/XMC_Peripheral_Library_v2.1.16/XMCLib/src/xmc_usbd.c ****   xmc_device.global_register->gotgint = clear.d32;
1014:/opt/XMClib/XMC_Peripheral_Library_v2.1.16/XMCLib/src/xmc_usbd.c **** }
1015:/opt/XMClib/XMC_Peripheral_Library_v2.1.16/XMCLib/src/xmc_usbd.c **** 
1016:/opt/XMClib/XMC_Peripheral_Library_v2.1.16/XMCLib/src/xmc_usbd.c **** /**
1017:/opt/XMClib/XMC_Peripheral_Library_v2.1.16/XMCLib/src/xmc_usbd.c ****  * Clear the USB IN EP events
1018:/opt/XMClib/XMC_Peripheral_Library_v2.1.16/XMCLib/src/xmc_usbd.c ****  **/
1019:/opt/XMClib/XMC_Peripheral_Library_v2.1.16/XMCLib/src/xmc_usbd.c **** void XMC_USBD_ClearEventINEP(uint32_t event,const uint8_t ep_num)
1020:/opt/XMClib/XMC_Peripheral_Library_v2.1.16/XMCLib/src/xmc_usbd.c **** {
1021:/opt/XMClib/XMC_Peripheral_Library_v2.1.16/XMCLib/src/xmc_usbd.c ****   diepint_data_t clear;
1022:/opt/XMClib/XMC_Peripheral_Library_v2.1.16/XMCLib/src/xmc_usbd.c ****   clear.d32 = event;
1023:/opt/XMClib/XMC_Peripheral_Library_v2.1.16/XMCLib/src/xmc_usbd.c ****   xmc_device.endpoint_in_register[ep_num]->diepint = clear.d32;
1024:/opt/XMClib/XMC_Peripheral_Library_v2.1.16/XMCLib/src/xmc_usbd.c **** }
1025:/opt/XMClib/XMC_Peripheral_Library_v2.1.16/XMCLib/src/xmc_usbd.c **** 
1026:/opt/XMClib/XMC_Peripheral_Library_v2.1.16/XMCLib/src/xmc_usbd.c **** /**
1027:/opt/XMClib/XMC_Peripheral_Library_v2.1.16/XMCLib/src/xmc_usbd.c ****  * Clear the USB OUT EP events
1028:/opt/XMClib/XMC_Peripheral_Library_v2.1.16/XMCLib/src/xmc_usbd.c ****  **/
1029:/opt/XMClib/XMC_Peripheral_Library_v2.1.16/XMCLib/src/xmc_usbd.c **** void XMC_USBD_ClearEventOUTEP(uint32_t event,const uint8_t ep_num)
1030:/opt/XMClib/XMC_Peripheral_Library_v2.1.16/XMCLib/src/xmc_usbd.c **** {
1031:/opt/XMClib/XMC_Peripheral_Library_v2.1.16/XMCLib/src/xmc_usbd.c ****   doepint_data_t clear;
1032:/opt/XMClib/XMC_Peripheral_Library_v2.1.16/XMCLib/src/xmc_usbd.c ****   clear.d32 = event;
1033:/opt/XMClib/XMC_Peripheral_Library_v2.1.16/XMCLib/src/xmc_usbd.c ****   xmc_device.endpoint_out_register[ep_num]->doepint = clear.d32;
1034:/opt/XMClib/XMC_Peripheral_Library_v2.1.16/XMCLib/src/xmc_usbd.c **** }
1035:/opt/XMClib/XMC_Peripheral_Library_v2.1.16/XMCLib/src/xmc_usbd.c **** 
1036:/opt/XMClib/XMC_Peripheral_Library_v2.1.16/XMCLib/src/xmc_usbd.c **** /**
1037:/opt/XMClib/XMC_Peripheral_Library_v2.1.16/XMCLib/src/xmc_usbd.c ****  * Enable the USB OUT EP events
1038:/opt/XMClib/XMC_Peripheral_Library_v2.1.16/XMCLib/src/xmc_usbd.c ****  **/
1039:/opt/XMClib/XMC_Peripheral_Library_v2.1.16/XMCLib/src/xmc_usbd.c **** void XMC_USBD_EnableEventOUTEP(uint32_t event)
1040:/opt/XMClib/XMC_Peripheral_Library_v2.1.16/XMCLib/src/xmc_usbd.c **** {
1041:/opt/XMClib/XMC_Peripheral_Library_v2.1.16/XMCLib/src/xmc_usbd.c **** 	doepint_data_t doepint;
1042:/opt/XMClib/XMC_Peripheral_Library_v2.1.16/XMCLib/src/xmc_usbd.c **** 	doepint.d32 = event;
1043:/opt/XMClib/XMC_Peripheral_Library_v2.1.16/XMCLib/src/xmc_usbd.c **** 	xmc_device.device_register->doepmsk |= doepint.d32;
1044:/opt/XMClib/XMC_Peripheral_Library_v2.1.16/XMCLib/src/xmc_usbd.c **** }
1045:/opt/XMClib/XMC_Peripheral_Library_v2.1.16/XMCLib/src/xmc_usbd.c **** 
1046:/opt/XMClib/XMC_Peripheral_Library_v2.1.16/XMCLib/src/xmc_usbd.c **** /**
1047:/opt/XMClib/XMC_Peripheral_Library_v2.1.16/XMCLib/src/xmc_usbd.c ****  * Enable the USB IN EP events
1048:/opt/XMClib/XMC_Peripheral_Library_v2.1.16/XMCLib/src/xmc_usbd.c ****  **/
1049:/opt/XMClib/XMC_Peripheral_Library_v2.1.16/XMCLib/src/xmc_usbd.c **** void XMC_USBD_EnableEventINEP(uint32_t event)
1050:/opt/XMClib/XMC_Peripheral_Library_v2.1.16/XMCLib/src/xmc_usbd.c **** {
1051:/opt/XMClib/XMC_Peripheral_Library_v2.1.16/XMCLib/src/xmc_usbd.c **** 	diepint_data_t diepint;
1052:/opt/XMClib/XMC_Peripheral_Library_v2.1.16/XMCLib/src/xmc_usbd.c **** 	diepint.d32 = event;
1053:/opt/XMClib/XMC_Peripheral_Library_v2.1.16/XMCLib/src/xmc_usbd.c **** 	xmc_device.device_register->diepmsk |= diepint.d32;
1054:/opt/XMClib/XMC_Peripheral_Library_v2.1.16/XMCLib/src/xmc_usbd.c **** }
1055:/opt/XMClib/XMC_Peripheral_Library_v2.1.16/XMCLib/src/xmc_usbd.c **** 
1056:/opt/XMClib/XMC_Peripheral_Library_v2.1.16/XMCLib/src/xmc_usbd.c **** /**
1057:/opt/XMClib/XMC_Peripheral_Library_v2.1.16/XMCLib/src/xmc_usbd.c ****  * Gets the USB device capabilities
1058:/opt/XMClib/XMC_Peripheral_Library_v2.1.16/XMCLib/src/xmc_usbd.c ****  **/
1059:/opt/XMClib/XMC_Peripheral_Library_v2.1.16/XMCLib/src/xmc_usbd.c **** XMC_USBD_CAPABILITIES_t XMC_USBD_GetCapabilities()
1060:/opt/XMClib/XMC_Peripheral_Library_v2.1.16/XMCLib/src/xmc_usbd.c **** {
 578              		.loc 1 1060 0
 579              		.cfi_startproc
 580              		@ args = 0, pretend = 0, frame = 0
 581              		@ frame_needed = 0, uses_anonymous_args = 0
 582              		@ link register save eliminated.
 583              	.LVL49:
1061:/opt/XMClib/XMC_Peripheral_Library_v2.1.16/XMCLib/src/xmc_usbd.c ****   XMC_USBD_CAPABILITIES_t cap={0U};
1062:/opt/XMClib/XMC_Peripheral_Library_v2.1.16/XMCLib/src/xmc_usbd.c ****   cap.event_connect = 1U;
1063:/opt/XMClib/XMC_Peripheral_Library_v2.1.16/XMCLib/src/xmc_usbd.c ****   cap.event_disconnect = 1U;
1064:/opt/XMClib/XMC_Peripheral_Library_v2.1.16/XMCLib/src/xmc_usbd.c **** #if UC_SERIES == 45
1065:/opt/XMClib/XMC_Peripheral_Library_v2.1.16/XMCLib/src/xmc_usbd.c ****   cap.event_power_off = 1U;
1066:/opt/XMClib/XMC_Peripheral_Library_v2.1.16/XMCLib/src/xmc_usbd.c ****   cap.event_power_on = 1U;
1067:/opt/XMClib/XMC_Peripheral_Library_v2.1.16/XMCLib/src/xmc_usbd.c **** #else
1068:/opt/XMClib/XMC_Peripheral_Library_v2.1.16/XMCLib/src/xmc_usbd.c ****   cap.event_power_off = 0U;
1069:/opt/XMClib/XMC_Peripheral_Library_v2.1.16/XMCLib/src/xmc_usbd.c ****   cap.event_power_on = 0U;
1070:/opt/XMClib/XMC_Peripheral_Library_v2.1.16/XMCLib/src/xmc_usbd.c **** #endif
1071:/opt/XMClib/XMC_Peripheral_Library_v2.1.16/XMCLib/src/xmc_usbd.c ****   cap.event_high_speed = 0U;
1072:/opt/XMClib/XMC_Peripheral_Library_v2.1.16/XMCLib/src/xmc_usbd.c ****   cap.event_remote_wakeup = 1U;
1073:/opt/XMClib/XMC_Peripheral_Library_v2.1.16/XMCLib/src/xmc_usbd.c ****   cap.event_reset = 1U;
1074:/opt/XMClib/XMC_Peripheral_Library_v2.1.16/XMCLib/src/xmc_usbd.c ****   cap.event_resume = 1U;
1075:/opt/XMClib/XMC_Peripheral_Library_v2.1.16/XMCLib/src/xmc_usbd.c ****   cap.event_suspend = 1U;
1076:/opt/XMClib/XMC_Peripheral_Library_v2.1.16/XMCLib/src/xmc_usbd.c ****   cap.reserved = 0U;
1077:/opt/XMClib/XMC_Peripheral_Library_v2.1.16/XMCLib/src/xmc_usbd.c ****   return cap;
 584              		.loc 1 1077 0
 585 0000 1F20     		movs	r0, #31
 586 0002 6FF34510 		bfc	r0, #5, #1
 587 0006 40F4E070 		orr	r0, r0, #448
 588              	.LVL50:
1078:/opt/XMClib/XMC_Peripheral_Library_v2.1.16/XMCLib/src/xmc_usbd.c **** }
 589              		.loc 1 1078 0
 590 000a C0F30800 		ubfx	r0, r0, #0, #9
 591 000e 7047     		bx	lr
 592              		.cfi_endproc
 593              	.LFE186:
 595              		.section	.text.XMC_USBD_DeviceConnect,"ax",%progbits
 596              		.align	1
 597              		.global	XMC_USBD_DeviceConnect
 598              		.syntax unified
 599              		.thumb
 600              		.thumb_func
 601              		.fpu fpv4-sp-d16
 603              	XMC_USBD_DeviceConnect:
 604              	.LFB189:
1079:/opt/XMClib/XMC_Peripheral_Library_v2.1.16/XMCLib/src/xmc_usbd.c **** 
1080:/opt/XMClib/XMC_Peripheral_Library_v2.1.16/XMCLib/src/xmc_usbd.c **** /**
1081:/opt/XMClib/XMC_Peripheral_Library_v2.1.16/XMCLib/src/xmc_usbd.c ****  * Initializes the USB device
1082:/opt/XMClib/XMC_Peripheral_Library_v2.1.16/XMCLib/src/xmc_usbd.c ****  **/
1083:/opt/XMClib/XMC_Peripheral_Library_v2.1.16/XMCLib/src/xmc_usbd.c **** XMC_USBD_STATUS_t XMC_USBD_Init(XMC_USBD_t *obj)
1084:/opt/XMClib/XMC_Peripheral_Library_v2.1.16/XMCLib/src/xmc_usbd.c **** {
1085:/opt/XMClib/XMC_Peripheral_Library_v2.1.16/XMCLib/src/xmc_usbd.c ****   uint8_t *XMC_USBD_BASE_ADDRESS;
1086:/opt/XMClib/XMC_Peripheral_Library_v2.1.16/XMCLib/src/xmc_usbd.c ****   uint32_t i;
1087:/opt/XMClib/XMC_Peripheral_Library_v2.1.16/XMCLib/src/xmc_usbd.c ****   gahbcfg_data_t gahbcfg;
1088:/opt/XMClib/XMC_Peripheral_Library_v2.1.16/XMCLib/src/xmc_usbd.c ****   gusbcfg_data_t gusbcfg;
1089:/opt/XMClib/XMC_Peripheral_Library_v2.1.16/XMCLib/src/xmc_usbd.c ****   dcfg_data_t dcfg;
1090:/opt/XMClib/XMC_Peripheral_Library_v2.1.16/XMCLib/src/xmc_usbd.c ****   dctl_data_t dctl;
1091:/opt/XMClib/XMC_Peripheral_Library_v2.1.16/XMCLib/src/xmc_usbd.c ****   gintmsk_data_t gintmsk;
1092:/opt/XMClib/XMC_Peripheral_Library_v2.1.16/XMCLib/src/xmc_usbd.c **** 
1093:/opt/XMClib/XMC_Peripheral_Library_v2.1.16/XMCLib/src/xmc_usbd.c ****   XMC_ASSERT("XMC_USBD_Init: obj.usbd_max_num_eps not of type XMC_USBD_MAX_NUM_EPS_t",
1094:/opt/XMClib/XMC_Peripheral_Library_v2.1.16/XMCLib/src/xmc_usbd.c ****  		      XMC_USBD_CHECK_INPUT_MAX_NUM_EPS(obj->usbd_max_num_eps))
1095:/opt/XMClib/XMC_Peripheral_Library_v2.1.16/XMCLib/src/xmc_usbd.c ****   
1096:/opt/XMClib/XMC_Peripheral_Library_v2.1.16/XMCLib/src/xmc_usbd.c ****   XMC_USBD_Enable();
1097:/opt/XMClib/XMC_Peripheral_Library_v2.1.16/XMCLib/src/xmc_usbd.c ****   
1098:/opt/XMClib/XMC_Peripheral_Library_v2.1.16/XMCLib/src/xmc_usbd.c ****   usbd_init = obj;
1099:/opt/XMClib/XMC_Peripheral_Library_v2.1.16/XMCLib/src/xmc_usbd.c **** 
1100:/opt/XMClib/XMC_Peripheral_Library_v2.1.16/XMCLib/src/xmc_usbd.c ****   /* Filling out buffer size */
1101:/opt/XMClib/XMC_Peripheral_Library_v2.1.16/XMCLib/src/xmc_usbd.c ****   for(i = 0U;i < (uint32_t)XMC_USBD_NUM_EPS;i++)
1102:/opt/XMClib/XMC_Peripheral_Library_v2.1.16/XMCLib/src/xmc_usbd.c ****   {
1103:/opt/XMClib/XMC_Peripheral_Library_v2.1.16/XMCLib/src/xmc_usbd.c **** 	  XMC_USBD_EP_OUT_BUFFERSIZE[i] = XMC_USBD_EP0_BUFFER_SIZE;
1104:/opt/XMClib/XMC_Peripheral_Library_v2.1.16/XMCLib/src/xmc_usbd.c **** 	  XMC_USBD_EP_IN_BUFFERSIZE[i] 	= XMC_USBD_EP0_BUFFER_SIZE;
1105:/opt/XMClib/XMC_Peripheral_Library_v2.1.16/XMCLib/src/xmc_usbd.c ****   }
1106:/opt/XMClib/XMC_Peripheral_Library_v2.1.16/XMCLib/src/xmc_usbd.c **** 
1107:/opt/XMClib/XMC_Peripheral_Library_v2.1.16/XMCLib/src/xmc_usbd.c ****   /* clear device status */
1108:/opt/XMClib/XMC_Peripheral_Library_v2.1.16/XMCLib/src/xmc_usbd.c ****   memset((void*)&xmc_device,0x0U,sizeof(XMC_USBD_DEVICE_t));
1109:/opt/XMClib/XMC_Peripheral_Library_v2.1.16/XMCLib/src/xmc_usbd.c **** 
1110:/opt/XMClib/XMC_Peripheral_Library_v2.1.16/XMCLib/src/xmc_usbd.c ****   /* assign callbacks */
1111:/opt/XMClib/XMC_Peripheral_Library_v2.1.16/XMCLib/src/xmc_usbd.c ****   xmc_device.DeviceEvent_cb = obj->cb_xmc_device_event;
1112:/opt/XMClib/XMC_Peripheral_Library_v2.1.16/XMCLib/src/xmc_usbd.c ****   xmc_device.EndpointEvent_cb = obj->cb_endpoint_event;
1113:/opt/XMClib/XMC_Peripheral_Library_v2.1.16/XMCLib/src/xmc_usbd.c ****   XMC_USBD_BASE_ADDRESS = (uint8_t *)(obj->usbd);
1114:/opt/XMClib/XMC_Peripheral_Library_v2.1.16/XMCLib/src/xmc_usbd.c ****   /* assign register address */
1115:/opt/XMClib/XMC_Peripheral_Library_v2.1.16/XMCLib/src/xmc_usbd.c ****   xmc_device.global_register = (dwc_otg_core_global_regs_t*)(obj->usbd);
1116:/opt/XMClib/XMC_Peripheral_Library_v2.1.16/XMCLib/src/xmc_usbd.c ****   xmc_device.device_register = ((dwc_otg_device_global_regs_t*)(XMC_USBD_BASE_ADDRESS + DWC_DEV_GLO
1117:/opt/XMClib/XMC_Peripheral_Library_v2.1.16/XMCLib/src/xmc_usbd.c ****   for (i = 0U;i < (uint32_t)XMC_USBD_NUM_EPS;i++)
1118:/opt/XMClib/XMC_Peripheral_Library_v2.1.16/XMCLib/src/xmc_usbd.c ****   {
1119:/opt/XMClib/XMC_Peripheral_Library_v2.1.16/XMCLib/src/xmc_usbd.c ****     xmc_device.endpoint_in_register[i] = (dwc_otg_dev_in_ep_regs_t*)(XMC_USBD_BASE_ADDRESS + DWC_DE
1120:/opt/XMClib/XMC_Peripheral_Library_v2.1.16/XMCLib/src/xmc_usbd.c ****     ((uint32_t)DWC_EP_REG_OFFSET*i));
1121:/opt/XMClib/XMC_Peripheral_Library_v2.1.16/XMCLib/src/xmc_usbd.c ****   }
1122:/opt/XMClib/XMC_Peripheral_Library_v2.1.16/XMCLib/src/xmc_usbd.c ****   for (i = 0U;i < (uint32_t)XMC_USBD_NUM_EPS;i++)
1123:/opt/XMClib/XMC_Peripheral_Library_v2.1.16/XMCLib/src/xmc_usbd.c ****   {
1124:/opt/XMClib/XMC_Peripheral_Library_v2.1.16/XMCLib/src/xmc_usbd.c ****     xmc_device.endpoint_out_register[i] = (dwc_otg_dev_out_ep_regs_t*)(XMC_USBD_BASE_ADDRESS +
1125:/opt/XMClib/XMC_Peripheral_Library_v2.1.16/XMCLib/src/xmc_usbd.c ****     									  DWC_DEV_OUT_EP_REG_OFFSET +
1126:/opt/XMClib/XMC_Peripheral_Library_v2.1.16/XMCLib/src/xmc_usbd.c ****     									  ((uint32_t)DWC_EP_REG_OFFSET*i));
1127:/opt/XMClib/XMC_Peripheral_Library_v2.1.16/XMCLib/src/xmc_usbd.c ****   }
1128:/opt/XMClib/XMC_Peripheral_Library_v2.1.16/XMCLib/src/xmc_usbd.c ****   for (i = 0U;i < (uint32_t)XMC_USBD_NUM_TX_FIFOS;i++)
1129:/opt/XMClib/XMC_Peripheral_Library_v2.1.16/XMCLib/src/xmc_usbd.c ****   {
1130:/opt/XMClib/XMC_Peripheral_Library_v2.1.16/XMCLib/src/xmc_usbd.c ****     xmc_device.fifo[i] = (uint32_t*)(XMC_USBD_BASE_ADDRESS +
1131:/opt/XMClib/XMC_Peripheral_Library_v2.1.16/XMCLib/src/xmc_usbd.c ****     						XMC_USBD_TX_FIFO_REG_OFFSET +
1132:/opt/XMClib/XMC_Peripheral_Library_v2.1.16/XMCLib/src/xmc_usbd.c ****     						(i * XMC_USBD_TX_FIFO_OFFSET));
1133:/opt/XMClib/XMC_Peripheral_Library_v2.1.16/XMCLib/src/xmc_usbd.c ****   }
1134:/opt/XMClib/XMC_Peripheral_Library_v2.1.16/XMCLib/src/xmc_usbd.c ****   /* obj data structure for endpoint 0 */
1135:/opt/XMClib/XMC_Peripheral_Library_v2.1.16/XMCLib/src/xmc_usbd.c ****   /* Done by driver core */
1136:/opt/XMClib/XMC_Peripheral_Library_v2.1.16/XMCLib/src/xmc_usbd.c ****   /* configure ahb details */  
1137:/opt/XMClib/XMC_Peripheral_Library_v2.1.16/XMCLib/src/xmc_usbd.c ****   gahbcfg.d32 = xmc_device.global_register->gahbcfg;
1138:/opt/XMClib/XMC_Peripheral_Library_v2.1.16/XMCLib/src/xmc_usbd.c ****   gahbcfg.b.glblintrmsk = 1U; /* enable interrupts ( global mask ) */
1139:/opt/XMClib/XMC_Peripheral_Library_v2.1.16/XMCLib/src/xmc_usbd.c ****   gahbcfg.b.nptxfemplvl_txfemplvl = 1U;
1140:/opt/XMClib/XMC_Peripheral_Library_v2.1.16/XMCLib/src/xmc_usbd.c ****   if(obj->usbd_transfer_mode == XMC_USBD_USE_DMA)
1141:/opt/XMClib/XMC_Peripheral_Library_v2.1.16/XMCLib/src/xmc_usbd.c ****   {
1142:/opt/XMClib/XMC_Peripheral_Library_v2.1.16/XMCLib/src/xmc_usbd.c ****     /* Enable dma if needed */
1143:/opt/XMClib/XMC_Peripheral_Library_v2.1.16/XMCLib/src/xmc_usbd.c ****     gahbcfg.b.dmaenable = 1U; /* enable dma if needed */
1144:/opt/XMClib/XMC_Peripheral_Library_v2.1.16/XMCLib/src/xmc_usbd.c ****   }
1145:/opt/XMClib/XMC_Peripheral_Library_v2.1.16/XMCLib/src/xmc_usbd.c ****   else
1146:/opt/XMClib/XMC_Peripheral_Library_v2.1.16/XMCLib/src/xmc_usbd.c ****   {
1147:/opt/XMClib/XMC_Peripheral_Library_v2.1.16/XMCLib/src/xmc_usbd.c ****     gahbcfg.b.dmaenable = 0U;
1148:/opt/XMClib/XMC_Peripheral_Library_v2.1.16/XMCLib/src/xmc_usbd.c ****   }
1149:/opt/XMClib/XMC_Peripheral_Library_v2.1.16/XMCLib/src/xmc_usbd.c ****   xmc_device.global_register->gahbcfg = gahbcfg.d32;
1150:/opt/XMClib/XMC_Peripheral_Library_v2.1.16/XMCLib/src/xmc_usbd.c ****   /* configure usb details */  
1151:/opt/XMClib/XMC_Peripheral_Library_v2.1.16/XMCLib/src/xmc_usbd.c ****   gusbcfg.d32= xmc_device.global_register->gusbcfg;
1152:/opt/XMClib/XMC_Peripheral_Library_v2.1.16/XMCLib/src/xmc_usbd.c ****   gusbcfg.b.force_dev_mode = 1U; /* force us into device mode */
1153:/opt/XMClib/XMC_Peripheral_Library_v2.1.16/XMCLib/src/xmc_usbd.c ****   gusbcfg.b.srpcap = 1U; /* enable session request protocoll */
1154:/opt/XMClib/XMC_Peripheral_Library_v2.1.16/XMCLib/src/xmc_usbd.c ****   xmc_device.global_register->gusbcfg = gusbcfg.d32;
1155:/opt/XMClib/XMC_Peripheral_Library_v2.1.16/XMCLib/src/xmc_usbd.c **** 
1156:/opt/XMClib/XMC_Peripheral_Library_v2.1.16/XMCLib/src/xmc_usbd.c ****   /* Device init */
1157:/opt/XMClib/XMC_Peripheral_Library_v2.1.16/XMCLib/src/xmc_usbd.c ****   /* configure device speed */  
1158:/opt/XMClib/XMC_Peripheral_Library_v2.1.16/XMCLib/src/xmc_usbd.c ****   dcfg.d32 = xmc_device.device_register->dcfg;
1159:/opt/XMClib/XMC_Peripheral_Library_v2.1.16/XMCLib/src/xmc_usbd.c ****   dcfg.b.devspd = XMC_USBD_DCFG_DEVSPD_FS;
1160:/opt/XMClib/XMC_Peripheral_Library_v2.1.16/XMCLib/src/xmc_usbd.c ****   dcfg.b.descdma = 0U;
1161:/opt/XMClib/XMC_Peripheral_Library_v2.1.16/XMCLib/src/xmc_usbd.c ****   xmc_device.device_register->dcfg = dcfg.d32;
1162:/opt/XMClib/XMC_Peripheral_Library_v2.1.16/XMCLib/src/xmc_usbd.c ****   /* configure device functions */  
1163:/opt/XMClib/XMC_Peripheral_Library_v2.1.16/XMCLib/src/xmc_usbd.c ****   dctl.d32 = xmc_device.device_register->dctl;
1164:/opt/XMClib/XMC_Peripheral_Library_v2.1.16/XMCLib/src/xmc_usbd.c ****   dctl.b.sftdiscon = 1U; /* disconnect the device until its connected by the user */
1165:/opt/XMClib/XMC_Peripheral_Library_v2.1.16/XMCLib/src/xmc_usbd.c ****   /* all other config is done by default register value */
1166:/opt/XMClib/XMC_Peripheral_Library_v2.1.16/XMCLib/src/xmc_usbd.c ****   xmc_device.device_register->dctl = dctl.d32;
1167:/opt/XMClib/XMC_Peripheral_Library_v2.1.16/XMCLib/src/xmc_usbd.c ****   /* flush the fifos for proper operation */
1168:/opt/XMClib/XMC_Peripheral_Library_v2.1.16/XMCLib/src/xmc_usbd.c ****   XMC_USBD_lFlushTXFifo((uint8_t)0x10U); /* 0x10 == all fifos, see doc */
1169:/opt/XMClib/XMC_Peripheral_Library_v2.1.16/XMCLib/src/xmc_usbd.c ****   XMC_USBD_lFlushRXFifo();
1170:/opt/XMClib/XMC_Peripheral_Library_v2.1.16/XMCLib/src/xmc_usbd.c ****   /* Enable Global Interrupts */
1171:/opt/XMClib/XMC_Peripheral_Library_v2.1.16/XMCLib/src/xmc_usbd.c ****   /* clear interrupt status bits prior to unmasking */
1172:/opt/XMClib/XMC_Peripheral_Library_v2.1.16/XMCLib/src/xmc_usbd.c ****   xmc_device.global_register->gintmsk = 0U; /* disable all interrupts */
1173:/opt/XMClib/XMC_Peripheral_Library_v2.1.16/XMCLib/src/xmc_usbd.c ****   xmc_device.global_register->gintsts = 0xFFFFFFFFU; /* clear all interrupts */
1174:/opt/XMClib/XMC_Peripheral_Library_v2.1.16/XMCLib/src/xmc_usbd.c ****  
1175:/opt/XMClib/XMC_Peripheral_Library_v2.1.16/XMCLib/src/xmc_usbd.c ****   gintmsk.d32 = 0U;
1176:/opt/XMClib/XMC_Peripheral_Library_v2.1.16/XMCLib/src/xmc_usbd.c ****   /* enable common interrupts */
1177:/opt/XMClib/XMC_Peripheral_Library_v2.1.16/XMCLib/src/xmc_usbd.c ****   gintmsk.b.modemismatch = 1U;
1178:/opt/XMClib/XMC_Peripheral_Library_v2.1.16/XMCLib/src/xmc_usbd.c ****   gintmsk.b.otgintr = 1U;
1179:/opt/XMClib/XMC_Peripheral_Library_v2.1.16/XMCLib/src/xmc_usbd.c ****   gintmsk.b.sessreqintr = 1U;
1180:/opt/XMClib/XMC_Peripheral_Library_v2.1.16/XMCLib/src/xmc_usbd.c ****   /* enable device interrupts */
1181:/opt/XMClib/XMC_Peripheral_Library_v2.1.16/XMCLib/src/xmc_usbd.c ****   gintmsk.b.usbreset = 1U;
1182:/opt/XMClib/XMC_Peripheral_Library_v2.1.16/XMCLib/src/xmc_usbd.c ****   gintmsk.b.enumdone = 1U;
1183:/opt/XMClib/XMC_Peripheral_Library_v2.1.16/XMCLib/src/xmc_usbd.c ****   gintmsk.b.erlysuspend = 1U;
1184:/opt/XMClib/XMC_Peripheral_Library_v2.1.16/XMCLib/src/xmc_usbd.c ****   gintmsk.b.usbsuspend = 1U;
1185:/opt/XMClib/XMC_Peripheral_Library_v2.1.16/XMCLib/src/xmc_usbd.c ****   gintmsk.b.wkupintr = 1U;
1186:/opt/XMClib/XMC_Peripheral_Library_v2.1.16/XMCLib/src/xmc_usbd.c ****   gintmsk.b.sofintr = 1U;
1187:/opt/XMClib/XMC_Peripheral_Library_v2.1.16/XMCLib/src/xmc_usbd.c ****   if(obj->usbd_transfer_mode == XMC_USBD_USE_FIFO)
1188:/opt/XMClib/XMC_Peripheral_Library_v2.1.16/XMCLib/src/xmc_usbd.c ****   {
1189:/opt/XMClib/XMC_Peripheral_Library_v2.1.16/XMCLib/src/xmc_usbd.c ****     gintmsk.b.rxstsqlvl = 1U;
1190:/opt/XMClib/XMC_Peripheral_Library_v2.1.16/XMCLib/src/xmc_usbd.c ****   }
1191:/opt/XMClib/XMC_Peripheral_Library_v2.1.16/XMCLib/src/xmc_usbd.c ****   gintmsk.b.outepintr = 1U;
1192:/opt/XMClib/XMC_Peripheral_Library_v2.1.16/XMCLib/src/xmc_usbd.c ****   gintmsk.b.inepintr = 1U;
1193:/opt/XMClib/XMC_Peripheral_Library_v2.1.16/XMCLib/src/xmc_usbd.c ****   xmc_device.global_register->gintmsk = gintmsk.d32;
1194:/opt/XMClib/XMC_Peripheral_Library_v2.1.16/XMCLib/src/xmc_usbd.c ****   return XMC_USBD_STATUS_OK;
1195:/opt/XMClib/XMC_Peripheral_Library_v2.1.16/XMCLib/src/xmc_usbd.c **** }
1196:/opt/XMClib/XMC_Peripheral_Library_v2.1.16/XMCLib/src/xmc_usbd.c **** 
1197:/opt/XMClib/XMC_Peripheral_Library_v2.1.16/XMCLib/src/xmc_usbd.c **** /**
1198:/opt/XMClib/XMC_Peripheral_Library_v2.1.16/XMCLib/src/xmc_usbd.c ****  * Uninitializes the USB device
1199:/opt/XMClib/XMC_Peripheral_Library_v2.1.16/XMCLib/src/xmc_usbd.c ****  **/
1200:/opt/XMClib/XMC_Peripheral_Library_v2.1.16/XMCLib/src/xmc_usbd.c **** XMC_USBD_STATUS_t XMC_USBD_Uninitialize() 
1201:/opt/XMClib/XMC_Peripheral_Library_v2.1.16/XMCLib/src/xmc_usbd.c **** {
1202:/opt/XMClib/XMC_Peripheral_Library_v2.1.16/XMCLib/src/xmc_usbd.c ****   /* Disconnect the device */
1203:/opt/XMClib/XMC_Peripheral_Library_v2.1.16/XMCLib/src/xmc_usbd.c ****   dctl_data_t dctl;
1204:/opt/XMClib/XMC_Peripheral_Library_v2.1.16/XMCLib/src/xmc_usbd.c **** 	dctl.d32 = xmc_device.device_register->dctl;
1205:/opt/XMClib/XMC_Peripheral_Library_v2.1.16/XMCLib/src/xmc_usbd.c ****   dctl.b.sftdiscon = 1U;
1206:/opt/XMClib/XMC_Peripheral_Library_v2.1.16/XMCLib/src/xmc_usbd.c ****   xmc_device.device_register->dctl = dctl.d32;
1207:/opt/XMClib/XMC_Peripheral_Library_v2.1.16/XMCLib/src/xmc_usbd.c ****   /* clean up */
1208:/opt/XMClib/XMC_Peripheral_Library_v2.1.16/XMCLib/src/xmc_usbd.c ****   memset((void*)&xmc_device,0U,sizeof(xmc_device));
1209:/opt/XMClib/XMC_Peripheral_Library_v2.1.16/XMCLib/src/xmc_usbd.c ****   return XMC_USBD_STATUS_OK;
1210:/opt/XMClib/XMC_Peripheral_Library_v2.1.16/XMCLib/src/xmc_usbd.c **** }
1211:/opt/XMClib/XMC_Peripheral_Library_v2.1.16/XMCLib/src/xmc_usbd.c **** 
1212:/opt/XMClib/XMC_Peripheral_Library_v2.1.16/XMCLib/src/xmc_usbd.c **** /**
1213:/opt/XMClib/XMC_Peripheral_Library_v2.1.16/XMCLib/src/xmc_usbd.c ****  * Connects the USB device to host
1214:/opt/XMClib/XMC_Peripheral_Library_v2.1.16/XMCLib/src/xmc_usbd.c ****  **/
1215:/opt/XMClib/XMC_Peripheral_Library_v2.1.16/XMCLib/src/xmc_usbd.c **** XMC_USBD_STATUS_t XMC_USBD_DeviceConnect() 
1216:/opt/XMClib/XMC_Peripheral_Library_v2.1.16/XMCLib/src/xmc_usbd.c **** {
 605              		.loc 1 1216 0
 606              		.cfi_startproc
 607              		@ args = 0, pretend = 0, frame = 0
 608              		@ frame_needed = 0, uses_anonymous_args = 0
 609              		@ link register save eliminated.
1217:/opt/XMClib/XMC_Peripheral_Library_v2.1.16/XMCLib/src/xmc_usbd.c ****   /* Just disable softdisconnect */
1218:/opt/XMClib/XMC_Peripheral_Library_v2.1.16/XMCLib/src/xmc_usbd.c ****   dctl_data_t dctl;
1219:/opt/XMClib/XMC_Peripheral_Library_v2.1.16/XMCLib/src/xmc_usbd.c **** 	dctl.d32 = xmc_device.device_register->dctl;
 610              		.loc 1 1219 0
 611 0000 044B     		ldr	r3, .L60
 612 0002 D3F8A421 		ldr	r2, [r3, #420]
 613 0006 5368     		ldr	r3, [r2, #4]
1220:/opt/XMClib/XMC_Peripheral_Library_v2.1.16/XMCLib/src/xmc_usbd.c ****   dctl.b.sftdiscon = 0U;
 614              		.loc 1 1220 0
 615 0008 6FF34103 		bfc	r3, #1, #1
 616              	.LVL51:
1221:/opt/XMClib/XMC_Peripheral_Library_v2.1.16/XMCLib/src/xmc_usbd.c ****   xmc_device.device_register->dctl = dctl.d32;
 617              		.loc 1 1221 0
 618 000c 5360     		str	r3, [r2, #4]
1222:/opt/XMClib/XMC_Peripheral_Library_v2.1.16/XMCLib/src/xmc_usbd.c ****   return XMC_USBD_STATUS_OK;
1223:/opt/XMClib/XMC_Peripheral_Library_v2.1.16/XMCLib/src/xmc_usbd.c **** }
 619              		.loc 1 1223 0
 620 000e 0020     		movs	r0, #0
 621 0010 7047     		bx	lr
 622              	.L61:
 623 0012 00BF     		.align	2
 624              	.L60:
 625 0014 00000000 		.word	xmc_device
 626              		.cfi_endproc
 627              	.LFE189:
 629              		.section	.text.XMC_USBD_DeviceDisconnect,"ax",%progbits
 630              		.align	1
 631              		.global	XMC_USBD_DeviceDisconnect
 632              		.syntax unified
 633              		.thumb
 634              		.thumb_func
 635              		.fpu fpv4-sp-d16
 637              	XMC_USBD_DeviceDisconnect:
 638              	.LFB190:
1224:/opt/XMClib/XMC_Peripheral_Library_v2.1.16/XMCLib/src/xmc_usbd.c **** 
1225:/opt/XMClib/XMC_Peripheral_Library_v2.1.16/XMCLib/src/xmc_usbd.c **** /**
1226:/opt/XMClib/XMC_Peripheral_Library_v2.1.16/XMCLib/src/xmc_usbd.c ****  * Disconnects the USB device from host
1227:/opt/XMClib/XMC_Peripheral_Library_v2.1.16/XMCLib/src/xmc_usbd.c ****  **/
1228:/opt/XMClib/XMC_Peripheral_Library_v2.1.16/XMCLib/src/xmc_usbd.c **** XMC_USBD_STATUS_t XMC_USBD_DeviceDisconnect() 
1229:/opt/XMClib/XMC_Peripheral_Library_v2.1.16/XMCLib/src/xmc_usbd.c **** {
 639              		.loc 1 1229 0
 640              		.cfi_startproc
 641              		@ args = 0, pretend = 0, frame = 0
 642              		@ frame_needed = 0, uses_anonymous_args = 0
 643              		@ link register save eliminated.
1230:/opt/XMClib/XMC_Peripheral_Library_v2.1.16/XMCLib/src/xmc_usbd.c ****   dctl_data_t dctl;
1231:/opt/XMClib/XMC_Peripheral_Library_v2.1.16/XMCLib/src/xmc_usbd.c **** 	dctl.d32 = xmc_device.device_register->dctl;
 644              		.loc 1 1231 0
 645 0000 044B     		ldr	r3, .L63
 646 0002 D3F8A421 		ldr	r2, [r3, #420]
 647 0006 5368     		ldr	r3, [r2, #4]
1232:/opt/XMClib/XMC_Peripheral_Library_v2.1.16/XMCLib/src/xmc_usbd.c ****   dctl.b.sftdiscon = 1U;
 648              		.loc 1 1232 0
 649 0008 43F00203 		orr	r3, r3, #2
 650              	.LVL52:
1233:/opt/XMClib/XMC_Peripheral_Library_v2.1.16/XMCLib/src/xmc_usbd.c ****   xmc_device.device_register->dctl = dctl.d32;
 651              		.loc 1 1233 0
 652 000c 5360     		str	r3, [r2, #4]
1234:/opt/XMClib/XMC_Peripheral_Library_v2.1.16/XMCLib/src/xmc_usbd.c ****   return XMC_USBD_STATUS_OK;
1235:/opt/XMClib/XMC_Peripheral_Library_v2.1.16/XMCLib/src/xmc_usbd.c **** }
 653              		.loc 1 1235 0
 654 000e 0020     		movs	r0, #0
 655 0010 7047     		bx	lr
 656              	.L64:
 657 0012 00BF     		.align	2
 658              	.L63:
 659 0014 00000000 		.word	xmc_device
 660              		.cfi_endproc
 661              	.LFE190:
 663              		.section	.text.XMC_USBD_EndpointReadStart,"ax",%progbits
 664              		.align	1
 665              		.global	XMC_USBD_EndpointReadStart
 666              		.syntax unified
 667              		.thumb
 668              		.thumb_func
 669              		.fpu fpv4-sp-d16
 671              	XMC_USBD_EndpointReadStart:
 672              	.LFB192:
1236:/opt/XMClib/XMC_Peripheral_Library_v2.1.16/XMCLib/src/xmc_usbd.c **** 
1237:/opt/XMClib/XMC_Peripheral_Library_v2.1.16/XMCLib/src/xmc_usbd.c **** /**
1238:/opt/XMClib/XMC_Peripheral_Library_v2.1.16/XMCLib/src/xmc_usbd.c ****  * Gets the USB device state.
1239:/opt/XMClib/XMC_Peripheral_Library_v2.1.16/XMCLib/src/xmc_usbd.c ****  **/
1240:/opt/XMClib/XMC_Peripheral_Library_v2.1.16/XMCLib/src/xmc_usbd.c **** XMC_USBD_STATE_t XMC_USBD_DeviceGetState(const XMC_USBD_t *const obj) 
1241:/opt/XMClib/XMC_Peripheral_Library_v2.1.16/XMCLib/src/xmc_usbd.c **** {
1242:/opt/XMClib/XMC_Peripheral_Library_v2.1.16/XMCLib/src/xmc_usbd.c ****   XMC_USBD_STATE_t state={0U};
1243:/opt/XMClib/XMC_Peripheral_Library_v2.1.16/XMCLib/src/xmc_usbd.c ****   state.speed = XMC_USBD_SPEED_FULL;
1244:/opt/XMClib/XMC_Peripheral_Library_v2.1.16/XMCLib/src/xmc_usbd.c ****   state.connected = xmc_device.IsConnected;
1245:/opt/XMClib/XMC_Peripheral_Library_v2.1.16/XMCLib/src/xmc_usbd.c ****   state.active = XMC_USBD_lDeviceActive(obj);
1246:/opt/XMClib/XMC_Peripheral_Library_v2.1.16/XMCLib/src/xmc_usbd.c ****   state.powered = xmc_device.IsPowered;
1247:/opt/XMClib/XMC_Peripheral_Library_v2.1.16/XMCLib/src/xmc_usbd.c ****   return state;
1248:/opt/XMClib/XMC_Peripheral_Library_v2.1.16/XMCLib/src/xmc_usbd.c **** }
1249:/opt/XMClib/XMC_Peripheral_Library_v2.1.16/XMCLib/src/xmc_usbd.c **** 
1250:/opt/XMClib/XMC_Peripheral_Library_v2.1.16/XMCLib/src/xmc_usbd.c **** /**
1251:/opt/XMClib/XMC_Peripheral_Library_v2.1.16/XMCLib/src/xmc_usbd.c ****  * Prepares the endpoint to read next OUT packet
1252:/opt/XMClib/XMC_Peripheral_Library_v2.1.16/XMCLib/src/xmc_usbd.c ****  **/
1253:/opt/XMClib/XMC_Peripheral_Library_v2.1.16/XMCLib/src/xmc_usbd.c **** XMC_USBD_STATUS_t XMC_USBD_EndpointReadStart(const uint8_t ep_addr, uint32_t size) 
1254:/opt/XMClib/XMC_Peripheral_Library_v2.1.16/XMCLib/src/xmc_usbd.c **** {
 673              		.loc 1 1254 0
 674              		.cfi_startproc
 675              		@ args = 0, pretend = 0, frame = 0
 676              		@ frame_needed = 0, uses_anonymous_args = 0
 677              	.LVL53:
 678 0000 00F00F00 		and	r0, r0, #15
 679              	.LVL54:
1255:/opt/XMClib/XMC_Peripheral_Library_v2.1.16/XMCLib/src/xmc_usbd.c ****   XMC_USBD_EP_t *ep = &xmc_device.ep[ep_addr & (uint8_t)XMC_USBD_EP_NUM_MASK];
1256:/opt/XMClib/XMC_Peripheral_Library_v2.1.16/XMCLib/src/xmc_usbd.c ****   XMC_USBD_STATUS_t result;
1257:/opt/XMClib/XMC_Peripheral_Library_v2.1.16/XMCLib/src/xmc_usbd.c **** 	
1258:/opt/XMClib/XMC_Peripheral_Library_v2.1.16/XMCLib/src/xmc_usbd.c ****   if (ep->outInUse || !ep->isConfigured)
 680              		.loc 1 1258 0
 681 0004 134A     		ldr	r2, .L73
 682 0006 3423     		movs	r3, #52
 683 0008 03FB0023 		mla	r3, r3, r0, r2
 684 000c 5B68     		ldr	r3, [r3, #4]
 685 000e 13F0100F 		tst	r3, #16
 686 0012 1AD1     		bne	.L67
 687              		.loc 1 1258 0 is_stmt 0 discriminator 1
 688 0014 3423     		movs	r3, #52
 689 0016 03FB0023 		mla	r3, r3, r0, r2
 690 001a 1B79     		ldrb	r3, [r3, #4]	@ zero_extendqisi2
 691 001c 13F0040F 		tst	r3, #4
 692 0020 15D0     		beq	.L68
1254:/opt/XMClib/XMC_Peripheral_Library_v2.1.16/XMCLib/src/xmc_usbd.c ****   XMC_USBD_EP_t *ep = &xmc_device.ep[ep_addr & (uint8_t)XMC_USBD_EP_NUM_MASK];
 693              		.loc 1 1254 0 is_stmt 1
 694 0022 70B5     		push	{r4, r5, r6, lr}
 695              	.LCFI11:
 696              		.cfi_def_cfa_offset 16
 697              		.cfi_offset 4, -16
 698              		.cfi_offset 5, -12
 699              		.cfi_offset 6, -8
 700              		.cfi_offset 14, -4
 701              	.LVL55:
1259:/opt/XMClib/XMC_Peripheral_Library_v2.1.16/XMCLib/src/xmc_usbd.c ****   {
1260:/opt/XMClib/XMC_Peripheral_Library_v2.1.16/XMCLib/src/xmc_usbd.c ****     result = XMC_USBD_STATUS_ERROR;
1261:/opt/XMClib/XMC_Peripheral_Library_v2.1.16/XMCLib/src/xmc_usbd.c ****   }
1262:/opt/XMClib/XMC_Peripheral_Library_v2.1.16/XMCLib/src/xmc_usbd.c ****   else
1263:/opt/XMClib/XMC_Peripheral_Library_v2.1.16/XMCLib/src/xmc_usbd.c ****   {
1264:/opt/XMClib/XMC_Peripheral_Library_v2.1.16/XMCLib/src/xmc_usbd.c ****     /* short the length to buffer size if needed */
1265:/opt/XMClib/XMC_Peripheral_Library_v2.1.16/XMCLib/src/xmc_usbd.c ****     if (size > ep->outBufferSize)
1266:/opt/XMClib/XMC_Peripheral_Library_v2.1.16/XMCLib/src/xmc_usbd.c ****     {
1267:/opt/XMClib/XMC_Peripheral_Library_v2.1.16/XMCLib/src/xmc_usbd.c ****       size = ep->outBufferSize;
1268:/opt/XMClib/XMC_Peripheral_Library_v2.1.16/XMCLib/src/xmc_usbd.c ****     }
1269:/opt/XMClib/XMC_Peripheral_Library_v2.1.16/XMCLib/src/xmc_usbd.c ****     /* set ep values */
1270:/opt/XMClib/XMC_Peripheral_Library_v2.1.16/XMCLib/src/xmc_usbd.c ****     ep->xferTotal = size;
 702              		.loc 1 1270 0
 703 0024 3426     		movs	r6, #52
 704 0026 06FB0023 		mla	r3, r6, r0, r2
 705 002a 5A69     		ldr	r2, [r3, #20]
 706 002c 9142     		cmp	r1, r2
 707 002e 28BF     		it	cs
 708 0030 1146     		movcs	r1, r2
 709              	.LVL56:
 710 0032 1963     		str	r1, [r3, #48]
1271:/opt/XMClib/XMC_Peripheral_Library_v2.1.16/XMCLib/src/xmc_usbd.c ****     ep->xferCount = 0U;
 711              		.loc 1 1271 0
 712 0034 0024     		movs	r4, #0
 713 0036 DC62     		str	r4, [r3, #44]
1272:/opt/XMClib/XMC_Peripheral_Library_v2.1.16/XMCLib/src/xmc_usbd.c ****     ep->xferLength = 0U;
 714              		.loc 1 1272 0
 715 0038 9C62     		str	r4, [r3, #40]
1273:/opt/XMClib/XMC_Peripheral_Library_v2.1.16/XMCLib/src/xmc_usbd.c ****     ep->xferBuffer = ep->outBuffer;
 716              		.loc 1 1273 0
 717 003a DA68     		ldr	r2, [r3, #12]
 718 003c 5A62     		str	r2, [r3, #36]
1274:/opt/XMClib/XMC_Peripheral_Library_v2.1.16/XMCLib/src/xmc_usbd.c ****     ep->outBytesAvailable = 0U;
 719              		.loc 1 1274 0
 720 003e 1C61     		str	r4, [r3, #16]
1275:/opt/XMClib/XMC_Peripheral_Library_v2.1.16/XMCLib/src/xmc_usbd.c ****     XMC_USBD_lStartReadXfer(ep);
 721              		.loc 1 1275 0
 722 0040 1846     		mov	r0, r3
 723              	.LVL57:
 724 0042 FFF7FEFF 		bl	XMC_USBD_lStartReadXfer
 725              	.LVL58:
1276:/opt/XMClib/XMC_Peripheral_Library_v2.1.16/XMCLib/src/xmc_usbd.c ****     result= XMC_USBD_STATUS_OK;
 726              		.loc 1 1276 0
 727 0046 2046     		mov	r0, r4
 728              	.LVL59:
1277:/opt/XMClib/XMC_Peripheral_Library_v2.1.16/XMCLib/src/xmc_usbd.c ****   }
1278:/opt/XMClib/XMC_Peripheral_Library_v2.1.16/XMCLib/src/xmc_usbd.c ****   return result;
1279:/opt/XMClib/XMC_Peripheral_Library_v2.1.16/XMCLib/src/xmc_usbd.c **** }
 729              		.loc 1 1279 0
 730 0048 70BD     		pop	{r4, r5, r6, pc}
 731              	.LVL60:
 732              	.L67:
 733              	.LCFI12:
 734              		.cfi_def_cfa_offset 0
 735              		.cfi_restore 4
 736              		.cfi_restore 5
 737              		.cfi_restore 6
 738              		.cfi_restore 14
1260:/opt/XMClib/XMC_Peripheral_Library_v2.1.16/XMCLib/src/xmc_usbd.c ****   }
 739              		.loc 1 1260 0
 740 004a 0120     		movs	r0, #1
 741              	.LVL61:
 742 004c 7047     		bx	lr
 743              	.LVL62:
 744              	.L68:
 745 004e 0120     		movs	r0, #1
 746              	.LVL63:
 747              		.loc 1 1279 0
 748 0050 7047     		bx	lr
 749              	.L74:
 750 0052 00BF     		.align	2
 751              	.L73:
 752 0054 00000000 		.word	xmc_device
 753              		.cfi_endproc
 754              	.LFE192:
 756              		.section	.text.XMC_USBD_DeviceSetAddress,"ax",%progbits
 757              		.align	1
 758              		.global	XMC_USBD_DeviceSetAddress
 759              		.syntax unified
 760              		.thumb
 761              		.thumb_func
 762              		.fpu fpv4-sp-d16
 764              	XMC_USBD_DeviceSetAddress:
 765              	.LFB195:
1280:/opt/XMClib/XMC_Peripheral_Library_v2.1.16/XMCLib/src/xmc_usbd.c **** 
1281:/opt/XMClib/XMC_Peripheral_Library_v2.1.16/XMCLib/src/xmc_usbd.c **** /**
1282:/opt/XMClib/XMC_Peripheral_Library_v2.1.16/XMCLib/src/xmc_usbd.c ****  * Reads the number of bytes from the USB OUT endpoint
1283:/opt/XMClib/XMC_Peripheral_Library_v2.1.16/XMCLib/src/xmc_usbd.c ****  **/
1284:/opt/XMClib/XMC_Peripheral_Library_v2.1.16/XMCLib/src/xmc_usbd.c **** int32_t XMC_USBD_EndpointRead(const uint8_t ep_num,uint8_t * buffer,uint32_t length) 
1285:/opt/XMClib/XMC_Peripheral_Library_v2.1.16/XMCLib/src/xmc_usbd.c **** {
1286:/opt/XMClib/XMC_Peripheral_Library_v2.1.16/XMCLib/src/xmc_usbd.c ****   XMC_USBD_EP_t *ep = &xmc_device.ep[ep_num];
1287:/opt/XMClib/XMC_Peripheral_Library_v2.1.16/XMCLib/src/xmc_usbd.c ****   if (length > ep->outBytesAvailable)
1288:/opt/XMClib/XMC_Peripheral_Library_v2.1.16/XMCLib/src/xmc_usbd.c ****   {
1289:/opt/XMClib/XMC_Peripheral_Library_v2.1.16/XMCLib/src/xmc_usbd.c ****     length = ep->outBytesAvailable;
1290:/opt/XMClib/XMC_Peripheral_Library_v2.1.16/XMCLib/src/xmc_usbd.c ****   }
1291:/opt/XMClib/XMC_Peripheral_Library_v2.1.16/XMCLib/src/xmc_usbd.c ****   memcpy(buffer,&ep->outBuffer[ep->outOffset],length);
1292:/opt/XMClib/XMC_Peripheral_Library_v2.1.16/XMCLib/src/xmc_usbd.c ****   ep->outBytesAvailable -= length;
1293:/opt/XMClib/XMC_Peripheral_Library_v2.1.16/XMCLib/src/xmc_usbd.c ****   if (ep->outBytesAvailable)
1294:/opt/XMClib/XMC_Peripheral_Library_v2.1.16/XMCLib/src/xmc_usbd.c ****   {
1295:/opt/XMClib/XMC_Peripheral_Library_v2.1.16/XMCLib/src/xmc_usbd.c ****     ep->outOffset += length;
1296:/opt/XMClib/XMC_Peripheral_Library_v2.1.16/XMCLib/src/xmc_usbd.c ****   }
1297:/opt/XMClib/XMC_Peripheral_Library_v2.1.16/XMCLib/src/xmc_usbd.c ****   else
1298:/opt/XMClib/XMC_Peripheral_Library_v2.1.16/XMCLib/src/xmc_usbd.c ****   {
1299:/opt/XMClib/XMC_Peripheral_Library_v2.1.16/XMCLib/src/xmc_usbd.c ****     ep->outOffset = 0U;
1300:/opt/XMClib/XMC_Peripheral_Library_v2.1.16/XMCLib/src/xmc_usbd.c ****   }
1301:/opt/XMClib/XMC_Peripheral_Library_v2.1.16/XMCLib/src/xmc_usbd.c ****   return (int32_t)length;
1302:/opt/XMClib/XMC_Peripheral_Library_v2.1.16/XMCLib/src/xmc_usbd.c **** }
1303:/opt/XMClib/XMC_Peripheral_Library_v2.1.16/XMCLib/src/xmc_usbd.c **** 
1304:/opt/XMClib/XMC_Peripheral_Library_v2.1.16/XMCLib/src/xmc_usbd.c **** /**
1305:/opt/XMClib/XMC_Peripheral_Library_v2.1.16/XMCLib/src/xmc_usbd.c ****  * Writes number of bytes in to the USB IN endpoint.
1306:/opt/XMClib/XMC_Peripheral_Library_v2.1.16/XMCLib/src/xmc_usbd.c ****  **/
1307:/opt/XMClib/XMC_Peripheral_Library_v2.1.16/XMCLib/src/xmc_usbd.c **** int32_t XMC_USBD_EndpointWrite(const uint8_t ep_num,const uint8_t * buffer,uint32_t length) 
1308:/opt/XMClib/XMC_Peripheral_Library_v2.1.16/XMCLib/src/xmc_usbd.c **** {
1309:/opt/XMClib/XMC_Peripheral_Library_v2.1.16/XMCLib/src/xmc_usbd.c ****   XMC_USBD_EP_t * ep = &xmc_device.ep[ep_num & (uint8_t)XMC_USBD_EP_NUM_MASK];
1310:/opt/XMClib/XMC_Peripheral_Library_v2.1.16/XMCLib/src/xmc_usbd.c ****   int32_t result;
1311:/opt/XMClib/XMC_Peripheral_Library_v2.1.16/XMCLib/src/xmc_usbd.c ****   if (!ep->isConfigured)
1312:/opt/XMClib/XMC_Peripheral_Library_v2.1.16/XMCLib/src/xmc_usbd.c ****   {
1313:/opt/XMClib/XMC_Peripheral_Library_v2.1.16/XMCLib/src/xmc_usbd.c ****     result = (int32_t)XMC_USBD_STATUS_ERROR;
1314:/opt/XMClib/XMC_Peripheral_Library_v2.1.16/XMCLib/src/xmc_usbd.c ****   }
1315:/opt/XMClib/XMC_Peripheral_Library_v2.1.16/XMCLib/src/xmc_usbd.c ****   else if (ep->inInUse == 1U)
1316:/opt/XMClib/XMC_Peripheral_Library_v2.1.16/XMCLib/src/xmc_usbd.c ****   {
1317:/opt/XMClib/XMC_Peripheral_Library_v2.1.16/XMCLib/src/xmc_usbd.c ****     result=(int32_t)0;
1318:/opt/XMClib/XMC_Peripheral_Library_v2.1.16/XMCLib/src/xmc_usbd.c ****   }
1319:/opt/XMClib/XMC_Peripheral_Library_v2.1.16/XMCLib/src/xmc_usbd.c ****   else
1320:/opt/XMClib/XMC_Peripheral_Library_v2.1.16/XMCLib/src/xmc_usbd.c ****   {
1321:/opt/XMClib/XMC_Peripheral_Library_v2.1.16/XMCLib/src/xmc_usbd.c ****     if (length > ep->inBufferSize)
1322:/opt/XMClib/XMC_Peripheral_Library_v2.1.16/XMCLib/src/xmc_usbd.c ****     {
1323:/opt/XMClib/XMC_Peripheral_Library_v2.1.16/XMCLib/src/xmc_usbd.c ****       length = ep->inBufferSize;
1324:/opt/XMClib/XMC_Peripheral_Library_v2.1.16/XMCLib/src/xmc_usbd.c ****     }
1325:/opt/XMClib/XMC_Peripheral_Library_v2.1.16/XMCLib/src/xmc_usbd.c ****     /* copy data into input buffer for DMA and FIFO mode */
1326:/opt/XMClib/XMC_Peripheral_Library_v2.1.16/XMCLib/src/xmc_usbd.c **** 		memcpy(ep->inBuffer,(const void *)buffer,length);
1327:/opt/XMClib/XMC_Peripheral_Library_v2.1.16/XMCLib/src/xmc_usbd.c **** 		ep->xferBuffer = ep->inBuffer;
1328:/opt/XMClib/XMC_Peripheral_Library_v2.1.16/XMCLib/src/xmc_usbd.c ****     ep->xferTotal = length;
1329:/opt/XMClib/XMC_Peripheral_Library_v2.1.16/XMCLib/src/xmc_usbd.c ****     /* set transfer values */
1330:/opt/XMClib/XMC_Peripheral_Library_v2.1.16/XMCLib/src/xmc_usbd.c ****     ep->xferLength = 0U;
1331:/opt/XMClib/XMC_Peripheral_Library_v2.1.16/XMCLib/src/xmc_usbd.c ****     ep->xferCount = 0U;
1332:/opt/XMClib/XMC_Peripheral_Library_v2.1.16/XMCLib/src/xmc_usbd.c ****     ep->inInUse = 1U;
1333:/opt/XMClib/XMC_Peripheral_Library_v2.1.16/XMCLib/src/xmc_usbd.c ****     /* start the transfer */
1334:/opt/XMClib/XMC_Peripheral_Library_v2.1.16/XMCLib/src/xmc_usbd.c ****     XMC_USBD_lStartWriteXfer(ep);
1335:/opt/XMClib/XMC_Peripheral_Library_v2.1.16/XMCLib/src/xmc_usbd.c ****     result=(int32_t)ep->xferTotal;
1336:/opt/XMClib/XMC_Peripheral_Library_v2.1.16/XMCLib/src/xmc_usbd.c ****   }
1337:/opt/XMClib/XMC_Peripheral_Library_v2.1.16/XMCLib/src/xmc_usbd.c ****   return result;
1338:/opt/XMClib/XMC_Peripheral_Library_v2.1.16/XMCLib/src/xmc_usbd.c **** }
1339:/opt/XMClib/XMC_Peripheral_Library_v2.1.16/XMCLib/src/xmc_usbd.c **** 
1340:/opt/XMClib/XMC_Peripheral_Library_v2.1.16/XMCLib/src/xmc_usbd.c **** /**
1341:/opt/XMClib/XMC_Peripheral_Library_v2.1.16/XMCLib/src/xmc_usbd.c ****  * Sets the USB device address.
1342:/opt/XMClib/XMC_Peripheral_Library_v2.1.16/XMCLib/src/xmc_usbd.c ****  **/
1343:/opt/XMClib/XMC_Peripheral_Library_v2.1.16/XMCLib/src/xmc_usbd.c **** XMC_USBD_STATUS_t XMC_USBD_DeviceSetAddress(const uint8_t address,const XMC_USBD_SET_ADDRESS_STAGE_
1344:/opt/XMClib/XMC_Peripheral_Library_v2.1.16/XMCLib/src/xmc_usbd.c **** {
 766              		.loc 1 1344 0
 767              		.cfi_startproc
 768              		@ args = 0, pretend = 0, frame = 0
 769              		@ frame_needed = 0, uses_anonymous_args = 0
 770              		@ link register save eliminated.
 771              	.LVL64:
1345:/opt/XMClib/XMC_Peripheral_Library_v2.1.16/XMCLib/src/xmc_usbd.c ****   dcfg_data_t data;
1346:/opt/XMClib/XMC_Peripheral_Library_v2.1.16/XMCLib/src/xmc_usbd.c ****   data.d32 = xmc_device.device_register->dcfg;
 772              		.loc 1 1346 0
 773 0000 044B     		ldr	r3, .L77
 774 0002 D3F8A431 		ldr	r3, [r3, #420]
 775 0006 1A68     		ldr	r2, [r3]
 776              	.LVL65:
1347:/opt/XMClib/XMC_Peripheral_Library_v2.1.16/XMCLib/src/xmc_usbd.c ****   if (stage == XMC_USBD_SET_ADDRESS_STAGE_SETUP)
 777              		.loc 1 1347 0
 778 0008 11B9     		cbnz	r1, .L76
1348:/opt/XMClib/XMC_Peripheral_Library_v2.1.16/XMCLib/src/xmc_usbd.c ****   {
1349:/opt/XMClib/XMC_Peripheral_Library_v2.1.16/XMCLib/src/xmc_usbd.c ****     data.b.devaddr = address;
 779              		.loc 1 1349 0
 780 000a 60F30A12 		bfi	r2, r0, #4, #7
1350:/opt/XMClib/XMC_Peripheral_Library_v2.1.16/XMCLib/src/xmc_usbd.c ****     xmc_device.device_register->dcfg = data.d32;
 781              		.loc 1 1350 0
 782 000e 1A60     		str	r2, [r3]
 783              	.L76:
1351:/opt/XMClib/XMC_Peripheral_Library_v2.1.16/XMCLib/src/xmc_usbd.c ****   }
1352:/opt/XMClib/XMC_Peripheral_Library_v2.1.16/XMCLib/src/xmc_usbd.c **** 	return XMC_USBD_STATUS_OK;
1353:/opt/XMClib/XMC_Peripheral_Library_v2.1.16/XMCLib/src/xmc_usbd.c **** }
 784              		.loc 1 1353 0
 785 0010 0020     		movs	r0, #0
 786              	.LVL66:
 787 0012 7047     		bx	lr
 788              	.L78:
 789              		.align	2
 790              	.L77:
 791 0014 00000000 		.word	xmc_device
 792              		.cfi_endproc
 793              	.LFE195:
 795              		.section	.text.XMC_USBD_EndpointStall,"ax",%progbits
 796              		.align	1
 797              		.global	XMC_USBD_EndpointStall
 798              		.syntax unified
 799              		.thumb
 800              		.thumb_func
 801              		.fpu fpv4-sp-d16
 803              	XMC_USBD_EndpointStall:
 804              	.LFB196:
1354:/opt/XMClib/XMC_Peripheral_Library_v2.1.16/XMCLib/src/xmc_usbd.c **** 
1355:/opt/XMClib/XMC_Peripheral_Library_v2.1.16/XMCLib/src/xmc_usbd.c **** /**
1356:/opt/XMClib/XMC_Peripheral_Library_v2.1.16/XMCLib/src/xmc_usbd.c ****  * Set/clear stall on the selected endpoint.
1357:/opt/XMClib/XMC_Peripheral_Library_v2.1.16/XMCLib/src/xmc_usbd.c ****  **/
1358:/opt/XMClib/XMC_Peripheral_Library_v2.1.16/XMCLib/src/xmc_usbd.c **** XMC_USBD_STATUS_t XMC_USBD_EndpointStall(const uint8_t ep_addr, const bool stall) 
1359:/opt/XMClib/XMC_Peripheral_Library_v2.1.16/XMCLib/src/xmc_usbd.c **** {
 805              		.loc 1 1359 0
 806              		.cfi_startproc
 807              		@ args = 0, pretend = 0, frame = 0
 808              		@ frame_needed = 0, uses_anonymous_args = 0
 809              		@ link register save eliminated.
 810              	.LVL67:
1360:/opt/XMClib/XMC_Peripheral_Library_v2.1.16/XMCLib/src/xmc_usbd.c ****   depctl_data_t data;
1361:/opt/XMClib/XMC_Peripheral_Library_v2.1.16/XMCLib/src/xmc_usbd.c ****   XMC_USBD_EP_t *ep = &xmc_device.ep[(ep_addr & (uint8_t)XMC_USBD_EP_NUM_MASK)];
 811              		.loc 1 1361 0
 812 0000 00F00F02 		and	r2, r0, #15
 813              	.LVL68:
1362:/opt/XMClib/XMC_Peripheral_Library_v2.1.16/XMCLib/src/xmc_usbd.c ****   if (stall)
 814              		.loc 1 1362 0
 815 0004 51B3     		cbz	r1, .L80
1363:/opt/XMClib/XMC_Peripheral_Library_v2.1.16/XMCLib/src/xmc_usbd.c ****   {
1364:/opt/XMClib/XMC_Peripheral_Library_v2.1.16/XMCLib/src/xmc_usbd.c ****     if (ep_addr & (uint8_t)XMC_USBD_ENDPOINT_DIRECTION_MASK)
 816              		.loc 1 1364 0
 817 0006 10F0800F 		tst	r0, #128
 818 000a 18D1     		bne	.L86
1365:/opt/XMClib/XMC_Peripheral_Library_v2.1.16/XMCLib/src/xmc_usbd.c ****     {
1366:/opt/XMClib/XMC_Peripheral_Library_v2.1.16/XMCLib/src/xmc_usbd.c ****       /*set stall bit */
1367:/opt/XMClib/XMC_Peripheral_Library_v2.1.16/XMCLib/src/xmc_usbd.c ****       data.d32 = xmc_device.endpoint_in_register[ep->address_u.address_st.number]->diepctl;
1368:/opt/XMClib/XMC_Peripheral_Library_v2.1.16/XMCLib/src/xmc_usbd.c ****       data.b.stall = 1U;
1369:/opt/XMClib/XMC_Peripheral_Library_v2.1.16/XMCLib/src/xmc_usbd.c ****       xmc_device.endpoint_in_register[ep->address_u.address_st.number]->diepctl = data.d32;
1370:/opt/XMClib/XMC_Peripheral_Library_v2.1.16/XMCLib/src/xmc_usbd.c ****     }
1371:/opt/XMClib/XMC_Peripheral_Library_v2.1.16/XMCLib/src/xmc_usbd.c ****     else
1372:/opt/XMClib/XMC_Peripheral_Library_v2.1.16/XMCLib/src/xmc_usbd.c ****     {
1373:/opt/XMClib/XMC_Peripheral_Library_v2.1.16/XMCLib/src/xmc_usbd.c ****       /*set stall bit */
1374:/opt/XMClib/XMC_Peripheral_Library_v2.1.16/XMCLib/src/xmc_usbd.c ****       data.d32 = xmc_device.endpoint_out_register[ep->address_u.address_st.number]->doepctl;
 819              		.loc 1 1374 0
 820 000c 2A4B     		ldr	r3, .L88
 821 000e 3421     		movs	r1, #52
 822              	.LVL69:
 823 0010 01FB02F1 		mul	r1, r1, r2
 824 0014 595C     		ldrb	r1, [r3, r1]	@ zero_extendqisi2
 825 0016 01F00F01 		and	r1, r1, #15
 826 001a 03EB8103 		add	r3, r3, r1, lsl #2
 827 001e D3F8C411 		ldr	r1, [r3, #452]
 828 0022 0B68     		ldr	r3, [r1]
1375:/opt/XMClib/XMC_Peripheral_Library_v2.1.16/XMCLib/src/xmc_usbd.c ****       data.b.stall = 1U;
 829              		.loc 1 1375 0
 830 0024 43F40013 		orr	r3, r3, #2097152
 831              	.LVL70:
1376:/opt/XMClib/XMC_Peripheral_Library_v2.1.16/XMCLib/src/xmc_usbd.c ****       xmc_device.endpoint_out_register[ep->address_u.address_st.number]->doepctl = data.d32;
 832              		.loc 1 1376 0
 833 0028 0B60     		str	r3, [r1]
 834              	.L82:
1377:/opt/XMClib/XMC_Peripheral_Library_v2.1.16/XMCLib/src/xmc_usbd.c ****     }
1378:/opt/XMClib/XMC_Peripheral_Library_v2.1.16/XMCLib/src/xmc_usbd.c ****     ep->isStalled = 1U;
 835              		.loc 1 1378 0
 836 002a 2349     		ldr	r1, .L88
 837 002c 3423     		movs	r3, #52
 838              	.LVL71:
 839 002e 03FB0212 		mla	r2, r3, r2, r1
 840              	.LVL72:
 841 0032 1379     		ldrb	r3, [r2, #4]	@ zero_extendqisi2
 842 0034 43F02003 		orr	r3, r3, #32
 843 0038 1371     		strb	r3, [r2, #4]
 844              	.L83:
1379:/opt/XMClib/XMC_Peripheral_Library_v2.1.16/XMCLib/src/xmc_usbd.c ****   }
1380:/opt/XMClib/XMC_Peripheral_Library_v2.1.16/XMCLib/src/xmc_usbd.c ****   else
1381:/opt/XMClib/XMC_Peripheral_Library_v2.1.16/XMCLib/src/xmc_usbd.c ****   {
1382:/opt/XMClib/XMC_Peripheral_Library_v2.1.16/XMCLib/src/xmc_usbd.c ****     /* just clear stall bit */
1383:/opt/XMClib/XMC_Peripheral_Library_v2.1.16/XMCLib/src/xmc_usbd.c **** 		if (ep_addr & (uint8_t)XMC_USBD_ENDPOINT_DIRECTION_MASK)
1384:/opt/XMClib/XMC_Peripheral_Library_v2.1.16/XMCLib/src/xmc_usbd.c **** 		{
1385:/opt/XMClib/XMC_Peripheral_Library_v2.1.16/XMCLib/src/xmc_usbd.c **** 			data.d32 = xmc_device.endpoint_in_register[ep->address_u.address_st.number]->diepctl;
1386:/opt/XMClib/XMC_Peripheral_Library_v2.1.16/XMCLib/src/xmc_usbd.c **** 			data.b.stall = 0U;
1387:/opt/XMClib/XMC_Peripheral_Library_v2.1.16/XMCLib/src/xmc_usbd.c **** 			data.b.setd0pid = 1U; /* reset pid to 0 */
1388:/opt/XMClib/XMC_Peripheral_Library_v2.1.16/XMCLib/src/xmc_usbd.c **** 			xmc_device.endpoint_in_register[ep->address_u.address_st.number]->diepctl = data.d32;
1389:/opt/XMClib/XMC_Peripheral_Library_v2.1.16/XMCLib/src/xmc_usbd.c **** 		}
1390:/opt/XMClib/XMC_Peripheral_Library_v2.1.16/XMCLib/src/xmc_usbd.c **** 		else
1391:/opt/XMClib/XMC_Peripheral_Library_v2.1.16/XMCLib/src/xmc_usbd.c **** 		{
1392:/opt/XMClib/XMC_Peripheral_Library_v2.1.16/XMCLib/src/xmc_usbd.c **** 			data.d32 = xmc_device.endpoint_out_register[ep->address_u.address_st.number]->doepctl;
1393:/opt/XMClib/XMC_Peripheral_Library_v2.1.16/XMCLib/src/xmc_usbd.c **** 			data.b.stall = 0U;
1394:/opt/XMClib/XMC_Peripheral_Library_v2.1.16/XMCLib/src/xmc_usbd.c **** 			data.b.setd0pid = 1U; /* reset pid to 0 */
1395:/opt/XMClib/XMC_Peripheral_Library_v2.1.16/XMCLib/src/xmc_usbd.c **** 			xmc_device.endpoint_out_register[ep->address_u.address_st.number]->doepctl = data.d32;
1396:/opt/XMClib/XMC_Peripheral_Library_v2.1.16/XMCLib/src/xmc_usbd.c **** 		}
1397:/opt/XMClib/XMC_Peripheral_Library_v2.1.16/XMCLib/src/xmc_usbd.c **** 		ep->isStalled = 0U;
1398:/opt/XMClib/XMC_Peripheral_Library_v2.1.16/XMCLib/src/xmc_usbd.c **** 	}
1399:/opt/XMClib/XMC_Peripheral_Library_v2.1.16/XMCLib/src/xmc_usbd.c **** 	return XMC_USBD_STATUS_OK;
1400:/opt/XMClib/XMC_Peripheral_Library_v2.1.16/XMCLib/src/xmc_usbd.c **** }
 845              		.loc 1 1400 0
 846 003a 0020     		movs	r0, #0
 847              	.LVL73:
 848 003c 7047     		bx	lr
 849              	.LVL74:
 850              	.L86:
1367:/opt/XMClib/XMC_Peripheral_Library_v2.1.16/XMCLib/src/xmc_usbd.c ****       data.b.stall = 1U;
 851              		.loc 1 1367 0
 852 003e 1E49     		ldr	r1, .L88
 853              	.LVL75:
 854 0040 3423     		movs	r3, #52
 855 0042 03FB02F3 		mul	r3, r3, r2
 856 0046 CB5C     		ldrb	r3, [r1, r3]	@ zero_extendqisi2
 857 0048 03F00F03 		and	r3, r3, #15
 858 004c 6A33     		adds	r3, r3, #106
 859 004e 51F82310 		ldr	r1, [r1, r3, lsl #2]
 860 0052 0B68     		ldr	r3, [r1]
1368:/opt/XMClib/XMC_Peripheral_Library_v2.1.16/XMCLib/src/xmc_usbd.c ****       xmc_device.endpoint_in_register[ep->address_u.address_st.number]->diepctl = data.d32;
 861              		.loc 1 1368 0
 862 0054 43F40013 		orr	r3, r3, #2097152
 863              	.LVL76:
1369:/opt/XMClib/XMC_Peripheral_Library_v2.1.16/XMCLib/src/xmc_usbd.c ****     }
 864              		.loc 1 1369 0
 865 0058 0B60     		str	r3, [r1]
 866 005a E6E7     		b	.L82
 867              	.LVL77:
 868              	.L80:
1383:/opt/XMClib/XMC_Peripheral_Library_v2.1.16/XMCLib/src/xmc_usbd.c **** 		{
 869              		.loc 1 1383 0
 870 005c 10F0800F 		tst	r0, #128
 871 0060 19D1     		bne	.L87
1392:/opt/XMClib/XMC_Peripheral_Library_v2.1.16/XMCLib/src/xmc_usbd.c **** 			data.b.stall = 0U;
 872              		.loc 1 1392 0
 873 0062 154B     		ldr	r3, .L88
 874 0064 3421     		movs	r1, #52
 875              	.LVL78:
 876 0066 01FB02F1 		mul	r1, r1, r2
 877 006a 595C     		ldrb	r1, [r3, r1]	@ zero_extendqisi2
 878 006c 01F00F01 		and	r1, r1, #15
 879 0070 03EB8103 		add	r3, r3, r1, lsl #2
 880 0074 D3F8C411 		ldr	r1, [r3, #452]
 881 0078 0B68     		ldr	r3, [r1]
1393:/opt/XMClib/XMC_Peripheral_Library_v2.1.16/XMCLib/src/xmc_usbd.c **** 			data.b.setd0pid = 1U; /* reset pid to 0 */
 882              		.loc 1 1393 0
 883 007a 23F08153 		bic	r3, r3, #270532608
 884              	.LVL79:
1394:/opt/XMClib/XMC_Peripheral_Library_v2.1.16/XMCLib/src/xmc_usbd.c **** 			xmc_device.endpoint_out_register[ep->address_u.address_st.number]->doepctl = data.d32;
 885              		.loc 1 1394 0
 886 007e 43F08053 		orr	r3, r3, #268435456
 887              	.LVL80:
1395:/opt/XMClib/XMC_Peripheral_Library_v2.1.16/XMCLib/src/xmc_usbd.c **** 		}
 888              		.loc 1 1395 0
 889 0082 0B60     		str	r3, [r1]
 890              	.L85:
1397:/opt/XMClib/XMC_Peripheral_Library_v2.1.16/XMCLib/src/xmc_usbd.c **** 	}
 891              		.loc 1 1397 0
 892 0084 0C4B     		ldr	r3, .L88
 893              	.LVL81:
 894 0086 3421     		movs	r1, #52
 895 0088 01FB0232 		mla	r2, r1, r2, r3
 896              	.LVL82:
 897 008c 1379     		ldrb	r3, [r2, #4]	@ zero_extendqisi2
 898 008e 6FF34513 		bfc	r3, #5, #1
 899 0092 1371     		strb	r3, [r2, #4]
 900 0094 D1E7     		b	.L83
 901              	.LVL83:
 902              	.L87:
1385:/opt/XMClib/XMC_Peripheral_Library_v2.1.16/XMCLib/src/xmc_usbd.c **** 			data.b.stall = 0U;
 903              		.loc 1 1385 0
 904 0096 0849     		ldr	r1, .L88
 905              	.LVL84:
 906 0098 3423     		movs	r3, #52
 907 009a 03FB02F3 		mul	r3, r3, r2
 908 009e CB5C     		ldrb	r3, [r1, r3]	@ zero_extendqisi2
 909 00a0 03F00F03 		and	r3, r3, #15
 910 00a4 6A33     		adds	r3, r3, #106
 911 00a6 51F82310 		ldr	r1, [r1, r3, lsl #2]
 912 00aa 0B68     		ldr	r3, [r1]
1386:/opt/XMClib/XMC_Peripheral_Library_v2.1.16/XMCLib/src/xmc_usbd.c **** 			data.b.setd0pid = 1U; /* reset pid to 0 */
 913              		.loc 1 1386 0
 914 00ac 23F08153 		bic	r3, r3, #270532608
 915              	.LVL85:
1387:/opt/XMClib/XMC_Peripheral_Library_v2.1.16/XMCLib/src/xmc_usbd.c **** 			xmc_device.endpoint_in_register[ep->address_u.address_st.number]->diepctl = data.d32;
 916              		.loc 1 1387 0
 917 00b0 43F08053 		orr	r3, r3, #268435456
 918              	.LVL86:
1388:/opt/XMClib/XMC_Peripheral_Library_v2.1.16/XMCLib/src/xmc_usbd.c **** 		}
 919              		.loc 1 1388 0
 920 00b4 0B60     		str	r3, [r1]
 921 00b6 E5E7     		b	.L85
 922              	.L89:
 923              		.align	2
 924              	.L88:
 925 00b8 00000000 		.word	xmc_device
 926              		.cfi_endproc
 927              	.LFE196:
 929              		.section	.text.XMC_USBD_EndpointAbort,"ax",%progbits
 930              		.align	1
 931              		.global	XMC_USBD_EndpointAbort
 932              		.syntax unified
 933              		.thumb
 934              		.thumb_func
 935              		.fpu fpv4-sp-d16
 937              	XMC_USBD_EndpointAbort:
 938              	.LFB197:
1401:/opt/XMClib/XMC_Peripheral_Library_v2.1.16/XMCLib/src/xmc_usbd.c **** 
1402:/opt/XMClib/XMC_Peripheral_Library_v2.1.16/XMCLib/src/xmc_usbd.c **** /**
1403:/opt/XMClib/XMC_Peripheral_Library_v2.1.16/XMCLib/src/xmc_usbd.c ****  * Aborts the data transfer on the selected endpoint
1404:/opt/XMClib/XMC_Peripheral_Library_v2.1.16/XMCLib/src/xmc_usbd.c ****  **/
1405:/opt/XMClib/XMC_Peripheral_Library_v2.1.16/XMCLib/src/xmc_usbd.c **** XMC_USBD_STATUS_t XMC_USBD_EndpointAbort(const uint8_t ep_addr) {
 939              		.loc 1 1405 0
 940              		.cfi_startproc
 941              		@ args = 0, pretend = 0, frame = 0
 942              		@ frame_needed = 0, uses_anonymous_args = 0
 943              		@ link register save eliminated.
 944              	.LVL87:
1406:/opt/XMClib/XMC_Peripheral_Library_v2.1.16/XMCLib/src/xmc_usbd.c ****   XMC_USBD_EP_t *ep = &xmc_device.ep[ep_addr & (uint8_t)XMC_USBD_ENDPOINT_NUMBER_MASK];
 945              		.loc 1 1406 0
 946 0000 00F00F00 		and	r0, r0, #15
 947              	.LVL88:
1407:/opt/XMClib/XMC_Peripheral_Library_v2.1.16/XMCLib/src/xmc_usbd.c ****   if (ep->address_u.address_st.direction)
 948              		.loc 1 1407 0
 949 0004 3423     		movs	r3, #52
 950 0006 03FB00F3 		mul	r3, r3, r0
 951 000a 114A     		ldr	r2, .L95
 952 000c D356     		ldrsb	r3, [r2, r3]
 953 000e 002B     		cmp	r3, #0
 954 0010 16DB     		blt	.L94
1408:/opt/XMClib/XMC_Peripheral_Library_v2.1.16/XMCLib/src/xmc_usbd.c ****   {
1409:/opt/XMClib/XMC_Peripheral_Library_v2.1.16/XMCLib/src/xmc_usbd.c ****     ep->inInUse = 0U;
1410:/opt/XMClib/XMC_Peripheral_Library_v2.1.16/XMCLib/src/xmc_usbd.c ****   }
1411:/opt/XMClib/XMC_Peripheral_Library_v2.1.16/XMCLib/src/xmc_usbd.c ****   if (!ep->address_u.address_st.direction)
1412:/opt/XMClib/XMC_Peripheral_Library_v2.1.16/XMCLib/src/xmc_usbd.c ****   {
1413:/opt/XMClib/XMC_Peripheral_Library_v2.1.16/XMCLib/src/xmc_usbd.c ****     ep->outInUse = 0U;
 955              		.loc 1 1413 0
 956 0012 0F4A     		ldr	r2, .L95
 957 0014 3423     		movs	r3, #52
 958 0016 03FB0023 		mla	r3, r3, r0, r2
 959              	.LVL89:
 960 001a 5A68     		ldr	r2, [r3, #4]
 961 001c 6FF30412 		bfc	r2, #4, #1
 962 0020 5A60     		str	r2, [r3, #4]
 963              	.LVL90:
 964              	.L92:
1414:/opt/XMClib/XMC_Peripheral_Library_v2.1.16/XMCLib/src/xmc_usbd.c ****   }
1415:/opt/XMClib/XMC_Peripheral_Library_v2.1.16/XMCLib/src/xmc_usbd.c ****   ep->isStalled = 0U;
 965              		.loc 1 1415 0
 966 0022 0B4A     		ldr	r2, .L95
 967 0024 3423     		movs	r3, #52
 968 0026 03FB0023 		mla	r3, r3, r0, r2
 969 002a 1A79     		ldrb	r2, [r3, #4]	@ zero_extendqisi2
 970 002c 6FF34512 		bfc	r2, #5, #1
 971 0030 1A71     		strb	r2, [r3, #4]
1416:/opt/XMClib/XMC_Peripheral_Library_v2.1.16/XMCLib/src/xmc_usbd.c ****   ep->outBytesAvailable = 0U;
 972              		.loc 1 1416 0
 973 0032 0020     		movs	r0, #0
 974              	.LVL91:
 975 0034 1861     		str	r0, [r3, #16]
1417:/opt/XMClib/XMC_Peripheral_Library_v2.1.16/XMCLib/src/xmc_usbd.c ****   ep->outOffset = 0U;
 976              		.loc 1 1417 0
 977 0036 9861     		str	r0, [r3, #24]
1418:/opt/XMClib/XMC_Peripheral_Library_v2.1.16/XMCLib/src/xmc_usbd.c ****   ep->xferLength = 0U;
 978              		.loc 1 1418 0
 979 0038 9862     		str	r0, [r3, #40]
1419:/opt/XMClib/XMC_Peripheral_Library_v2.1.16/XMCLib/src/xmc_usbd.c ****   ep->xferCount = 0U;
 980              		.loc 1 1419 0
 981 003a D862     		str	r0, [r3, #44]
1420:/opt/XMClib/XMC_Peripheral_Library_v2.1.16/XMCLib/src/xmc_usbd.c ****   ep->xferTotal = 0U;
 982              		.loc 1 1420 0
 983 003c 1863     		str	r0, [r3, #48]
1421:/opt/XMClib/XMC_Peripheral_Library_v2.1.16/XMCLib/src/xmc_usbd.c **** 
1422:/opt/XMClib/XMC_Peripheral_Library_v2.1.16/XMCLib/src/xmc_usbd.c ****   return XMC_USBD_STATUS_OK;
1423:/opt/XMClib/XMC_Peripheral_Library_v2.1.16/XMCLib/src/xmc_usbd.c **** }
 984              		.loc 1 1423 0
 985 003e 7047     		bx	lr
 986              	.LVL92:
 987              	.L94:
1409:/opt/XMClib/XMC_Peripheral_Library_v2.1.16/XMCLib/src/xmc_usbd.c ****   }
 988              		.loc 1 1409 0
 989 0040 3423     		movs	r3, #52
 990 0042 03FB0023 		mla	r3, r3, r0, r2
 991 0046 5A68     		ldr	r2, [r3, #4]
 992 0048 6FF3C302 		bfc	r2, #3, #1
 993 004c 5A60     		str	r2, [r3, #4]
 994 004e E8E7     		b	.L92
 995              	.L96:
 996              		.align	2
 997              	.L95:
 998 0050 00000000 		.word	xmc_device
 999              		.cfi_endproc
 1000              	.LFE197:
 1002              		.section	.text.XMC_USBD_EndpointUnconfigure,"ax",%progbits
 1003              		.align	1
 1004              		.global	XMC_USBD_EndpointUnconfigure
 1005              		.syntax unified
 1006              		.thumb
 1007              		.thumb_func
 1008              		.fpu fpv4-sp-d16
 1010              	XMC_USBD_EndpointUnconfigure:
 1011              	.LFB199:
1424:/opt/XMClib/XMC_Peripheral_Library_v2.1.16/XMCLib/src/xmc_usbd.c **** 
1425:/opt/XMClib/XMC_Peripheral_Library_v2.1.16/XMCLib/src/xmc_usbd.c **** /**
1426:/opt/XMClib/XMC_Peripheral_Library_v2.1.16/XMCLib/src/xmc_usbd.c ****  * Configures the given endpoint
1427:/opt/XMClib/XMC_Peripheral_Library_v2.1.16/XMCLib/src/xmc_usbd.c ****  **/
1428:/opt/XMClib/XMC_Peripheral_Library_v2.1.16/XMCLib/src/xmc_usbd.c **** XMC_USBD_STATUS_t XMC_USBD_EndpointConfigure(const uint8_t ep_addr,
1429:/opt/XMClib/XMC_Peripheral_Library_v2.1.16/XMCLib/src/xmc_usbd.c **** 		                                     const XMC_USBD_ENDPOINT_TYPE_t ep_type,
1430:/opt/XMClib/XMC_Peripheral_Library_v2.1.16/XMCLib/src/xmc_usbd.c **** 		                                     const uint16_t ep_max_packet_size) 
1431:/opt/XMClib/XMC_Peripheral_Library_v2.1.16/XMCLib/src/xmc_usbd.c **** {
1432:/opt/XMClib/XMC_Peripheral_Library_v2.1.16/XMCLib/src/xmc_usbd.c ****   daint_data_t daintmsk;
1433:/opt/XMClib/XMC_Peripheral_Library_v2.1.16/XMCLib/src/xmc_usbd.c ****   XMC_USBD_EP_t *ep;
1434:/opt/XMClib/XMC_Peripheral_Library_v2.1.16/XMCLib/src/xmc_usbd.c ****   daintmsk.d32 = xmc_device.device_register->daintmsk;  
1435:/opt/XMClib/XMC_Peripheral_Library_v2.1.16/XMCLib/src/xmc_usbd.c ****   ep =&xmc_device.ep[ep_addr & (uint32_t)XMC_USBD_ENDPOINT_NUMBER_MASK];
1436:/opt/XMClib/XMC_Peripheral_Library_v2.1.16/XMCLib/src/xmc_usbd.c ****   memset((void*)ep,0x0U,sizeof(XMC_USBD_EP_t)); /* clear endpoint structure */
1437:/opt/XMClib/XMC_Peripheral_Library_v2.1.16/XMCLib/src/xmc_usbd.c ****   /* do ep configuration */
1438:/opt/XMClib/XMC_Peripheral_Library_v2.1.16/XMCLib/src/xmc_usbd.c ****   ep->address_u.address = ep_addr;
1439:/opt/XMClib/XMC_Peripheral_Library_v2.1.16/XMCLib/src/xmc_usbd.c ****   ep->isConfigured = 1U;
1440:/opt/XMClib/XMC_Peripheral_Library_v2.1.16/XMCLib/src/xmc_usbd.c ****   ep->maxPacketSize = (uint8_t)ep_max_packet_size;
1441:/opt/XMClib/XMC_Peripheral_Library_v2.1.16/XMCLib/src/xmc_usbd.c ****   if (ep->address_u.address != 0U)
1442:/opt/XMClib/XMC_Peripheral_Library_v2.1.16/XMCLib/src/xmc_usbd.c ****   {
1443:/opt/XMClib/XMC_Peripheral_Library_v2.1.16/XMCLib/src/xmc_usbd.c ****     ep->maxTransferSize = (uint32_t)XMC_USBD_MAX_TRANSFER_SIZE;
1444:/opt/XMClib/XMC_Peripheral_Library_v2.1.16/XMCLib/src/xmc_usbd.c ****   }
1445:/opt/XMClib/XMC_Peripheral_Library_v2.1.16/XMCLib/src/xmc_usbd.c ****   else
1446:/opt/XMClib/XMC_Peripheral_Library_v2.1.16/XMCLib/src/xmc_usbd.c ****   {
1447:/opt/XMClib/XMC_Peripheral_Library_v2.1.16/XMCLib/src/xmc_usbd.c ****     ep->maxTransferSize = (uint32_t)XMC_USBD_MAX_TRANSFER_SIZE_EP0;
1448:/opt/XMClib/XMC_Peripheral_Library_v2.1.16/XMCLib/src/xmc_usbd.c ****   }
1449:/opt/XMClib/XMC_Peripheral_Library_v2.1.16/XMCLib/src/xmc_usbd.c ****   /* transfer buffer */
1450:/opt/XMClib/XMC_Peripheral_Library_v2.1.16/XMCLib/src/xmc_usbd.c ****   ep->inBuffer = XMC_USBD_EP_IN_BUFFER[ep->address_u.address_st.number];
1451:/opt/XMClib/XMC_Peripheral_Library_v2.1.16/XMCLib/src/xmc_usbd.c ****   ep->outBuffer = XMC_USBD_EP_OUT_BUFFER[ep->address_u.address_st.number];
1452:/opt/XMClib/XMC_Peripheral_Library_v2.1.16/XMCLib/src/xmc_usbd.c ****   /* buffer size*/
1453:/opt/XMClib/XMC_Peripheral_Library_v2.1.16/XMCLib/src/xmc_usbd.c ****   ep->inBufferSize = XMC_USBD_EP_IN_BUFFERSIZE[ep->address_u.address_st.number];
1454:/opt/XMClib/XMC_Peripheral_Library_v2.1.16/XMCLib/src/xmc_usbd.c ****   ep->outBufferSize = XMC_USBD_EP_OUT_BUFFERSIZE[ep->address_u.address_st.number];
1455:/opt/XMClib/XMC_Peripheral_Library_v2.1.16/XMCLib/src/xmc_usbd.c ****   /* is in */
1456:/opt/XMClib/XMC_Peripheral_Library_v2.1.16/XMCLib/src/xmc_usbd.c ****   if ((ep->address_u.address_st.direction == 1U) || (ep_type == XMC_USBD_ENDPOINT_TYPE_CONTROL))
1457:/opt/XMClib/XMC_Peripheral_Library_v2.1.16/XMCLib/src/xmc_usbd.c ****   {
1458:/opt/XMClib/XMC_Peripheral_Library_v2.1.16/XMCLib/src/xmc_usbd.c ****     depctl_data_t data;
1459:/opt/XMClib/XMC_Peripheral_Library_v2.1.16/XMCLib/src/xmc_usbd.c ****     data.d32 = xmc_device.endpoint_in_register[ep->address_u.address_st.number]->diepctl;
1460:/opt/XMClib/XMC_Peripheral_Library_v2.1.16/XMCLib/src/xmc_usbd.c **** 		/*enable endpoint */
1461:/opt/XMClib/XMC_Peripheral_Library_v2.1.16/XMCLib/src/xmc_usbd.c **** 		data.b.usbactep = 1U;
1462:/opt/XMClib/XMC_Peripheral_Library_v2.1.16/XMCLib/src/xmc_usbd.c **** 		/* set ep type */
1463:/opt/XMClib/XMC_Peripheral_Library_v2.1.16/XMCLib/src/xmc_usbd.c **** 		data.b.eptype = (uint8_t)ep_type;
1464:/opt/XMClib/XMC_Peripheral_Library_v2.1.16/XMCLib/src/xmc_usbd.c **** 		/* set mps */
1465:/opt/XMClib/XMC_Peripheral_Library_v2.1.16/XMCLib/src/xmc_usbd.c ****     if (ep_type == XMC_USBD_ENDPOINT_TYPE_CONTROL)
1466:/opt/XMClib/XMC_Peripheral_Library_v2.1.16/XMCLib/src/xmc_usbd.c ****     {
1467:/opt/XMClib/XMC_Peripheral_Library_v2.1.16/XMCLib/src/xmc_usbd.c **** 			switch(ep_max_packet_size)
1468:/opt/XMClib/XMC_Peripheral_Library_v2.1.16/XMCLib/src/xmc_usbd.c **** 			{
1469:/opt/XMClib/XMC_Peripheral_Library_v2.1.16/XMCLib/src/xmc_usbd.c **** 				case (64U):
1470:/opt/XMClib/XMC_Peripheral_Library_v2.1.16/XMCLib/src/xmc_usbd.c **** 				data.b.mps = 0x0U;
1471:/opt/XMClib/XMC_Peripheral_Library_v2.1.16/XMCLib/src/xmc_usbd.c **** 				break;
1472:/opt/XMClib/XMC_Peripheral_Library_v2.1.16/XMCLib/src/xmc_usbd.c **** 				case (32U):
1473:/opt/XMClib/XMC_Peripheral_Library_v2.1.16/XMCLib/src/xmc_usbd.c **** 				data.b.mps = 0x1U;
1474:/opt/XMClib/XMC_Peripheral_Library_v2.1.16/XMCLib/src/xmc_usbd.c **** 				break;
1475:/opt/XMClib/XMC_Peripheral_Library_v2.1.16/XMCLib/src/xmc_usbd.c **** 				case (16U):
1476:/opt/XMClib/XMC_Peripheral_Library_v2.1.16/XMCLib/src/xmc_usbd.c **** 				data.b.mps = 0x2U;
1477:/opt/XMClib/XMC_Peripheral_Library_v2.1.16/XMCLib/src/xmc_usbd.c **** 				break;
1478:/opt/XMClib/XMC_Peripheral_Library_v2.1.16/XMCLib/src/xmc_usbd.c **** 				case (8U):
1479:/opt/XMClib/XMC_Peripheral_Library_v2.1.16/XMCLib/src/xmc_usbd.c **** 				data.b.mps = 0x3U;
1480:/opt/XMClib/XMC_Peripheral_Library_v2.1.16/XMCLib/src/xmc_usbd.c **** 				break;
1481:/opt/XMClib/XMC_Peripheral_Library_v2.1.16/XMCLib/src/xmc_usbd.c **** 				default:
1482:/opt/XMClib/XMC_Peripheral_Library_v2.1.16/XMCLib/src/xmc_usbd.c **** 				break;
1483:/opt/XMClib/XMC_Peripheral_Library_v2.1.16/XMCLib/src/xmc_usbd.c **** 			}
1484:/opt/XMClib/XMC_Peripheral_Library_v2.1.16/XMCLib/src/xmc_usbd.c **** 		}
1485:/opt/XMClib/XMC_Peripheral_Library_v2.1.16/XMCLib/src/xmc_usbd.c **** 		else
1486:/opt/XMClib/XMC_Peripheral_Library_v2.1.16/XMCLib/src/xmc_usbd.c **** 		{
1487:/opt/XMClib/XMC_Peripheral_Library_v2.1.16/XMCLib/src/xmc_usbd.c **** 			data.b.mps = ep_max_packet_size;
1488:/opt/XMClib/XMC_Peripheral_Library_v2.1.16/XMCLib/src/xmc_usbd.c **** 		}
1489:/opt/XMClib/XMC_Peripheral_Library_v2.1.16/XMCLib/src/xmc_usbd.c **** 		/* set first data0 pid */
1490:/opt/XMClib/XMC_Peripheral_Library_v2.1.16/XMCLib/src/xmc_usbd.c **** 		data.b.setd0pid = 1U;
1491:/opt/XMClib/XMC_Peripheral_Library_v2.1.16/XMCLib/src/xmc_usbd.c **** 		/* clear stall */
1492:/opt/XMClib/XMC_Peripheral_Library_v2.1.16/XMCLib/src/xmc_usbd.c **** 		data.b.stall = 0U;
1493:/opt/XMClib/XMC_Peripheral_Library_v2.1.16/XMCLib/src/xmc_usbd.c **** 		/* set tx fifo */
1494:/opt/XMClib/XMC_Peripheral_Library_v2.1.16/XMCLib/src/xmc_usbd.c **** 		ep->txFifoNum = XMC_USBD_lAssignTXFifo(); /* get tx fifo */
1495:/opt/XMClib/XMC_Peripheral_Library_v2.1.16/XMCLib/src/xmc_usbd.c **** 		data.b.txfnum = ep->txFifoNum;
1496:/opt/XMClib/XMC_Peripheral_Library_v2.1.16/XMCLib/src/xmc_usbd.c **** 		xmc_device.endpoint_in_register[ep->address_u.address_st.number]->diepctl = data.d32; /* configur
1497:/opt/XMClib/XMC_Peripheral_Library_v2.1.16/XMCLib/src/xmc_usbd.c **** 		daintmsk.ep.in |= (uint16_t)((uint16_t)1U << (uint8_t)ep->address_u.address_st.number); /* enable
1498:/opt/XMClib/XMC_Peripheral_Library_v2.1.16/XMCLib/src/xmc_usbd.c ****   }
1499:/opt/XMClib/XMC_Peripheral_Library_v2.1.16/XMCLib/src/xmc_usbd.c ****   if ((ep->address_u.address_st.direction == 0U) || (ep_type == XMC_USBD_ENDPOINT_TYPE_CONTROL))
1500:/opt/XMClib/XMC_Peripheral_Library_v2.1.16/XMCLib/src/xmc_usbd.c ****   {
1501:/opt/XMClib/XMC_Peripheral_Library_v2.1.16/XMCLib/src/xmc_usbd.c ****     /* is out */
1502:/opt/XMClib/XMC_Peripheral_Library_v2.1.16/XMCLib/src/xmc_usbd.c **** 		depctl_data_t data;
1503:/opt/XMClib/XMC_Peripheral_Library_v2.1.16/XMCLib/src/xmc_usbd.c **** 		data.d32 = xmc_device.endpoint_out_register[ep->address_u.address_st.number]->doepctl;
1504:/opt/XMClib/XMC_Peripheral_Library_v2.1.16/XMCLib/src/xmc_usbd.c **** 		/*enable endpoint */
1505:/opt/XMClib/XMC_Peripheral_Library_v2.1.16/XMCLib/src/xmc_usbd.c **** 		data.b.usbactep = 1U;
1506:/opt/XMClib/XMC_Peripheral_Library_v2.1.16/XMCLib/src/xmc_usbd.c **** 		/* set ep type */
1507:/opt/XMClib/XMC_Peripheral_Library_v2.1.16/XMCLib/src/xmc_usbd.c **** 		data.b.eptype = (uint8_t)ep_type;
1508:/opt/XMClib/XMC_Peripheral_Library_v2.1.16/XMCLib/src/xmc_usbd.c ****     /* set mps */
1509:/opt/XMClib/XMC_Peripheral_Library_v2.1.16/XMCLib/src/xmc_usbd.c ****     if (ep_type == XMC_USBD_ENDPOINT_TYPE_CONTROL)
1510:/opt/XMClib/XMC_Peripheral_Library_v2.1.16/XMCLib/src/xmc_usbd.c **** 		{
1511:/opt/XMClib/XMC_Peripheral_Library_v2.1.16/XMCLib/src/xmc_usbd.c **** 			switch(ep_max_packet_size)
1512:/opt/XMClib/XMC_Peripheral_Library_v2.1.16/XMCLib/src/xmc_usbd.c **** 			{
1513:/opt/XMClib/XMC_Peripheral_Library_v2.1.16/XMCLib/src/xmc_usbd.c **** 				case (64U):
1514:/opt/XMClib/XMC_Peripheral_Library_v2.1.16/XMCLib/src/xmc_usbd.c **** 					data.b.mps = 0x0U;
1515:/opt/XMClib/XMC_Peripheral_Library_v2.1.16/XMCLib/src/xmc_usbd.c **** 					break;
1516:/opt/XMClib/XMC_Peripheral_Library_v2.1.16/XMCLib/src/xmc_usbd.c **** 				case (32U):
1517:/opt/XMClib/XMC_Peripheral_Library_v2.1.16/XMCLib/src/xmc_usbd.c **** 					data.b.mps = 0x1U;
1518:/opt/XMClib/XMC_Peripheral_Library_v2.1.16/XMCLib/src/xmc_usbd.c **** 					break;
1519:/opt/XMClib/XMC_Peripheral_Library_v2.1.16/XMCLib/src/xmc_usbd.c **** 				case (16U):
1520:/opt/XMClib/XMC_Peripheral_Library_v2.1.16/XMCLib/src/xmc_usbd.c **** 					data.b.mps = 0x2U;
1521:/opt/XMClib/XMC_Peripheral_Library_v2.1.16/XMCLib/src/xmc_usbd.c **** 					break;
1522:/opt/XMClib/XMC_Peripheral_Library_v2.1.16/XMCLib/src/xmc_usbd.c **** 				case (8U):
1523:/opt/XMClib/XMC_Peripheral_Library_v2.1.16/XMCLib/src/xmc_usbd.c **** 					data.b.mps = 0x3U;
1524:/opt/XMClib/XMC_Peripheral_Library_v2.1.16/XMCLib/src/xmc_usbd.c **** 					break;
1525:/opt/XMClib/XMC_Peripheral_Library_v2.1.16/XMCLib/src/xmc_usbd.c **** 				default:
1526:/opt/XMClib/XMC_Peripheral_Library_v2.1.16/XMCLib/src/xmc_usbd.c **** 					break;
1527:/opt/XMClib/XMC_Peripheral_Library_v2.1.16/XMCLib/src/xmc_usbd.c **** 			}
1528:/opt/XMClib/XMC_Peripheral_Library_v2.1.16/XMCLib/src/xmc_usbd.c **** 		}
1529:/opt/XMClib/XMC_Peripheral_Library_v2.1.16/XMCLib/src/xmc_usbd.c **** 		else
1530:/opt/XMClib/XMC_Peripheral_Library_v2.1.16/XMCLib/src/xmc_usbd.c **** 		{
1531:/opt/XMClib/XMC_Peripheral_Library_v2.1.16/XMCLib/src/xmc_usbd.c **** 			data.b.mps = ep_max_packet_size;
1532:/opt/XMClib/XMC_Peripheral_Library_v2.1.16/XMCLib/src/xmc_usbd.c **** 		}
1533:/opt/XMClib/XMC_Peripheral_Library_v2.1.16/XMCLib/src/xmc_usbd.c **** 		/* set first data0 pid */
1534:/opt/XMClib/XMC_Peripheral_Library_v2.1.16/XMCLib/src/xmc_usbd.c **** 		data.b.setd0pid = 1U;
1535:/opt/XMClib/XMC_Peripheral_Library_v2.1.16/XMCLib/src/xmc_usbd.c **** 		/* clear stall */
1536:/opt/XMClib/XMC_Peripheral_Library_v2.1.16/XMCLib/src/xmc_usbd.c **** 		data.b.stall =(uint8_t) 0U;
1537:/opt/XMClib/XMC_Peripheral_Library_v2.1.16/XMCLib/src/xmc_usbd.c **** 		xmc_device.endpoint_out_register[ep->address_u.address_st.number]->doepctl = data.d32; /* configu
1538:/opt/XMClib/XMC_Peripheral_Library_v2.1.16/XMCLib/src/xmc_usbd.c **** 		daintmsk.ep.out |=(uint16_t) ((uint16_t)1U << (uint8_t)ep->address_u.address_st.number); /* enabl
1539:/opt/XMClib/XMC_Peripheral_Library_v2.1.16/XMCLib/src/xmc_usbd.c ****   }
1540:/opt/XMClib/XMC_Peripheral_Library_v2.1.16/XMCLib/src/xmc_usbd.c ****   xmc_device.device_register->daintmsk = daintmsk.d32;
1541:/opt/XMClib/XMC_Peripheral_Library_v2.1.16/XMCLib/src/xmc_usbd.c ****   return XMC_USBD_STATUS_OK;
1542:/opt/XMClib/XMC_Peripheral_Library_v2.1.16/XMCLib/src/xmc_usbd.c **** }
1543:/opt/XMClib/XMC_Peripheral_Library_v2.1.16/XMCLib/src/xmc_usbd.c **** 
1544:/opt/XMClib/XMC_Peripheral_Library_v2.1.16/XMCLib/src/xmc_usbd.c **** /**
1545:/opt/XMClib/XMC_Peripheral_Library_v2.1.16/XMCLib/src/xmc_usbd.c ****  * Unconfigure the selected endpoint.
1546:/opt/XMClib/XMC_Peripheral_Library_v2.1.16/XMCLib/src/xmc_usbd.c ****  **/
1547:/opt/XMClib/XMC_Peripheral_Library_v2.1.16/XMCLib/src/xmc_usbd.c **** XMC_USBD_STATUS_t XMC_USBD_EndpointUnconfigure(const uint8_t ep_addr) 
1548:/opt/XMClib/XMC_Peripheral_Library_v2.1.16/XMCLib/src/xmc_usbd.c **** {
 1012              		.loc 1 1548 0
 1013              		.cfi_startproc
 1014              		@ args = 0, pretend = 0, frame = 0
 1015              		@ frame_needed = 0, uses_anonymous_args = 0
 1016              	.LVL93:
 1017 0000 F0B5     		push	{r4, r5, r6, r7, lr}
 1018              	.LCFI13:
 1019              		.cfi_def_cfa_offset 20
 1020              		.cfi_offset 4, -20
 1021              		.cfi_offset 5, -16
 1022              		.cfi_offset 6, -12
 1023              		.cfi_offset 7, -8
 1024              		.cfi_offset 14, -4
1549:/opt/XMClib/XMC_Peripheral_Library_v2.1.16/XMCLib/src/xmc_usbd.c ****   XMC_USBD_EP_t *ep = &xmc_device.ep[ep_addr & (uint8_t)XMC_USBD_ENDPOINT_NUMBER_MASK];
 1025              		.loc 1 1549 0
 1026 0002 00F00F00 		and	r0, r0, #15
 1027              	.LVL94:
1550:/opt/XMClib/XMC_Peripheral_Library_v2.1.16/XMCLib/src/xmc_usbd.c ****   depctl_data_t data;
1551:/opt/XMClib/XMC_Peripheral_Library_v2.1.16/XMCLib/src/xmc_usbd.c **** 	daint_data_t daintmsk;
1552:/opt/XMClib/XMC_Peripheral_Library_v2.1.16/XMCLib/src/xmc_usbd.c **** 	XMC_USBD_STATUS_t result;
1553:/opt/XMClib/XMC_Peripheral_Library_v2.1.16/XMCLib/src/xmc_usbd.c **** 	uint32_t number_temp;
1554:/opt/XMClib/XMC_Peripheral_Library_v2.1.16/XMCLib/src/xmc_usbd.c ****   data.d32 = 0U;  
1555:/opt/XMClib/XMC_Peripheral_Library_v2.1.16/XMCLib/src/xmc_usbd.c ****   daintmsk.d32 = xmc_device.device_register->daintmsk;  
 1028              		.loc 1 1555 0
 1029 0006 424C     		ldr	r4, .L105
 1030 0008 D4F8A431 		ldr	r3, [r4, #420]
 1031 000c DB69     		ldr	r3, [r3, #28]
 1032              	.LVL95:
1556:/opt/XMClib/XMC_Peripheral_Library_v2.1.16/XMCLib/src/xmc_usbd.c ****   number_temp = (uint32_t)((uint32_t)1U << (uint8_t)ep->address_u.address_st.number);
1557:/opt/XMClib/XMC_Peripheral_Library_v2.1.16/XMCLib/src/xmc_usbd.c ****   /* if not configured return an error */
1558:/opt/XMClib/XMC_Peripheral_Library_v2.1.16/XMCLib/src/xmc_usbd.c ****   if (!ep->isConfigured)
 1033              		.loc 1 1558 0
 1034 000e 3422     		movs	r2, #52
 1035 0010 02FB0042 		mla	r2, r2, r0, r4
 1036              	.LVL96:
 1037 0014 1279     		ldrb	r2, [r2, #4]	@ zero_extendqisi2
 1038              	.LVL97:
 1039 0016 12F0040F 		tst	r2, #4
 1040 001a 76D0     		beq	.L102
 1041 001c 0021     		movs	r1, #0
 1042              	.LVL98:
 1043 001e 1F46     		mov	r7, r3
 1044              	.LVL99:
1556:/opt/XMClib/XMC_Peripheral_Library_v2.1.16/XMCLib/src/xmc_usbd.c ****   number_temp = (uint32_t)((uint32_t)1U << (uint8_t)ep->address_u.address_st.number);
 1045              		.loc 1 1556 0
 1046 0020 A646     		mov	lr, r4
 1047 0022 3425     		movs	r5, #52
 1048 0024 05FB00F5 		mul	r5, r5, r0
 1049 0028 6219     		adds	r2, r4, r5
 1050              	.LVL100:
 1051 002a 645D     		ldrb	r4, [r4, r5]	@ zero_extendqisi2
 1052 002c 04F00F04 		and	r4, r4, #15
 1053 0030 4FF0010C 		mov	ip, #1
 1054 0034 0CFA04FC 		lsl	ip, ip, r4
1559:/opt/XMClib/XMC_Peripheral_Library_v2.1.16/XMCLib/src/xmc_usbd.c ****   {
1560:/opt/XMClib/XMC_Peripheral_Library_v2.1.16/XMCLib/src/xmc_usbd.c ****      result = XMC_USBD_STATUS_ERROR;
1561:/opt/XMClib/XMC_Peripheral_Library_v2.1.16/XMCLib/src/xmc_usbd.c ****   }
1562:/opt/XMClib/XMC_Peripheral_Library_v2.1.16/XMCLib/src/xmc_usbd.c ****   else
1563:/opt/XMClib/XMC_Peripheral_Library_v2.1.16/XMCLib/src/xmc_usbd.c ****   {
1564:/opt/XMClib/XMC_Peripheral_Library_v2.1.16/XMCLib/src/xmc_usbd.c ****     /* disable the endpoint, deactivate it and only send naks */
1565:/opt/XMClib/XMC_Peripheral_Library_v2.1.16/XMCLib/src/xmc_usbd.c ****     data.b.usbactep = 0U;
 1055              		.loc 1 1565 0
 1056 0038 6FF3CF31 		bfc	r1, #15, #1
 1057              	.LVL101:
1566:/opt/XMClib/XMC_Peripheral_Library_v2.1.16/XMCLib/src/xmc_usbd.c ****     data.b.epdis =  1U;
1567:/opt/XMClib/XMC_Peripheral_Library_v2.1.16/XMCLib/src/xmc_usbd.c ****     data.b.snak =  1U;
 1058              		.loc 1 1567 0
 1059 003c 41F09041 		orr	r1, r1, #1207959552
 1060              	.LVL102:
1568:/opt/XMClib/XMC_Peripheral_Library_v2.1.16/XMCLib/src/xmc_usbd.c ****     data.b.stall =  0U;
 1061              		.loc 1 1568 0
 1062 0040 6FF35551 		bfc	r1, #21, #1
 1063              	.LVL103:
1569:/opt/XMClib/XMC_Peripheral_Library_v2.1.16/XMCLib/src/xmc_usbd.c ****     ep->isConfigured =  0U;
 1064              		.loc 1 1569 0
 1065 0044 1679     		ldrb	r6, [r2, #4]	@ zero_extendqisi2
1570:/opt/XMClib/XMC_Peripheral_Library_v2.1.16/XMCLib/src/xmc_usbd.c ****     ep->isStalled =  0U;
 1066              		.loc 1 1570 0
 1067 0046 06F0FB06 		and	r6, r6, #251
 1068 004a 6FF34516 		bfc	r6, #5, #1
 1069 004e 1671     		strb	r6, [r2, #4]
1571:/opt/XMClib/XMC_Peripheral_Library_v2.1.16/XMCLib/src/xmc_usbd.c ****     ep->outInUse =  0U;
 1070              		.loc 1 1571 0
 1071 0050 5668     		ldr	r6, [r2, #4]
 1072 0052 6FF30416 		bfc	r6, #4, #1
 1073 0056 5660     		str	r6, [r2, #4]
1572:/opt/XMClib/XMC_Peripheral_Library_v2.1.16/XMCLib/src/xmc_usbd.c ****     ep->inInUse =  0U;
 1074              		.loc 1 1572 0
 1075 0058 5668     		ldr	r6, [r2, #4]
 1076 005a 6FF3C306 		bfc	r6, #3, #1
 1077 005e 5660     		str	r6, [r2, #4]
1573:/opt/XMClib/XMC_Peripheral_Library_v2.1.16/XMCLib/src/xmc_usbd.c ****     /* chose register based on the direction. Control Endpoint need both */
1574:/opt/XMClib/XMC_Peripheral_Library_v2.1.16/XMCLib/src/xmc_usbd.c ****     if ((ep->address_u.address_st.direction == 1U) || (ep->type == (uint8_t)XMC_USBD_ENDPOINT_TYPE_
 1078              		.loc 1 1574 0
 1079 0060 1EF90520 		ldrsb	r2, [lr, r5]
 1080              	.LVL104:
 1081 0064 002A     		cmp	r2, #0
 1082 0066 06DB     		blt	.L99
 1083              		.loc 1 1574 0 is_stmt 0 discriminator 1
 1084 0068 3422     		movs	r2, #52
 1085 006a 02FB00E2 		mla	r2, r2, r0, lr
 1086              	.LVL105:
 1087 006e 1279     		ldrb	r2, [r2, #4]	@ zero_extendqisi2
 1088              	.LVL106:
 1089 0070 12F0030F 		tst	r2, #3
 1090 0074 15D1     		bne	.L100
 1091              	.L99:
1575:/opt/XMClib/XMC_Peripheral_Library_v2.1.16/XMCLib/src/xmc_usbd.c ****     {
1576:/opt/XMClib/XMC_Peripheral_Library_v2.1.16/XMCLib/src/xmc_usbd.c ****       /* disable endpoint configuration */
1577:/opt/XMClib/XMC_Peripheral_Library_v2.1.16/XMCLib/src/xmc_usbd.c ****       xmc_device.endpoint_in_register[ep->address_u.address_st.number]->diepctl = data.d32;
 1092              		.loc 1 1577 0 is_stmt 1
 1093 0076 264D     		ldr	r5, .L105
 1094 0078 6A34     		adds	r4, r4, #106
 1095 007a 55F82420 		ldr	r2, [r5, r4, lsl #2]
 1096 007e 1160     		str	r1, [r2]
 1097              	.LVL107:
1578:/opt/XMClib/XMC_Peripheral_Library_v2.1.16/XMCLib/src/xmc_usbd.c ****       /* disable interrupts */
1579:/opt/XMClib/XMC_Peripheral_Library_v2.1.16/XMCLib/src/xmc_usbd.c ****       daintmsk.ep.in = (uint16_t)((uint32_t)daintmsk.ep.in & (~(uint32_t)number_temp));
 1098              		.loc 1 1579 0
 1099 0080 23EA0C02 		bic	r2, r3, ip
 1100 0084 62F30F07 		bfi	r7, r2, #0, #16
 1101              	.LVL108:
1580:/opt/XMClib/XMC_Peripheral_Library_v2.1.16/XMCLib/src/xmc_usbd.c ****     }
1581:/opt/XMClib/XMC_Peripheral_Library_v2.1.16/XMCLib/src/xmc_usbd.c ****     if ((ep->address_u.address_st.direction == 0U) || (ep->type == (uint8_t)XMC_USBD_ENDPOINT_TYPE_
 1102              		.loc 1 1581 0
 1103 0088 3422     		movs	r2, #52
 1104 008a 02FB00F2 		mul	r2, r2, r0
 1105 008e AA56     		ldrsb	r2, [r5, r2]
 1106 0090 002A     		cmp	r2, #0
 1107 0092 06DA     		bge	.L100
 1108              		.loc 1 1581 0 is_stmt 0 discriminator 1
 1109 0094 3422     		movs	r2, #52
 1110 0096 02FB0052 		mla	r2, r2, r0, r5
 1111 009a 1279     		ldrb	r2, [r2, #4]	@ zero_extendqisi2
 1112 009c 12F0030F 		tst	r2, #3
 1113 00a0 16D1     		bne	.L101
 1114              	.L100:
1582:/opt/XMClib/XMC_Peripheral_Library_v2.1.16/XMCLib/src/xmc_usbd.c ****     {
1583:/opt/XMClib/XMC_Peripheral_Library_v2.1.16/XMCLib/src/xmc_usbd.c ****       xmc_device.endpoint_out_register[ep->address_u.address_st.number]->doepctl = data.d32;
 1115              		.loc 1 1583 0 is_stmt 1
 1116 00a2 1B4A     		ldr	r2, .L105
 1117 00a4 3424     		movs	r4, #52
 1118 00a6 04FB00F4 		mul	r4, r4, r0
 1119 00aa 145D     		ldrb	r4, [r2, r4]	@ zero_extendqisi2
 1120 00ac 04F00F04 		and	r4, r4, #15
 1121 00b0 02EB8402 		add	r2, r2, r4, lsl #2
 1122 00b4 D2F8C421 		ldr	r2, [r2, #452]
 1123 00b8 1160     		str	r1, [r2]
1584:/opt/XMClib/XMC_Peripheral_Library_v2.1.16/XMCLib/src/xmc_usbd.c ****       daintmsk.ep.out = (uint16_t)((uint32_t)daintmsk.ep.out & (~(uint32_t)number_temp));
 1124              		.loc 1 1584 0
 1125 00ba C3F30F43 		ubfx	r3, r3, #16, #16
 1126 00be 23EA0C03 		bic	r3, r3, ip
 1127 00c2 63F31F47 		bfi	r7, r3, #16, #16
1585:/opt/XMClib/XMC_Peripheral_Library_v2.1.16/XMCLib/src/xmc_usbd.c ****       if(usbd_init->usbd_transfer_mode == XMC_USBD_USE_FIFO)
 1128              		.loc 1 1585 0
 1129 00c6 134B     		ldr	r3, .L105+4
 1130 00c8 1B68     		ldr	r3, [r3]
 1131 00ca 5B7B     		ldrb	r3, [r3, #13]	@ zero_extendqisi2
 1132 00cc 012B     		cmp	r3, #1
 1133 00ce 14D0     		beq	.L104
 1134              	.L101:
1586:/opt/XMClib/XMC_Peripheral_Library_v2.1.16/XMCLib/src/xmc_usbd.c ****       {
1587:/opt/XMClib/XMC_Peripheral_Library_v2.1.16/XMCLib/src/xmc_usbd.c ****         xmc_device.device_register->dtknqr4_fifoemptymsk &= ~number_temp;
1588:/opt/XMClib/XMC_Peripheral_Library_v2.1.16/XMCLib/src/xmc_usbd.c ****       }
1589:/opt/XMClib/XMC_Peripheral_Library_v2.1.16/XMCLib/src/xmc_usbd.c ****     }
1590:/opt/XMClib/XMC_Peripheral_Library_v2.1.16/XMCLib/src/xmc_usbd.c ****     xmc_device.device_register->daintmsk = daintmsk.d32;
 1135              		.loc 1 1590 0
 1136 00d0 0F4B     		ldr	r3, .L105
 1137 00d2 D3F8A421 		ldr	r2, [r3, #420]
 1138 00d6 D761     		str	r7, [r2, #28]
 1139              	.LVL109:
1591:/opt/XMClib/XMC_Peripheral_Library_v2.1.16/XMCLib/src/xmc_usbd.c ****     XMC_USBD_lUnassignFifo(ep->txFifoNum); /* free fifo */
 1140              		.loc 1 1591 0
 1141 00d8 3422     		movs	r2, #52
 1142 00da 02FB0030 		mla	r0, r2, r0, r3
 1143              	.LVL110:
 1144 00de 8188     		ldrh	r1, [r0, #4]
 1145              	.LVL111:
 1146              	.LBB5:
 1147              	.LBB6:
 384:/opt/XMClib/XMC_Peripheral_Library_v2.1.16/XMCLib/src/xmc_usbd.c **** }
 1148              		.loc 1 384 0
 1149 00e0 C1F38311 		ubfx	r1, r1, #6, #4
 1150 00e4 0122     		movs	r2, #1
 1151 00e6 02FA01F1 		lsl	r1, r2, r1
 1152 00ea B3F8FC21 		ldrh	r2, [r3, #508]
 1153 00ee 22EA0102 		bic	r2, r2, r1
 1154 00f2 A3F8FC21 		strh	r2, [r3, #508]	@ movhi
 1155              	.LBE6:
 1156              	.LBE5:
1592:/opt/XMClib/XMC_Peripheral_Library_v2.1.16/XMCLib/src/xmc_usbd.c ****     result = XMC_USBD_STATUS_OK;
 1157              		.loc 1 1592 0
 1158 00f6 0020     		movs	r0, #0
 1159              	.L98:
 1160              	.LVL112:
1593:/opt/XMClib/XMC_Peripheral_Library_v2.1.16/XMCLib/src/xmc_usbd.c ****   }
1594:/opt/XMClib/XMC_Peripheral_Library_v2.1.16/XMCLib/src/xmc_usbd.c ****   return result;
1595:/opt/XMClib/XMC_Peripheral_Library_v2.1.16/XMCLib/src/xmc_usbd.c **** }
 1161              		.loc 1 1595 0
 1162 00f8 F0BD     		pop	{r4, r5, r6, r7, pc}
 1163              	.LVL113:
 1164              	.L104:
1587:/opt/XMClib/XMC_Peripheral_Library_v2.1.16/XMCLib/src/xmc_usbd.c ****       }
 1165              		.loc 1 1587 0
 1166 00fa 054B     		ldr	r3, .L105
 1167 00fc D3F8A421 		ldr	r2, [r3, #420]
 1168 0100 536B     		ldr	r3, [r2, #52]
 1169 0102 23EA0C03 		bic	r3, r3, ip
 1170 0106 5363     		str	r3, [r2, #52]
 1171 0108 E2E7     		b	.L101
 1172              	.LVL114:
 1173              	.L102:
1560:/opt/XMClib/XMC_Peripheral_Library_v2.1.16/XMCLib/src/xmc_usbd.c ****   }
 1174              		.loc 1 1560 0
 1175 010a 0120     		movs	r0, #1
 1176              	.LVL115:
 1177 010c F4E7     		b	.L98
 1178              	.L106:
 1179 010e 00BF     		.align	2
 1180              	.L105:
 1181 0110 00000000 		.word	xmc_device
 1182 0114 00000000 		.word	usbd_init
 1183              		.cfi_endproc
 1184              	.LFE199:
 1186              		.section	.text.XMC_USBD_GetFrameNumber,"ax",%progbits
 1187              		.align	1
 1188              		.global	XMC_USBD_GetFrameNumber
 1189              		.syntax unified
 1190              		.thumb
 1191              		.thumb_func
 1192              		.fpu fpv4-sp-d16
 1194              	XMC_USBD_GetFrameNumber:
 1195              	.LFB200:
1596:/opt/XMClib/XMC_Peripheral_Library_v2.1.16/XMCLib/src/xmc_usbd.c **** 
1597:/opt/XMClib/XMC_Peripheral_Library_v2.1.16/XMCLib/src/xmc_usbd.c **** /**
1598:/opt/XMClib/XMC_Peripheral_Library_v2.1.16/XMCLib/src/xmc_usbd.c ****  * Gets the current USB frame number
1599:/opt/XMClib/XMC_Peripheral_Library_v2.1.16/XMCLib/src/xmc_usbd.c ****  **/
1600:/opt/XMClib/XMC_Peripheral_Library_v2.1.16/XMCLib/src/xmc_usbd.c **** uint16_t XMC_USBD_GetFrameNumber(void) 
1601:/opt/XMClib/XMC_Peripheral_Library_v2.1.16/XMCLib/src/xmc_usbd.c **** {
 1196              		.loc 1 1601 0
 1197              		.cfi_startproc
 1198              		@ args = 0, pretend = 0, frame = 0
 1199              		@ frame_needed = 0, uses_anonymous_args = 0
 1200              		@ link register save eliminated.
1602:/opt/XMClib/XMC_Peripheral_Library_v2.1.16/XMCLib/src/xmc_usbd.c ****   uint16_t result;
1603:/opt/XMClib/XMC_Peripheral_Library_v2.1.16/XMCLib/src/xmc_usbd.c ****   dsts_data_t dsts;
1604:/opt/XMClib/XMC_Peripheral_Library_v2.1.16/XMCLib/src/xmc_usbd.c ****   dsts.d32 = xmc_device.device_register->dsts;
 1201              		.loc 1 1604 0
 1202 0000 034B     		ldr	r3, .L108
 1203 0002 D3F8A431 		ldr	r3, [r3, #420]
 1204 0006 9868     		ldr	r0, [r3, #8]
 1205              	.LVL116:
1605:/opt/XMClib/XMC_Peripheral_Library_v2.1.16/XMCLib/src/xmc_usbd.c ****   result = (uint16_t)dsts.b.soffn;
1606:/opt/XMClib/XMC_Peripheral_Library_v2.1.16/XMCLib/src/xmc_usbd.c ****   return result;
1607:/opt/XMClib/XMC_Peripheral_Library_v2.1.16/XMCLib/src/xmc_usbd.c **** }
 1206              		.loc 1 1607 0
 1207 0008 C0F30D20 		ubfx	r0, r0, #8, #14
 1208              	.LVL117:
 1209 000c 7047     		bx	lr
 1210              	.L109:
 1211 000e 00BF     		.align	2
 1212              	.L108:
 1213 0010 00000000 		.word	xmc_device
 1214              		.cfi_endproc
 1215              	.LFE200:
 1217              		.section	.text.XMC_USBD_IsEnumDone,"ax",%progbits
 1218              		.align	1
 1219              		.global	XMC_USBD_IsEnumDone
 1220              		.syntax unified
 1221              		.thumb
 1222              		.thumb_func
 1223              		.fpu fpv4-sp-d16
 1225              	XMC_USBD_IsEnumDone:
 1226              	.LFB201:
1608:/opt/XMClib/XMC_Peripheral_Library_v2.1.16/XMCLib/src/xmc_usbd.c **** 
1609:/opt/XMClib/XMC_Peripheral_Library_v2.1.16/XMCLib/src/xmc_usbd.c **** /**
1610:/opt/XMClib/XMC_Peripheral_Library_v2.1.16/XMCLib/src/xmc_usbd.c ****  * Gets the USB speed enumeration completion status.
1611:/opt/XMClib/XMC_Peripheral_Library_v2.1.16/XMCLib/src/xmc_usbd.c ****  * This should not be used for the actual USB enumeration completion status. For the actual USB enu
1612:/opt/XMClib/XMC_Peripheral_Library_v2.1.16/XMCLib/src/xmc_usbd.c ****  * the application layer should check for the completion of USB standard request Set configuration.
1613:/opt/XMClib/XMC_Peripheral_Library_v2.1.16/XMCLib/src/xmc_usbd.c ****  **/
1614:/opt/XMClib/XMC_Peripheral_Library_v2.1.16/XMCLib/src/xmc_usbd.c **** uint32_t XMC_USBD_IsEnumDone(void)
1615:/opt/XMClib/XMC_Peripheral_Library_v2.1.16/XMCLib/src/xmc_usbd.c **** {
 1227              		.loc 1 1615 0
 1228              		.cfi_startproc
 1229              		@ args = 0, pretend = 0, frame = 0
 1230              		@ frame_needed = 0, uses_anonymous_args = 0
 1231              		@ link register save eliminated.
1616:/opt/XMClib/XMC_Peripheral_Library_v2.1.16/XMCLib/src/xmc_usbd.c ****   return (uint32_t)((uint8_t)xmc_device.IsConnected && (uint8_t)xmc_device.IsPowered);
 1232              		.loc 1 1616 0
 1233 0000 044B     		ldr	r3, .L111
 1234 0002 93F8FE01 		ldrb	r0, [r3, #510]	@ zero_extendqisi2
 1235 0006 00F00500 		and	r0, r0, #5
1617:/opt/XMClib/XMC_Peripheral_Library_v2.1.16/XMCLib/src/xmc_usbd.c **** }
 1236              		.loc 1 1617 0
 1237 000a 0528     		cmp	r0, #5
 1238 000c 14BF     		ite	ne
 1239 000e 0020     		movne	r0, #0
 1240 0010 0120     		moveq	r0, #1
 1241 0012 7047     		bx	lr
 1242              	.L112:
 1243              		.align	2
 1244              	.L111:
 1245 0014 00000000 		.word	xmc_device
 1246              		.cfi_endproc
 1247              	.LFE201:
 1249              		.section	.text.XMC_USBD_Uninitialize,"ax",%progbits
 1250              		.align	1
 1251              		.global	XMC_USBD_Uninitialize
 1252              		.syntax unified
 1253              		.thumb
 1254              		.thumb_func
 1255              		.fpu fpv4-sp-d16
 1257              	XMC_USBD_Uninitialize:
 1258              	.LFB188:
1201:/opt/XMClib/XMC_Peripheral_Library_v2.1.16/XMCLib/src/xmc_usbd.c ****   /* Disconnect the device */
 1259              		.loc 1 1201 0
 1260              		.cfi_startproc
 1261              		@ args = 0, pretend = 0, frame = 0
 1262              		@ frame_needed = 0, uses_anonymous_args = 0
 1263 0000 08B5     		push	{r3, lr}
 1264              	.LCFI14:
 1265              		.cfi_def_cfa_offset 8
 1266              		.cfi_offset 3, -8
 1267              		.cfi_offset 14, -4
1204:/opt/XMClib/XMC_Peripheral_Library_v2.1.16/XMCLib/src/xmc_usbd.c ****   dctl.b.sftdiscon = 1U;
 1268              		.loc 1 1204 0
 1269 0002 0748     		ldr	r0, .L115
 1270 0004 D0F8A421 		ldr	r2, [r0, #420]
 1271 0008 5368     		ldr	r3, [r2, #4]
1205:/opt/XMClib/XMC_Peripheral_Library_v2.1.16/XMCLib/src/xmc_usbd.c ****   xmc_device.device_register->dctl = dctl.d32;
 1272              		.loc 1 1205 0
 1273 000a 43F00203 		orr	r3, r3, #2
 1274              	.LVL118:
1206:/opt/XMClib/XMC_Peripheral_Library_v2.1.16/XMCLib/src/xmc_usbd.c ****   /* clean up */
 1275              		.loc 1 1206 0
 1276 000e 5360     		str	r3, [r2, #4]
1208:/opt/XMClib/XMC_Peripheral_Library_v2.1.16/XMCLib/src/xmc_usbd.c ****   return XMC_USBD_STATUS_OK;
 1277              		.loc 1 1208 0
 1278 0010 4FF40272 		mov	r2, #520
 1279 0014 0021     		movs	r1, #0
 1280 0016 FFF7FEFF 		bl	memset
 1281              	.LVL119:
1210:/opt/XMClib/XMC_Peripheral_Library_v2.1.16/XMCLib/src/xmc_usbd.c **** 
 1282              		.loc 1 1210 0
 1283 001a 0020     		movs	r0, #0
 1284 001c 08BD     		pop	{r3, pc}
 1285              	.L116:
 1286 001e 00BF     		.align	2
 1287              	.L115:
 1288 0020 00000000 		.word	xmc_device
 1289              		.cfi_endproc
 1290              	.LFE188:
 1292              		.section	.text.XMC_USBD_EndpointConfigure,"ax",%progbits
 1293              		.align	1
 1294              		.global	XMC_USBD_EndpointConfigure
 1295              		.syntax unified
 1296              		.thumb
 1297              		.thumb_func
 1298              		.fpu fpv4-sp-d16
 1300              	XMC_USBD_EndpointConfigure:
 1301              	.LFB198:
1431:/opt/XMClib/XMC_Peripheral_Library_v2.1.16/XMCLib/src/xmc_usbd.c ****   daint_data_t daintmsk;
 1302              		.loc 1 1431 0
 1303              		.cfi_startproc
 1304              		@ args = 0, pretend = 0, frame = 8
 1305              		@ frame_needed = 0, uses_anonymous_args = 0
 1306              	.LVL120:
 1307 0000 2DE9F04F 		push	{r4, r5, r6, r7, r8, r9, r10, fp, lr}
 1308              	.LCFI15:
 1309              		.cfi_def_cfa_offset 36
 1310              		.cfi_offset 4, -36
 1311              		.cfi_offset 5, -32
 1312              		.cfi_offset 6, -28
 1313              		.cfi_offset 7, -24
 1314              		.cfi_offset 8, -20
 1315              		.cfi_offset 9, -16
 1316              		.cfi_offset 10, -12
 1317              		.cfi_offset 11, -8
 1318              		.cfi_offset 14, -4
 1319 0004 83B0     		sub	sp, sp, #12
 1320              	.LCFI16:
 1321              		.cfi_def_cfa_offset 48
 1322 0006 0746     		mov	r7, r0
 1323 0008 8946     		mov	r9, r1
 1324 000a 1646     		mov	r6, r2
1434:/opt/XMClib/XMC_Peripheral_Library_v2.1.16/XMCLib/src/xmc_usbd.c ****   ep =&xmc_device.ep[ep_addr & (uint32_t)XMC_USBD_ENDPOINT_NUMBER_MASK];
 1325              		.loc 1 1434 0
 1326 000c DFF87082 		ldr	r8, .L159+8
 1327 0010 D8F8A431 		ldr	r3, [r8, #420]
 1328 0014 DB69     		ldr	r3, [r3, #28]
 1329 0016 0193     		str	r3, [sp, #4]
 1330 0018 9A46     		mov	r10, r3
 1331              	.LVL121:
1435:/opt/XMClib/XMC_Peripheral_Library_v2.1.16/XMCLib/src/xmc_usbd.c ****   memset((void*)ep,0x0U,sizeof(XMC_USBD_EP_t)); /* clear endpoint structure */
 1332              		.loc 1 1435 0
 1333 001a 00F00F05 		and	r5, r0, #15
 1334              	.LVL122:
 1335 001e 3422     		movs	r2, #52
 1336              	.LVL123:
 1337 0020 02FB05FB 		mul	fp, r2, r5
 1338 0024 0BEB0804 		add	r4, fp, r8
 1339              	.LVL124:
1436:/opt/XMClib/XMC_Peripheral_Library_v2.1.16/XMCLib/src/xmc_usbd.c ****   /* do ep configuration */
 1340              		.loc 1 1436 0
 1341 0028 0021     		movs	r1, #0
 1342              	.LVL125:
 1343 002a 2046     		mov	r0, r4
 1344              	.LVL126:
 1345 002c FFF7FEFF 		bl	memset
 1346              	.LVL127:
1438:/opt/XMClib/XMC_Peripheral_Library_v2.1.16/XMCLib/src/xmc_usbd.c ****   ep->isConfigured = 1U;
 1347              		.loc 1 1438 0
 1348 0030 0BF80870 		strb	r7, [fp, r8]
1439:/opt/XMClib/XMC_Peripheral_Library_v2.1.16/XMCLib/src/xmc_usbd.c ****   ep->maxPacketSize = (uint8_t)ep_max_packet_size;
 1349              		.loc 1 1439 0
 1350 0034 2379     		ldrb	r3, [r4, #4]	@ zero_extendqisi2
 1351 0036 43F00403 		orr	r3, r3, #4
 1352 003a 2371     		strb	r3, [r4, #4]
1440:/opt/XMClib/XMC_Peripheral_Library_v2.1.16/XMCLib/src/xmc_usbd.c ****   if (ep->address_u.address != 0U)
 1353              		.loc 1 1440 0
 1354 003c 6368     		ldr	r3, [r4, #4]
 1355 003e 66F3D123 		bfi	r3, r6, #11, #7
 1356 0042 6360     		str	r3, [r4, #4]
1441:/opt/XMClib/XMC_Peripheral_Library_v2.1.16/XMCLib/src/xmc_usbd.c ****   {
 1357              		.loc 1 1441 0
 1358 0044 002F     		cmp	r7, #0
 1359 0046 44D0     		beq	.L118
1443:/opt/XMClib/XMC_Peripheral_Library_v2.1.16/XMCLib/src/xmc_usbd.c ****   }
 1360              		.loc 1 1443 0
 1361 0048 2146     		mov	r1, r4
 1362 004a A468     		ldr	r4, [r4, #8]
 1363              	.LVL128:
 1364 004c 4FF6C07C 		movw	ip, #65472
 1365 0050 6CF31204 		bfi	r4, ip, #0, #19
 1366 0054 8C60     		str	r4, [r1, #8]
1450:/opt/XMClib/XMC_Peripheral_Library_v2.1.16/XMCLib/src/xmc_usbd.c ****   ep->outBuffer = XMC_USBD_EP_OUT_BUFFER[ep->address_u.address_st.number];
 1367              		.loc 1 1450 0
 1368 0056 18F80B30 		ldrb	r3, [r8, fp]	@ zero_extendqisi2
 1369 005a 03F00F03 		and	r3, r3, #15
 1370 005e 1802     		lsls	r0, r3, #8
 1371 0060 854A     		ldr	r2, .L159
 1372 0062 1418     		adds	r4, r2, r0
 1373 0064 CC61     		str	r4, [r1, #28]
1451:/opt/XMClib/XMC_Peripheral_Library_v2.1.16/XMCLib/src/xmc_usbd.c ****   /* buffer size*/
 1374              		.loc 1 1451 0
 1375 0066 02F5E062 		add	r2, r2, #1792
 1376 006a 0244     		add	r2, r2, r0
 1377 006c CA60     		str	r2, [r1, #12]
1453:/opt/XMClib/XMC_Peripheral_Library_v2.1.16/XMCLib/src/xmc_usbd.c ****   ep->outBufferSize = XMC_USBD_EP_OUT_BUFFERSIZE[ep->address_u.address_st.number];
 1378              		.loc 1 1453 0
 1379 006e 834A     		ldr	r2, .L159+4
 1380 0070 52F82300 		ldr	r0, [r2, r3, lsl #2]
 1381 0074 0862     		str	r0, [r1, #32]
1454:/opt/XMClib/XMC_Peripheral_Library_v2.1.16/XMCLib/src/xmc_usbd.c ****   /* is in */
 1382              		.loc 1 1454 0
 1383 0076 02EB8302 		add	r2, r2, r3, lsl #2
 1384 007a D269     		ldr	r2, [r2, #28]
 1385 007c 4A61     		str	r2, [r1, #20]
1456:/opt/XMClib/XMC_Peripheral_Library_v2.1.16/XMCLib/src/xmc_usbd.c ****   {
 1386              		.loc 1 1456 0
 1387 007e 17F0800F 		tst	r7, #128
 1388 0082 43D0     		beq	.L120
 1389              	.LBB11:
1459:/opt/XMClib/XMC_Peripheral_Library_v2.1.16/XMCLib/src/xmc_usbd.c **** 		/*enable endpoint */
 1390              		.loc 1 1459 0
 1391 0084 6A33     		adds	r3, r3, #106
 1392 0086 7E4A     		ldr	r2, .L159+8
 1393 0088 52F82340 		ldr	r4, [r2, r3, lsl #2]
 1394 008c 2068     		ldr	r0, [r4]
 1395              	.LVL129:
1461:/opt/XMClib/XMC_Peripheral_Library_v2.1.16/XMCLib/src/xmc_usbd.c **** 		/* set ep type */
 1396              		.loc 1 1461 0
 1397 008e 40F40040 		orr	r0, r0, #32768
 1398              	.LVL130:
1463:/opt/XMClib/XMC_Peripheral_Library_v2.1.16/XMCLib/src/xmc_usbd.c **** 		/* set mps */
 1399              		.loc 1 1463 0
 1400 0092 69F39340 		bfi	r0, r9, #18, #2
 1401              	.LVL131:
1465:/opt/XMClib/XMC_Peripheral_Library_v2.1.16/XMCLib/src/xmc_usbd.c ****     {
 1402              		.loc 1 1465 0
 1403 0096 B9F1000F 		cmp	r9, #0
 1404 009a 00F0E280 		beq	.L145
1487:/opt/XMClib/XMC_Peripheral_Library_v2.1.16/XMCLib/src/xmc_usbd.c **** 		}
 1405              		.loc 1 1487 0
 1406 009e 66F30A00 		bfi	r0, r6, #0, #11
 1407              	.LVL132:
 1408              	.L124:
1490:/opt/XMClib/XMC_Peripheral_Library_v2.1.16/XMCLib/src/xmc_usbd.c **** 		/* clear stall */
 1409              		.loc 1 1490 0
 1410 00a2 40F08050 		orr	r0, r0, #268435456
 1411              	.LVL133:
1492:/opt/XMClib/XMC_Peripheral_Library_v2.1.16/XMCLib/src/xmc_usbd.c **** 		/* set tx fifo */
 1412              		.loc 1 1492 0
 1413 00a6 6FF35550 		bfc	r0, #21, #1
 1414              	.LVL134:
 1415              	.LBB12:
 1416              	.LBB13:
 363:/opt/XMClib/XMC_Peripheral_Library_v2.1.16/XMCLib/src/xmc_usbd.c ****   {
 1417              		.loc 1 363 0
 1418 00aa 754B     		ldr	r3, .L159+8
 1419 00ac B3F8FC11 		ldrh	r1, [r3, #508]
 1420 00b0 11F0010F 		tst	r1, #1
 1421 00b4 71D0     		beq	.L155
 366:/opt/XMClib/XMC_Peripheral_Library_v2.1.16/XMCLib/src/xmc_usbd.c ****   }
 1422              		.loc 1 366 0
 1423 00b6 0123     		movs	r3, #1
 365:/opt/XMClib/XMC_Peripheral_Library_v2.1.16/XMCLib/src/xmc_usbd.c ****     i++;
 1424              		.loc 1 365 0
 1425 00b8 0222     		movs	r2, #2
 1426              	.LVL135:
 1427              	.L130:
 363:/opt/XMClib/XMC_Peripheral_Library_v2.1.16/XMCLib/src/xmc_usbd.c ****   {
 1428              		.loc 1 363 0
 1429 00ba 1142     		tst	r1, r2
 1430 00bc 6FD0     		beq	.L146
 365:/opt/XMClib/XMC_Peripheral_Library_v2.1.16/XMCLib/src/xmc_usbd.c ****     i++;
 1431              		.loc 1 365 0
 1432 00be 5200     		lsls	r2, r2, #1
 1433              	.LVL136:
 1434 00c0 92B2     		uxth	r2, r2
 1435              	.LVL137:
 366:/opt/XMClib/XMC_Peripheral_Library_v2.1.16/XMCLib/src/xmc_usbd.c ****   }
 1436              		.loc 1 366 0
 1437 00c2 0133     		adds	r3, r3, #1
 1438              	.LVL138:
 1439 00c4 DBB2     		uxtb	r3, r3
 1440              	.LVL139:
 363:/opt/XMClib/XMC_Peripheral_Library_v2.1.16/XMCLib/src/xmc_usbd.c ****   {
 1441              		.loc 1 363 0
 1442 00c6 072B     		cmp	r3, #7
 1443 00c8 F7D1     		bne	.L130
 368:/opt/XMClib/XMC_Peripheral_Library_v2.1.16/XMCLib/src/xmc_usbd.c ****   {
 1444              		.loc 1 368 0
 1445 00ca 1142     		tst	r1, r2
 1446 00cc 67D0     		beq	.L146
 362:/opt/XMClib/XMC_Peripheral_Library_v2.1.16/XMCLib/src/xmc_usbd.c ****   while( (i < (uint8_t)XMC_USBD_NUM_TX_FIFOS)&&((xmc_device.txfifomsk & mask) != 0U))
 1447              		.loc 1 362 0
 1448 00ce 0023     		movs	r3, #0
 1449              	.LVL140:
 1450 00d0 69E0     		b	.L134
 1451              	.LVL141:
 1452              	.L118:
 1453              	.LBE13:
 1454              	.LBE12:
 1455              	.LBE11:
1447:/opt/XMClib/XMC_Peripheral_Library_v2.1.16/XMCLib/src/xmc_usbd.c ****   }
 1456              		.loc 1 1447 0
 1457 00d2 6B4A     		ldr	r2, .L159+8
 1458 00d4 3423     		movs	r3, #52
 1459 00d6 03FB05F3 		mul	r3, r3, r5
 1460 00da D118     		adds	r1, r2, r3
 1461 00dc 8C68     		ldr	r4, [r1, #8]
 1462              	.LVL142:
 1463 00de 4027     		movs	r7, #64
 1464 00e0 67F31204 		bfi	r4, r7, #0, #19
 1465 00e4 8C60     		str	r4, [r1, #8]
1450:/opt/XMClib/XMC_Peripheral_Library_v2.1.16/XMCLib/src/xmc_usbd.c ****   ep->outBuffer = XMC_USBD_EP_OUT_BUFFER[ep->address_u.address_st.number];
 1466              		.loc 1 1450 0
 1467 00e6 D35C     		ldrb	r3, [r2, r3]	@ zero_extendqisi2
 1468 00e8 03F00F03 		and	r3, r3, #15
 1469 00ec 1802     		lsls	r0, r3, #8
 1470 00ee 624A     		ldr	r2, .L159
 1471 00f0 1418     		adds	r4, r2, r0
 1472 00f2 CC61     		str	r4, [r1, #28]
1451:/opt/XMClib/XMC_Peripheral_Library_v2.1.16/XMCLib/src/xmc_usbd.c ****   /* buffer size*/
 1473              		.loc 1 1451 0
 1474 00f4 02F5E062 		add	r2, r2, #1792
 1475 00f8 0244     		add	r2, r2, r0
 1476 00fa CA60     		str	r2, [r1, #12]
1453:/opt/XMClib/XMC_Peripheral_Library_v2.1.16/XMCLib/src/xmc_usbd.c ****   ep->outBufferSize = XMC_USBD_EP_OUT_BUFFERSIZE[ep->address_u.address_st.number];
 1477              		.loc 1 1453 0
 1478 00fc 5F4A     		ldr	r2, .L159+4
 1479 00fe 52F82300 		ldr	r0, [r2, r3, lsl #2]
 1480 0102 0862     		str	r0, [r1, #32]
1454:/opt/XMClib/XMC_Peripheral_Library_v2.1.16/XMCLib/src/xmc_usbd.c ****   /* is in */
 1481              		.loc 1 1454 0
 1482 0104 02EB8302 		add	r2, r2, r3, lsl #2
 1483 0108 D269     		ldr	r2, [r2, #28]
 1484 010a 4A61     		str	r2, [r1, #20]
 1485              	.L120:
1456:/opt/XMClib/XMC_Peripheral_Library_v2.1.16/XMCLib/src/xmc_usbd.c ****   {
 1486              		.loc 1 1456 0 discriminator 1
 1487 010c B9F1000F 		cmp	r9, #0
 1488 0110 00F09E80 		beq	.L121
1499:/opt/XMClib/XMC_Peripheral_Library_v2.1.16/XMCLib/src/xmc_usbd.c ****   {
 1489              		.loc 1 1499 0
 1490 0114 3423     		movs	r3, #52
 1491 0116 03FB05F3 		mul	r3, r3, r5
 1492 011a 594A     		ldr	r2, .L159+8
 1493 011c D356     		ldrsb	r3, [r2, r3]
 1494 011e 002B     		cmp	r3, #0
 1495 0120 24DB     		blt	.L137
 1496              	.LBB16:
1503:/opt/XMClib/XMC_Peripheral_Library_v2.1.16/XMCLib/src/xmc_usbd.c **** 		/*enable endpoint */
 1497              		.loc 1 1503 0
 1498 0122 574B     		ldr	r3, .L159+8
 1499 0124 3422     		movs	r2, #52
 1500 0126 02FB05F2 		mul	r2, r2, r5
 1501 012a 9A5C     		ldrb	r2, [r3, r2]	@ zero_extendqisi2
 1502 012c 02F00F02 		and	r2, r2, #15
 1503 0130 03EB8203 		add	r3, r3, r2, lsl #2
 1504 0134 D3F8C421 		ldr	r2, [r3, #452]
 1505 0138 1368     		ldr	r3, [r2]
 1506              	.LVL143:
1505:/opt/XMClib/XMC_Peripheral_Library_v2.1.16/XMCLib/src/xmc_usbd.c **** 		/* set ep type */
 1507              		.loc 1 1505 0
 1508 013a 43F40043 		orr	r3, r3, #32768
 1509              	.LVL144:
1507:/opt/XMClib/XMC_Peripheral_Library_v2.1.16/XMCLib/src/xmc_usbd.c ****     /* set mps */
 1510              		.loc 1 1507 0
 1511 013e 69F39343 		bfi	r3, r9, #18, #2
 1512              	.LVL145:
 1513              	.L138:
1531:/opt/XMClib/XMC_Peripheral_Library_v2.1.16/XMCLib/src/xmc_usbd.c **** 		}
 1514              		.loc 1 1531 0
 1515 0142 66F30A03 		bfi	r3, r6, #0, #11
 1516              	.L139:
1534:/opt/XMClib/XMC_Peripheral_Library_v2.1.16/XMCLib/src/xmc_usbd.c **** 		/* clear stall */
 1517              		.loc 1 1534 0
 1518 0146 43F08053 		orr	r3, r3, #268435456
 1519              	.LVL146:
1536:/opt/XMClib/XMC_Peripheral_Library_v2.1.16/XMCLib/src/xmc_usbd.c **** 		xmc_device.endpoint_out_register[ep->address_u.address_st.number]->doepctl = data.d32; /* configu
 1520              		.loc 1 1536 0
 1521 014a 6FF35553 		bfc	r3, #21, #1
 1522              	.LVL147:
1537:/opt/XMClib/XMC_Peripheral_Library_v2.1.16/XMCLib/src/xmc_usbd.c **** 		daintmsk.ep.out |=(uint16_t) ((uint16_t)1U << (uint8_t)ep->address_u.address_st.number); /* enabl
 1523              		.loc 1 1537 0
 1524 014e 1360     		str	r3, [r2]
1538:/opt/XMClib/XMC_Peripheral_Library_v2.1.16/XMCLib/src/xmc_usbd.c ****   }
 1525              		.loc 1 1538 0
 1526 0150 3423     		movs	r3, #52
 1527              	.LVL148:
 1528 0152 03FB05F5 		mul	r5, r3, r5
 1529              	.LVL149:
 1530 0156 4A4B     		ldr	r3, .L159+8
 1531 0158 5B5D     		ldrb	r3, [r3, r5]	@ zero_extendqisi2
 1532 015a 03F00F02 		and	r2, r3, #15
 1533 015e 0123     		movs	r3, #1
 1534 0160 9340     		lsls	r3, r3, r2
 1535 0162 019A     		ldr	r2, [sp, #4]
 1536 0164 43EA1243 		orr	r3, r3, r2, lsr #16
 1537 0168 63F31F4A 		bfi	r10, r3, #16, #16
 1538              	.L137:
 1539              	.LBE16:
1540:/opt/XMClib/XMC_Peripheral_Library_v2.1.16/XMCLib/src/xmc_usbd.c ****   return XMC_USBD_STATUS_OK;
 1540              		.loc 1 1540 0
 1541 016c 444B     		ldr	r3, .L159+8
 1542 016e D3F8A431 		ldr	r3, [r3, #420]
 1543 0172 C3F81CA0 		str	r10, [r3, #28]
1542:/opt/XMClib/XMC_Peripheral_Library_v2.1.16/XMCLib/src/xmc_usbd.c **** 
 1544              		.loc 1 1542 0
 1545 0176 0020     		movs	r0, #0
 1546 0178 03B0     		add	sp, sp, #12
 1547              	.LCFI17:
 1548              		.cfi_remember_state
 1549              		.cfi_def_cfa_offset 36
 1550              		@ sp needed
 1551 017a BDE8F08F 		pop	{r4, r5, r6, r7, r8, r9, r10, fp, pc}
 1552              	.LVL150:
 1553              	.L158:
 1554              	.LCFI18:
 1555              		.cfi_restore_state
 1556              	.LBB17:
1467:/opt/XMClib/XMC_Peripheral_Library_v2.1.16/XMCLib/src/xmc_usbd.c **** 			{
 1557              		.loc 1 1467 0
 1558 017e 082E     		cmp	r6, #8
 1559 0180 8FD1     		bne	.L124
1479:/opt/XMClib/XMC_Peripheral_Library_v2.1.16/XMCLib/src/xmc_usbd.c **** 				break;
 1560              		.loc 1 1479 0
 1561 0182 0323     		movs	r3, #3
 1562 0184 63F30A00 		bfi	r0, r3, #0, #11
1480:/opt/XMClib/XMC_Peripheral_Library_v2.1.16/XMCLib/src/xmc_usbd.c **** 				default:
 1563              		.loc 1 1480 0
 1564 0188 8BE7     		b	.L124
 1565              	.L128:
1473:/opt/XMClib/XMC_Peripheral_Library_v2.1.16/XMCLib/src/xmc_usbd.c **** 				break;
 1566              		.loc 1 1473 0
 1567 018a 0123     		movs	r3, #1
 1568 018c 63F30A00 		bfi	r0, r3, #0, #11
1474:/opt/XMClib/XMC_Peripheral_Library_v2.1.16/XMCLib/src/xmc_usbd.c **** 				case (16U):
 1569              		.loc 1 1474 0
 1570 0190 87E7     		b	.L124
 1571              	.L125:
1476:/opt/XMClib/XMC_Peripheral_Library_v2.1.16/XMCLib/src/xmc_usbd.c **** 				break;
 1572              		.loc 1 1476 0
 1573 0192 0223     		movs	r3, #2
 1574 0194 63F30A00 		bfi	r0, r3, #0, #11
1477:/opt/XMClib/XMC_Peripheral_Library_v2.1.16/XMCLib/src/xmc_usbd.c **** 				case (8U):
 1575              		.loc 1 1477 0
 1576 0198 83E7     		b	.L124
 1577              	.LVL151:
 1578              	.L155:
 1579              	.LBB15:
 1580              	.LBB14:
 361:/opt/XMClib/XMC_Peripheral_Library_v2.1.16/XMCLib/src/xmc_usbd.c ****   uint8_t result = 0U;
 1581              		.loc 1 361 0
 1582 019a 0023     		movs	r3, #0
 360:/opt/XMClib/XMC_Peripheral_Library_v2.1.16/XMCLib/src/xmc_usbd.c ****   uint8_t i = 0U;
 1583              		.loc 1 360 0
 1584 019c 0122     		movs	r2, #1
 1585              	.LVL152:
 1586              	.L146:
 370:/opt/XMClib/XMC_Peripheral_Library_v2.1.16/XMCLib/src/xmc_usbd.c ****     result=i;
 1587              		.loc 1 370 0
 1588 019e 0A43     		orrs	r2, r2, r1
 1589 01a0 3749     		ldr	r1, .L159+8
 1590 01a2 A1F8FC21 		strh	r2, [r1, #508]	@ movhi
 1591              	.LVL153:
 1592              	.L134:
 1593              	.LBE14:
 1594              	.LBE15:
1494:/opt/XMClib/XMC_Peripheral_Library_v2.1.16/XMCLib/src/xmc_usbd.c **** 		data.b.txfnum = ep->txFifoNum;
 1595              		.loc 1 1494 0
 1596 01a6 03F00F03 		and	r3, r3, #15
 1597 01aa 354F     		ldr	r7, .L159+8
 1598 01ac 3422     		movs	r2, #52
 1599 01ae 02FB05F2 		mul	r2, r2, r5
 1600 01b2 B918     		adds	r1, r7, r2
 1601 01b4 B1F804C0 		ldrh	ip, [r1, #4]
 1602 01b8 63F3891C 		bfi	ip, r3, #6, #4
 1603 01bc A1F804C0 		strh	ip, [r1, #4]	@ movhi
1495:/opt/XMClib/XMC_Peripheral_Library_v2.1.16/XMCLib/src/xmc_usbd.c **** 		xmc_device.endpoint_in_register[ep->address_u.address_st.number]->diepctl = data.d32; /* configur
 1604              		.loc 1 1495 0
 1605 01c0 63F39950 		bfi	r0, r3, #22, #4
1496:/opt/XMClib/XMC_Peripheral_Library_v2.1.16/XMCLib/src/xmc_usbd.c **** 		daintmsk.ep.in |= (uint16_t)((uint16_t)1U << (uint8_t)ep->address_u.address_st.number); /* enable
 1606              		.loc 1 1496 0
 1607 01c4 2060     		str	r0, [r4]
1497:/opt/XMClib/XMC_Peripheral_Library_v2.1.16/XMCLib/src/xmc_usbd.c ****   }
 1608              		.loc 1 1497 0
 1609 01c6 B95C     		ldrb	r1, [r7, r2]	@ zero_extendqisi2
 1610 01c8 01F00F01 		and	r1, r1, #15
 1611 01cc 0123     		movs	r3, #1
 1612 01ce 8B40     		lsls	r3, r3, r1
 1613 01d0 0198     		ldr	r0, [sp, #4]
 1614              	.LVL154:
 1615 01d2 0343     		orrs	r3, r3, r0
 1616 01d4 63F30F0A 		bfi	r10, r3, #0, #16
 1617              	.LVL155:
 1618              	.LBE17:
1499:/opt/XMClib/XMC_Peripheral_Library_v2.1.16/XMCLib/src/xmc_usbd.c ****   {
 1619              		.loc 1 1499 0
 1620 01d8 BB56     		ldrsb	r3, [r7, r2]
 1621 01da 002B     		cmp	r3, #0
 1622 01dc 16DB     		blt	.L156
 1623              	.LBB18:
1503:/opt/XMClib/XMC_Peripheral_Library_v2.1.16/XMCLib/src/xmc_usbd.c **** 		/*enable endpoint */
 1624              		.loc 1 1503 0
 1625 01de 284B     		ldr	r3, .L159+8
 1626 01e0 03EB8101 		add	r1, r3, r1, lsl #2
 1627 01e4 D1F8C421 		ldr	r2, [r1, #452]
 1628 01e8 1368     		ldr	r3, [r2]
 1629              	.LVL156:
1505:/opt/XMClib/XMC_Peripheral_Library_v2.1.16/XMCLib/src/xmc_usbd.c **** 		/* set ep type */
 1630              		.loc 1 1505 0
 1631 01ea 43F40043 		orr	r3, r3, #32768
 1632              	.LVL157:
1507:/opt/XMClib/XMC_Peripheral_Library_v2.1.16/XMCLib/src/xmc_usbd.c ****     /* set mps */
 1633              		.loc 1 1507 0
 1634 01ee 69F39343 		bfi	r3, r9, #18, #2
 1635              	.LVL158:
1509:/opt/XMClib/XMC_Peripheral_Library_v2.1.16/XMCLib/src/xmc_usbd.c **** 		{
 1636              		.loc 1 1509 0
 1637 01f2 B9F1000F 		cmp	r9, #0
 1638 01f6 A4D1     		bne	.L138
 1639              	.L148:
1511:/opt/XMClib/XMC_Peripheral_Library_v2.1.16/XMCLib/src/xmc_usbd.c **** 			{
 1640              		.loc 1 1511 0
 1641 01f8 102E     		cmp	r6, #16
 1642 01fa 25D0     		beq	.L140
 1643 01fc 1AD9     		bls	.L157
 1644 01fe 202E     		cmp	r6, #32
 1645 0200 1ED0     		beq	.L143
 1646 0202 402E     		cmp	r6, #64
 1647 0204 9FD1     		bne	.L139
1514:/opt/XMClib/XMC_Peripheral_Library_v2.1.16/XMCLib/src/xmc_usbd.c **** 					break;
 1648              		.loc 1 1514 0
 1649 0206 6FF30A03 		bfc	r3, #0, #11
1515:/opt/XMClib/XMC_Peripheral_Library_v2.1.16/XMCLib/src/xmc_usbd.c **** 				case (32U):
 1650              		.loc 1 1515 0
 1651 020a 9CE7     		b	.L139
 1652              	.LVL159:
 1653              	.L156:
 1654              	.LBE18:
1499:/opt/XMClib/XMC_Peripheral_Library_v2.1.16/XMCLib/src/xmc_usbd.c ****   {
 1655              		.loc 1 1499 0 discriminator 1
 1656 020c B9F1000F 		cmp	r9, #0
 1657 0210 ACD1     		bne	.L137
 1658              	.LBB19:
1503:/opt/XMClib/XMC_Peripheral_Library_v2.1.16/XMCLib/src/xmc_usbd.c **** 		/*enable endpoint */
 1659              		.loc 1 1503 0
 1660 0212 1B4B     		ldr	r3, .L159+8
 1661 0214 3422     		movs	r2, #52
 1662 0216 02FB05F2 		mul	r2, r2, r5
 1663 021a 9A5C     		ldrb	r2, [r3, r2]	@ zero_extendqisi2
 1664 021c 02F00F02 		and	r2, r2, #15
 1665 0220 03EB8203 		add	r3, r3, r2, lsl #2
 1666 0224 D3F8C421 		ldr	r2, [r3, #452]
 1667 0228 1368     		ldr	r3, [r2]
 1668              	.LVL160:
1505:/opt/XMClib/XMC_Peripheral_Library_v2.1.16/XMCLib/src/xmc_usbd.c **** 		/* set ep type */
 1669              		.loc 1 1505 0
 1670 022a 43F40043 		orr	r3, r3, #32768
 1671              	.LVL161:
1507:/opt/XMClib/XMC_Peripheral_Library_v2.1.16/XMCLib/src/xmc_usbd.c ****     /* set mps */
 1672              		.loc 1 1507 0
 1673 022e 6FF39343 		bfc	r3, #18, #2
 1674              	.LVL162:
 1675 0232 E1E7     		b	.L148
 1676              	.L157:
1511:/opt/XMClib/XMC_Peripheral_Library_v2.1.16/XMCLib/src/xmc_usbd.c **** 			{
 1677              		.loc 1 1511 0
 1678 0234 082E     		cmp	r6, #8
 1679 0236 86D1     		bne	.L139
1523:/opt/XMClib/XMC_Peripheral_Library_v2.1.16/XMCLib/src/xmc_usbd.c **** 					break;
 1680              		.loc 1 1523 0
 1681 0238 0321     		movs	r1, #3
 1682 023a 61F30A03 		bfi	r3, r1, #0, #11
1524:/opt/XMClib/XMC_Peripheral_Library_v2.1.16/XMCLib/src/xmc_usbd.c **** 				default:
 1683              		.loc 1 1524 0
 1684 023e 82E7     		b	.L139
 1685              	.L143:
1517:/opt/XMClib/XMC_Peripheral_Library_v2.1.16/XMCLib/src/xmc_usbd.c **** 					break;
 1686              		.loc 1 1517 0
 1687 0240 0121     		movs	r1, #1
 1688 0242 61F30A03 		bfi	r3, r1, #0, #11
1518:/opt/XMClib/XMC_Peripheral_Library_v2.1.16/XMCLib/src/xmc_usbd.c **** 				case (16U):
 1689              		.loc 1 1518 0
 1690 0246 7EE7     		b	.L139
 1691              	.L140:
1520:/opt/XMClib/XMC_Peripheral_Library_v2.1.16/XMCLib/src/xmc_usbd.c **** 					break;
 1692              		.loc 1 1520 0
 1693 0248 0221     		movs	r1, #2
 1694 024a 61F30A03 		bfi	r3, r1, #0, #11
1521:/opt/XMClib/XMC_Peripheral_Library_v2.1.16/XMCLib/src/xmc_usbd.c **** 				case (8U):
 1695              		.loc 1 1521 0
 1696 024e 7AE7     		b	.L139
 1697              	.LVL163:
 1698              	.L121:
 1699              	.LBE19:
 1700              	.LBB20:
1459:/opt/XMClib/XMC_Peripheral_Library_v2.1.16/XMCLib/src/xmc_usbd.c **** 		/*enable endpoint */
 1701              		.loc 1 1459 0
 1702 0250 6A33     		adds	r3, r3, #106
 1703 0252 0B4A     		ldr	r2, .L159+8
 1704 0254 52F82340 		ldr	r4, [r2, r3, lsl #2]
 1705 0258 2068     		ldr	r0, [r4]
 1706              	.LVL164:
1461:/opt/XMClib/XMC_Peripheral_Library_v2.1.16/XMCLib/src/xmc_usbd.c **** 		/* set ep type */
 1707              		.loc 1 1461 0
 1708 025a 40F40040 		orr	r0, r0, #32768
 1709              	.LVL165:
1463:/opt/XMClib/XMC_Peripheral_Library_v2.1.16/XMCLib/src/xmc_usbd.c **** 		/* set mps */
 1710              		.loc 1 1463 0
 1711 025e 6FF39340 		bfc	r0, #18, #2
 1712              	.LVL166:
 1713              	.L145:
1467:/opt/XMClib/XMC_Peripheral_Library_v2.1.16/XMCLib/src/xmc_usbd.c **** 			{
 1714              		.loc 1 1467 0
 1715 0262 102E     		cmp	r6, #16
 1716 0264 95D0     		beq	.L125
 1717 0266 8AD9     		bls	.L158
 1718 0268 202E     		cmp	r6, #32
 1719 026a 8ED0     		beq	.L128
 1720 026c 402E     		cmp	r6, #64
 1721 026e 7FF418AF 		bne	.L124
1470:/opt/XMClib/XMC_Peripheral_Library_v2.1.16/XMCLib/src/xmc_usbd.c **** 				break;
 1722              		.loc 1 1470 0
 1723 0272 6FF30A00 		bfc	r0, #0, #11
1471:/opt/XMClib/XMC_Peripheral_Library_v2.1.16/XMCLib/src/xmc_usbd.c **** 				case (32U):
 1724              		.loc 1 1471 0
 1725 0276 14E7     		b	.L124
 1726              	.L160:
 1727              		.align	2
 1728              	.L159:
 1729 0278 00000000 		.word	.LANCHOR0
 1730 027c 00000000 		.word	.LANCHOR1
 1731 0280 00000000 		.word	xmc_device
 1732              	.LBE20:
 1733              		.cfi_endproc
 1734              	.LFE198:
 1736              		.section	.text.XMC_USBD_EndpointRead,"ax",%progbits
 1737              		.align	1
 1738              		.global	XMC_USBD_EndpointRead
 1739              		.syntax unified
 1740              		.thumb
 1741              		.thumb_func
 1742              		.fpu fpv4-sp-d16
 1744              	XMC_USBD_EndpointRead:
 1745              	.LFB193:
1285:/opt/XMClib/XMC_Peripheral_Library_v2.1.16/XMCLib/src/xmc_usbd.c ****   XMC_USBD_EP_t *ep = &xmc_device.ep[ep_num];
 1746              		.loc 1 1285 0
 1747              		.cfi_startproc
 1748              		@ args = 0, pretend = 0, frame = 0
 1749              		@ frame_needed = 0, uses_anonymous_args = 0
 1750              	.LVL167:
 1751 0000 70B5     		push	{r4, r5, r6, lr}
 1752              	.LCFI19:
 1753              		.cfi_def_cfa_offset 16
 1754              		.cfi_offset 4, -16
 1755              		.cfi_offset 5, -12
 1756              		.cfi_offset 6, -8
 1757              		.cfi_offset 14, -4
 1758 0002 0646     		mov	r6, r0
 1759 0004 0846     		mov	r0, r1
 1760              	.LVL168:
1287:/opt/XMClib/XMC_Peripheral_Library_v2.1.16/XMCLib/src/xmc_usbd.c ****   {
 1761              		.loc 1 1287 0
 1762 0006 0F4B     		ldr	r3, .L166
 1763 0008 3424     		movs	r4, #52
 1764 000a 04FB0634 		mla	r4, r4, r6, r3
 1765              	.LVL169:
 1766 000e 2569     		ldr	r5, [r4, #16]
 1767 0010 9542     		cmp	r5, r2
 1768 0012 28BF     		it	cs
 1769 0014 1546     		movcs	r5, r2
 1770              	.LVL170:
1291:/opt/XMClib/XMC_Peripheral_Library_v2.1.16/XMCLib/src/xmc_usbd.c ****   ep->outBytesAvailable -= length;
 1771              		.loc 1 1291 0
 1772 0016 E168     		ldr	r1, [r4, #12]
 1773              	.LVL171:
 1774 0018 A369     		ldr	r3, [r4, #24]
 1775 001a 2A46     		mov	r2, r5
 1776 001c 1944     		add	r1, r1, r3
 1777 001e FFF7FEFF 		bl	memcpy
 1778              	.LVL172:
1292:/opt/XMClib/XMC_Peripheral_Library_v2.1.16/XMCLib/src/xmc_usbd.c ****   if (ep->outBytesAvailable)
 1779              		.loc 1 1292 0
 1780 0022 2369     		ldr	r3, [r4, #16]
 1781 0024 5B1B     		subs	r3, r3, r5
 1782 0026 2361     		str	r3, [r4, #16]
1293:/opt/XMClib/XMC_Peripheral_Library_v2.1.16/XMCLib/src/xmc_usbd.c ****   {
 1783              		.loc 1 1293 0
 1784 0028 3BB9     		cbnz	r3, .L165
1299:/opt/XMClib/XMC_Peripheral_Library_v2.1.16/XMCLib/src/xmc_usbd.c ****   }
 1785              		.loc 1 1299 0
 1786 002a 064B     		ldr	r3, .L166
 1787 002c 3422     		movs	r2, #52
 1788 002e 02FB0636 		mla	r6, r2, r6, r3
 1789 0032 0023     		movs	r3, #0
 1790 0034 B361     		str	r3, [r6, #24]
 1791              	.L163:
1302:/opt/XMClib/XMC_Peripheral_Library_v2.1.16/XMCLib/src/xmc_usbd.c **** 
 1792              		.loc 1 1302 0
 1793 0036 2846     		mov	r0, r5
 1794 0038 70BD     		pop	{r4, r5, r6, pc}
 1795              	.LVL173:
 1796              	.L165:
1295:/opt/XMClib/XMC_Peripheral_Library_v2.1.16/XMCLib/src/xmc_usbd.c ****   }
 1797              		.loc 1 1295 0
 1798 003a A369     		ldr	r3, [r4, #24]
 1799 003c 2B44     		add	r3, r3, r5
 1800 003e A361     		str	r3, [r4, #24]
 1801 0040 F9E7     		b	.L163
 1802              	.L167:
 1803 0042 00BF     		.align	2
 1804              	.L166:
 1805 0044 00000000 		.word	xmc_device
 1806              		.cfi_endproc
 1807              	.LFE193:
 1809              		.section	.text.XMC_USBD_EndpointWrite,"ax",%progbits
 1810              		.align	1
 1811              		.global	XMC_USBD_EndpointWrite
 1812              		.syntax unified
 1813              		.thumb
 1814              		.thumb_func
 1815              		.fpu fpv4-sp-d16
 1817              	XMC_USBD_EndpointWrite:
 1818              	.LFB194:
1308:/opt/XMClib/XMC_Peripheral_Library_v2.1.16/XMCLib/src/xmc_usbd.c ****   XMC_USBD_EP_t * ep = &xmc_device.ep[ep_num & (uint8_t)XMC_USBD_EP_NUM_MASK];
 1819              		.loc 1 1308 0
 1820              		.cfi_startproc
 1821              		@ args = 0, pretend = 0, frame = 0
 1822              		@ frame_needed = 0, uses_anonymous_args = 0
 1823              	.LVL174:
 1824 0000 2DE9F041 		push	{r4, r5, r6, r7, r8, lr}
 1825              	.LCFI20:
 1826              		.cfi_def_cfa_offset 24
 1827              		.cfi_offset 4, -24
 1828              		.cfi_offset 5, -20
 1829              		.cfi_offset 6, -16
 1830              		.cfi_offset 7, -12
 1831              		.cfi_offset 8, -8
 1832              		.cfi_offset 14, -4
 1833 0004 00F00F05 		and	r5, r0, #15
 1834              	.LVL175:
1311:/opt/XMClib/XMC_Peripheral_Library_v2.1.16/XMCLib/src/xmc_usbd.c ****   {
 1835              		.loc 1 1311 0
 1836 0008 1748     		ldr	r0, .L173
 1837              	.LVL176:
 1838 000a 3423     		movs	r3, #52
 1839 000c 03FB0503 		mla	r3, r3, r5, r0
 1840 0010 1B79     		ldrb	r3, [r3, #4]	@ zero_extendqisi2
 1841 0012 13F0040F 		tst	r3, #4
 1842 0016 21D0     		beq	.L170
1315:/opt/XMClib/XMC_Peripheral_Library_v2.1.16/XMCLib/src/xmc_usbd.c ****   {
 1843              		.loc 1 1315 0
 1844 0018 3423     		movs	r3, #52
 1845 001a 03FB0503 		mla	r3, r3, r5, r0
 1846 001e 5B68     		ldr	r3, [r3, #4]
 1847 0020 13F0080F 		tst	r3, #8
 1848 0024 1DD1     		bne	.L171
1321:/opt/XMClib/XMC_Peripheral_Library_v2.1.16/XMCLib/src/xmc_usbd.c ****     {
 1849              		.loc 1 1321 0
 1850 0026 4FF03408 		mov	r8, #52
 1851 002a 08FB0504 		mla	r4, r8, r5, r0
 1852 002e 266A     		ldr	r6, [r4, #32]
 1853 0030 9642     		cmp	r6, r2
 1854 0032 28BF     		it	cs
 1855 0034 1646     		movcs	r6, r2
 1856              	.LVL177:
1326:/opt/XMClib/XMC_Peripheral_Library_v2.1.16/XMCLib/src/xmc_usbd.c **** 		ep->xferBuffer = ep->inBuffer;
 1857              		.loc 1 1326 0
 1858 0036 3246     		mov	r2, r6
 1859 0038 E069     		ldr	r0, [r4, #28]
 1860 003a FFF7FEFF 		bl	memcpy
 1861              	.LVL178:
1327:/opt/XMClib/XMC_Peripheral_Library_v2.1.16/XMCLib/src/xmc_usbd.c ****     ep->xferTotal = length;
 1862              		.loc 1 1327 0
 1863 003e E369     		ldr	r3, [r4, #28]
 1864 0040 6362     		str	r3, [r4, #36]
1328:/opt/XMClib/XMC_Peripheral_Library_v2.1.16/XMCLib/src/xmc_usbd.c ****     /* set transfer values */
 1865              		.loc 1 1328 0
 1866 0042 2663     		str	r6, [r4, #48]
1330:/opt/XMClib/XMC_Peripheral_Library_v2.1.16/XMCLib/src/xmc_usbd.c ****     ep->xferCount = 0U;
 1867              		.loc 1 1330 0
 1868 0044 0023     		movs	r3, #0
 1869 0046 A362     		str	r3, [r4, #40]
1331:/opt/XMClib/XMC_Peripheral_Library_v2.1.16/XMCLib/src/xmc_usbd.c ****     ep->inInUse = 1U;
 1870              		.loc 1 1331 0
 1871 0048 E362     		str	r3, [r4, #44]
1332:/opt/XMClib/XMC_Peripheral_Library_v2.1.16/XMCLib/src/xmc_usbd.c ****     /* start the transfer */
 1872              		.loc 1 1332 0
 1873 004a 6368     		ldr	r3, [r4, #4]
 1874 004c 43F00803 		orr	r3, r3, #8
 1875 0050 6360     		str	r3, [r4, #4]
1334:/opt/XMClib/XMC_Peripheral_Library_v2.1.16/XMCLib/src/xmc_usbd.c ****     result=(int32_t)ep->xferTotal;
 1876              		.loc 1 1334 0
 1877 0052 2046     		mov	r0, r4
 1878 0054 FFF7FEFF 		bl	XMC_USBD_lStartWriteXfer
 1879              	.LVL179:
1335:/opt/XMClib/XMC_Peripheral_Library_v2.1.16/XMCLib/src/xmc_usbd.c ****   }
 1880              		.loc 1 1335 0
 1881 0058 206B     		ldr	r0, [r4, #48]
 1882              	.LVL180:
 1883 005a 00E0     		b	.L168
 1884              	.LVL181:
