   1              		.cpu cortex-m4
   2              		.eabi_attribute 27, 1
   3              		.eabi_attribute 20, 1
   4              		.eabi_attribute 21, 1
   5              		.eabi_attribute 23, 3
   6              		.eabi_attribute 24, 1
   7              		.eabi_attribute 25, 1
   8              		.eabi_attribute 26, 1
   9              		.eabi_attribute 30, 2
  10              		.eabi_attribute 34, 1
  11              		.eabi_attribute 18, 4
  12              		.file	"xmc_usbd.c"
  13              		.text
  14              	.Ltext0:
  15              		.cfi_sections	.debug_frame
  16              		.section	.text.XMC_USBD_lStartReadXfer,"ax",%progbits
  17              		.align	1
  18              		.p2align 2,,3
  19              		.syntax unified
  20              		.thumb
  21              		.thumb_func
  22              		.fpu fpv4-sp-d16
  24              	XMC_USBD_lStartReadXfer:
  25              	.LFB169:
  26              		.file 1 "/opt/XMClib/XMC_Peripheral_Library_v2.1.16/XMCLib/src/xmc_usbd.c"
   1:/opt/XMClib/XMC_Peripheral_Library_v2.1.16/XMCLib/src/xmc_usbd.c **** /**
   2:/opt/XMClib/XMC_Peripheral_Library_v2.1.16/XMCLib/src/xmc_usbd.c ****  * @file xmc_usbd.c
   3:/opt/XMClib/XMC_Peripheral_Library_v2.1.16/XMCLib/src/xmc_usbd.c ****  * @date 2015-06-20
   4:/opt/XMClib/XMC_Peripheral_Library_v2.1.16/XMCLib/src/xmc_usbd.c ****  *
   5:/opt/XMClib/XMC_Peripheral_Library_v2.1.16/XMCLib/src/xmc_usbd.c ****  * @cond
   6:/opt/XMClib/XMC_Peripheral_Library_v2.1.16/XMCLib/src/xmc_usbd.c ****  **********************************************************************************
   7:/opt/XMClib/XMC_Peripheral_Library_v2.1.16/XMCLib/src/xmc_usbd.c ****  * XMClib v2.1.16 - XMC Peripheral Driver Library 
   8:/opt/XMClib/XMC_Peripheral_Library_v2.1.16/XMCLib/src/xmc_usbd.c ****  *
   9:/opt/XMClib/XMC_Peripheral_Library_v2.1.16/XMCLib/src/xmc_usbd.c ****  * Copyright (c) 2015-2017, Infineon Technologies AG
  10:/opt/XMClib/XMC_Peripheral_Library_v2.1.16/XMCLib/src/xmc_usbd.c ****  * All rights reserved.                        
  11:/opt/XMClib/XMC_Peripheral_Library_v2.1.16/XMCLib/src/xmc_usbd.c ****  *                                             
  12:/opt/XMClib/XMC_Peripheral_Library_v2.1.16/XMCLib/src/xmc_usbd.c ****  * Redistribution and use in source and binary forms, with or without           
  13:/opt/XMClib/XMC_Peripheral_Library_v2.1.16/XMCLib/src/xmc_usbd.c ****  * modification,are permitted provided that the following conditions are met:   
  14:/opt/XMClib/XMC_Peripheral_Library_v2.1.16/XMCLib/src/xmc_usbd.c ****  *                                                                              
  15:/opt/XMClib/XMC_Peripheral_Library_v2.1.16/XMCLib/src/xmc_usbd.c ****  *   Redistributions of source code must retain the above copyright notice,      
  16:/opt/XMClib/XMC_Peripheral_Library_v2.1.16/XMCLib/src/xmc_usbd.c ****  *   this list of conditions and the following disclaimer.                        
  17:/opt/XMClib/XMC_Peripheral_Library_v2.1.16/XMCLib/src/xmc_usbd.c ****  * 
  18:/opt/XMClib/XMC_Peripheral_Library_v2.1.16/XMCLib/src/xmc_usbd.c ****  *   Redistributions in binary form must reproduce the above copyright notice,   
  19:/opt/XMClib/XMC_Peripheral_Library_v2.1.16/XMCLib/src/xmc_usbd.c ****  *   this list of conditions and the following disclaimer in the documentation    
  20:/opt/XMClib/XMC_Peripheral_Library_v2.1.16/XMCLib/src/xmc_usbd.c ****  *   and/or other materials provided with the distribution.                       
  21:/opt/XMClib/XMC_Peripheral_Library_v2.1.16/XMCLib/src/xmc_usbd.c ****  * 
  22:/opt/XMClib/XMC_Peripheral_Library_v2.1.16/XMCLib/src/xmc_usbd.c ****  *   Neither the name of the copyright holders nor the names of its contributors 
  23:/opt/XMClib/XMC_Peripheral_Library_v2.1.16/XMCLib/src/xmc_usbd.c ****  *   may be used to endorse or promote products derived from this software without
  24:/opt/XMClib/XMC_Peripheral_Library_v2.1.16/XMCLib/src/xmc_usbd.c ****  *   specific prior written permission.                                           
  25:/opt/XMClib/XMC_Peripheral_Library_v2.1.16/XMCLib/src/xmc_usbd.c ****  *                                                                              
  26:/opt/XMClib/XMC_Peripheral_Library_v2.1.16/XMCLib/src/xmc_usbd.c ****  * THIS SOFTWARE IS PROVIDED BY THE COPYRIGHT HOLDERS AND CONTRIBUTORS "AS IS"  
  27:/opt/XMClib/XMC_Peripheral_Library_v2.1.16/XMCLib/src/xmc_usbd.c ****  * AND ANY EXPRESS OR IMPLIED WARRANTIES, INCLUDING, BUT NOT LIMITED TO, THE    
  28:/opt/XMClib/XMC_Peripheral_Library_v2.1.16/XMCLib/src/xmc_usbd.c ****  * IMPLIED WARRANTIES OF MERCHANTABILITY AND FITNESS FOR A PARTICULAR PURPOSE   
  29:/opt/XMClib/XMC_Peripheral_Library_v2.1.16/XMCLib/src/xmc_usbd.c ****  * ARE  DISCLAIMED. IN NO EVENT SHALL THE COPYRIGHT HOLDER OR CONTRIBUTORS BE   
  30:/opt/XMClib/XMC_Peripheral_Library_v2.1.16/XMCLib/src/xmc_usbd.c ****  * LIABLE  FOR ANY DIRECT, INDIRECT, INCIDENTAL, SPECIAL, EXEMPLARY, OR         
  31:/opt/XMClib/XMC_Peripheral_Library_v2.1.16/XMCLib/src/xmc_usbd.c ****  * CONSEQUENTIAL DAMAGES (INCLUDING, BUT NOT LIMITED TO, PROCUREMENT OF         
  32:/opt/XMClib/XMC_Peripheral_Library_v2.1.16/XMCLib/src/xmc_usbd.c ****  * SUBSTITUTE GOODS OR  SERVICES; LOSS OF USE, DATA, OR PROFITS; OR BUSINESS    
  33:/opt/XMClib/XMC_Peripheral_Library_v2.1.16/XMCLib/src/xmc_usbd.c ****  * INTERRUPTION) HOWEVER CAUSED AND ON ANY THEORY OF LIABILITY, WHETHER IN      
  34:/opt/XMClib/XMC_Peripheral_Library_v2.1.16/XMCLib/src/xmc_usbd.c ****  * CONTRACT, STRICT LIABILITY,OR TORT (INCLUDING NEGLIGENCE OR OTHERWISE)       
  35:/opt/XMClib/XMC_Peripheral_Library_v2.1.16/XMCLib/src/xmc_usbd.c ****  * ARISING IN ANY WAY OUT OF THE USE OF THIS SOFTWARE, EVEN IF ADVISED OF THE   
  36:/opt/XMClib/XMC_Peripheral_Library_v2.1.16/XMCLib/src/xmc_usbd.c ****  * POSSIBILITY OF SUCH DAMAGE.                                                  
  37:/opt/XMClib/XMC_Peripheral_Library_v2.1.16/XMCLib/src/xmc_usbd.c ****  *                                                                              
  38:/opt/XMClib/XMC_Peripheral_Library_v2.1.16/XMCLib/src/xmc_usbd.c ****  * To improve the quality of the software, users are encouraged to share        
  39:/opt/XMClib/XMC_Peripheral_Library_v2.1.16/XMCLib/src/xmc_usbd.c ****  * modifications, enhancements or bug fixes with Infineon Technologies AG       
  40:/opt/XMClib/XMC_Peripheral_Library_v2.1.16/XMCLib/src/xmc_usbd.c ****  * dave@infineon.com).                                                          
  41:/opt/XMClib/XMC_Peripheral_Library_v2.1.16/XMCLib/src/xmc_usbd.c ****  **********************************************************************************
  42:/opt/XMClib/XMC_Peripheral_Library_v2.1.16/XMCLib/src/xmc_usbd.c ****  *
  43:/opt/XMClib/XMC_Peripheral_Library_v2.1.16/XMCLib/src/xmc_usbd.c ****  * Change History
  44:/opt/XMClib/XMC_Peripheral_Library_v2.1.16/XMCLib/src/xmc_usbd.c ****  * --------------
  45:/opt/XMClib/XMC_Peripheral_Library_v2.1.16/XMCLib/src/xmc_usbd.c ****  *
  46:/opt/XMClib/XMC_Peripheral_Library_v2.1.16/XMCLib/src/xmc_usbd.c ****  * 2015-02-16:
  47:/opt/XMClib/XMC_Peripheral_Library_v2.1.16/XMCLib/src/xmc_usbd.c ****  *     - Initial Version.<br>           
  48:/opt/XMClib/XMC_Peripheral_Library_v2.1.16/XMCLib/src/xmc_usbd.c ****  * 2015-03-18:
  49:/opt/XMClib/XMC_Peripheral_Library_v2.1.16/XMCLib/src/xmc_usbd.c ****  *     - Updated the XMC_USBD_EndpointStall() to fix issue on USB clear stall. <br>
  50:/opt/XMClib/XMC_Peripheral_Library_v2.1.16/XMCLib/src/xmc_usbd.c ****  *     - Updated the XMC_USBD_EndpointConfigure() to fix issue in EP0 configuration.<br>
  51:/opt/XMClib/XMC_Peripheral_Library_v2.1.16/XMCLib/src/xmc_usbd.c ****  *     - Updated the XMC_USBD_IRQHandler()(Removed the DAVE_CE check on SOF event).<br>
  52:/opt/XMClib/XMC_Peripheral_Library_v2.1.16/XMCLib/src/xmc_usbd.c ****  * 2015-06-20:
  53:/opt/XMClib/XMC_Peripheral_Library_v2.1.16/XMCLib/src/xmc_usbd.c ****  *     - Removed GetDriverVersion API.<br>
  54:/opt/XMClib/XMC_Peripheral_Library_v2.1.16/XMCLib/src/xmc_usbd.c ****  *     - Updated the XMC_USBD_IsEnumDone() API.<br>
  55:/opt/XMClib/XMC_Peripheral_Library_v2.1.16/XMCLib/src/xmc_usbd.c ****  *     - Updated the copy right in the file header.<br>
  56:/opt/XMClib/XMC_Peripheral_Library_v2.1.16/XMCLib/src/xmc_usbd.c ****  *     - Updated the XMC_USBD_Disable() API to gate the clock after programming the SCU registers.<
  57:/opt/XMClib/XMC_Peripheral_Library_v2.1.16/XMCLib/src/xmc_usbd.c ****  *
  58:/opt/XMClib/XMC_Peripheral_Library_v2.1.16/XMCLib/src/xmc_usbd.c ****  * @endcond 
  59:/opt/XMClib/XMC_Peripheral_Library_v2.1.16/XMCLib/src/xmc_usbd.c ****  *
  60:/opt/XMClib/XMC_Peripheral_Library_v2.1.16/XMCLib/src/xmc_usbd.c ****  */
  61:/opt/XMClib/XMC_Peripheral_Library_v2.1.16/XMCLib/src/xmc_usbd.c **** 
  62:/opt/XMClib/XMC_Peripheral_Library_v2.1.16/XMCLib/src/xmc_usbd.c **** 
  63:/opt/XMClib/XMC_Peripheral_Library_v2.1.16/XMCLib/src/xmc_usbd.c **** /*******************************************************************************
  64:/opt/XMClib/XMC_Peripheral_Library_v2.1.16/XMCLib/src/xmc_usbd.c ****  * HEADER FILES
  65:/opt/XMClib/XMC_Peripheral_Library_v2.1.16/XMCLib/src/xmc_usbd.c ****  *******************************************************************************/
  66:/opt/XMClib/XMC_Peripheral_Library_v2.1.16/XMCLib/src/xmc_usbd.c **** #include <xmc_usbd.h>
  67:/opt/XMClib/XMC_Peripheral_Library_v2.1.16/XMCLib/src/xmc_usbd.c **** 
  68:/opt/XMClib/XMC_Peripheral_Library_v2.1.16/XMCLib/src/xmc_usbd.c **** #if defined(USB0)
  69:/opt/XMClib/XMC_Peripheral_Library_v2.1.16/XMCLib/src/xmc_usbd.c **** 	
  70:/opt/XMClib/XMC_Peripheral_Library_v2.1.16/XMCLib/src/xmc_usbd.c **** /**< macro to check the maximum number of endpoints used*/
  71:/opt/XMClib/XMC_Peripheral_Library_v2.1.16/XMCLib/src/xmc_usbd.c **** #define XMC_USBD_CHECK_INPUT_MAX_NUM_EPS(usbd_max_num_eps) \
  72:/opt/XMClib/XMC_Peripheral_Library_v2.1.16/XMCLib/src/xmc_usbd.c ****   ((usbd_max_num_eps ==  XMC_USBD_MAX_NUM_EPS_1 ) || \
  73:/opt/XMClib/XMC_Peripheral_Library_v2.1.16/XMCLib/src/xmc_usbd.c ****    (usbd_max_num_eps ==  XMC_USBD_MAX_NUM_EPS_2 ) || \
  74:/opt/XMClib/XMC_Peripheral_Library_v2.1.16/XMCLib/src/xmc_usbd.c ****    (usbd_max_num_eps ==  XMC_USBD_MAX_NUM_EPS_3 ) || \
  75:/opt/XMClib/XMC_Peripheral_Library_v2.1.16/XMCLib/src/xmc_usbd.c ****    (usbd_max_num_eps ==  XMC_USBD_MAX_NUM_EPS_4 ) || \
  76:/opt/XMClib/XMC_Peripheral_Library_v2.1.16/XMCLib/src/xmc_usbd.c ****    (usbd_max_num_eps ==  XMC_USBD_MAX_NUM_EPS_5 ) || \
  77:/opt/XMClib/XMC_Peripheral_Library_v2.1.16/XMCLib/src/xmc_usbd.c ****    (usbd_max_num_eps ==  XMC_USBD_MAX_NUM_EPS_6 ) || \
  78:/opt/XMClib/XMC_Peripheral_Library_v2.1.16/XMCLib/src/xmc_usbd.c ****    (usbd_max_num_eps == XMC_USBD_MAX_NUM_EPS_7 ))
  79:/opt/XMClib/XMC_Peripheral_Library_v2.1.16/XMCLib/src/xmc_usbd.c **** 
  80:/opt/XMClib/XMC_Peripheral_Library_v2.1.16/XMCLib/src/xmc_usbd.c **** /*******************************************************************************
  81:/opt/XMClib/XMC_Peripheral_Library_v2.1.16/XMCLib/src/xmc_usbd.c ****  *GLOBAL DATA
  82:/opt/XMClib/XMC_Peripheral_Library_v2.1.16/XMCLib/src/xmc_usbd.c ****  *******************************************************************************/
  83:/opt/XMClib/XMC_Peripheral_Library_v2.1.16/XMCLib/src/xmc_usbd.c **** /*
  84:/opt/XMClib/XMC_Peripheral_Library_v2.1.16/XMCLib/src/xmc_usbd.c ****  * Endpoint Out Fifo Size
  85:/opt/XMClib/XMC_Peripheral_Library_v2.1.16/XMCLib/src/xmc_usbd.c ****  */
  86:/opt/XMClib/XMC_Peripheral_Library_v2.1.16/XMCLib/src/xmc_usbd.c **** uint32_t XMC_USBD_EP_OUT_BUFFERSIZE[7] = {0U,0U,0U,0U,0U,0U,0U};
  87:/opt/XMClib/XMC_Peripheral_Library_v2.1.16/XMCLib/src/xmc_usbd.c **** /*
  88:/opt/XMClib/XMC_Peripheral_Library_v2.1.16/XMCLib/src/xmc_usbd.c ****  * Endpoint In Fifo Size
  89:/opt/XMClib/XMC_Peripheral_Library_v2.1.16/XMCLib/src/xmc_usbd.c ****  */
  90:/opt/XMClib/XMC_Peripheral_Library_v2.1.16/XMCLib/src/xmc_usbd.c **** uint32_t XMC_USBD_EP_IN_BUFFERSIZE[7] = {0U,0U,0U,0U,0U,0U,0U};
  91:/opt/XMClib/XMC_Peripheral_Library_v2.1.16/XMCLib/src/xmc_usbd.c **** /*
  92:/opt/XMClib/XMC_Peripheral_Library_v2.1.16/XMCLib/src/xmc_usbd.c ****  * Device definition
  93:/opt/XMClib/XMC_Peripheral_Library_v2.1.16/XMCLib/src/xmc_usbd.c ****  */
  94:/opt/XMClib/XMC_Peripheral_Library_v2.1.16/XMCLib/src/xmc_usbd.c ****  XMC_USBD_DEVICE_t xmc_device;
  95:/opt/XMClib/XMC_Peripheral_Library_v2.1.16/XMCLib/src/xmc_usbd.c **** #ifdef __GNUC__															  /*GCC*/
  96:/opt/XMClib/XMC_Peripheral_Library_v2.1.16/XMCLib/src/xmc_usbd.c **** /*
  97:/opt/XMClib/XMC_Peripheral_Library_v2.1.16/XMCLib/src/xmc_usbd.c ****  * Endpoint Out Fifo
  98:/opt/XMClib/XMC_Peripheral_Library_v2.1.16/XMCLib/src/xmc_usbd.c ****  */
  99:/opt/XMClib/XMC_Peripheral_Library_v2.1.16/XMCLib/src/xmc_usbd.c **** static __attribute__((aligned(4))) uint8_t XMC_USBD_EP_OUT_BUFFER[7][256] __attribute__((section("U
 100:/opt/XMClib/XMC_Peripheral_Library_v2.1.16/XMCLib/src/xmc_usbd.c **** /*
 101:/opt/XMClib/XMC_Peripheral_Library_v2.1.16/XMCLib/src/xmc_usbd.c ****  * Endpoint In Fifo
 102:/opt/XMClib/XMC_Peripheral_Library_v2.1.16/XMCLib/src/xmc_usbd.c ****  */
 103:/opt/XMClib/XMC_Peripheral_Library_v2.1.16/XMCLib/src/xmc_usbd.c **** static __attribute__((aligned(4))) uint8_t XMC_USBD_EP_IN_BUFFER[7][256] __attribute__((section("US
 104:/opt/XMClib/XMC_Peripheral_Library_v2.1.16/XMCLib/src/xmc_usbd.c **** #endif
 105:/opt/XMClib/XMC_Peripheral_Library_v2.1.16/XMCLib/src/xmc_usbd.c **** #if defined(__ICCARM__)
 106:/opt/XMClib/XMC_Peripheral_Library_v2.1.16/XMCLib/src/xmc_usbd.c **** #pragma data_alignment=4
 107:/opt/XMClib/XMC_Peripheral_Library_v2.1.16/XMCLib/src/xmc_usbd.c **** /*
 108:/opt/XMClib/XMC_Peripheral_Library_v2.1.16/XMCLib/src/xmc_usbd.c ****  * Endpoint Out Fifo
 109:/opt/XMClib/XMC_Peripheral_Library_v2.1.16/XMCLib/src/xmc_usbd.c ****  */
 110:/opt/XMClib/XMC_Peripheral_Library_v2.1.16/XMCLib/src/xmc_usbd.c **** static uint8_t XMC_USBD_EP_OUT_BUFFER[7][256] @ ".dram";
 111:/opt/XMClib/XMC_Peripheral_Library_v2.1.16/XMCLib/src/xmc_usbd.c **** /*
 112:/opt/XMClib/XMC_Peripheral_Library_v2.1.16/XMCLib/src/xmc_usbd.c ****  * Endpoint In Fifo
 113:/opt/XMClib/XMC_Peripheral_Library_v2.1.16/XMCLib/src/xmc_usbd.c ****  */
 114:/opt/XMClib/XMC_Peripheral_Library_v2.1.16/XMCLib/src/xmc_usbd.c **** #pragma data_alignment=4
 115:/opt/XMClib/XMC_Peripheral_Library_v2.1.16/XMCLib/src/xmc_usbd.c **** static uint8_t XMC_USBD_EP_IN_BUFFER[7][256] @ ".dram";
 116:/opt/XMClib/XMC_Peripheral_Library_v2.1.16/XMCLib/src/xmc_usbd.c **** #endif
 117:/opt/XMClib/XMC_Peripheral_Library_v2.1.16/XMCLib/src/xmc_usbd.c **** #if defined(__CC_ARM)
 118:/opt/XMClib/XMC_Peripheral_Library_v2.1.16/XMCLib/src/xmc_usbd.c **** /*
 119:/opt/XMClib/XMC_Peripheral_Library_v2.1.16/XMCLib/src/xmc_usbd.c ****  * Endpoint Out Fifo
 120:/opt/XMClib/XMC_Peripheral_Library_v2.1.16/XMCLib/src/xmc_usbd.c ****  */
 121:/opt/XMClib/XMC_Peripheral_Library_v2.1.16/XMCLib/src/xmc_usbd.c **** static __attribute__((aligned(4))) uint8_t XMC_USBD_EP_OUT_BUFFER[7][256] __attribute__((section ("
 122:/opt/XMClib/XMC_Peripheral_Library_v2.1.16/XMCLib/src/xmc_usbd.c **** /*
 123:/opt/XMClib/XMC_Peripheral_Library_v2.1.16/XMCLib/src/xmc_usbd.c ****  * Endpoint In Fifo
 124:/opt/XMClib/XMC_Peripheral_Library_v2.1.16/XMCLib/src/xmc_usbd.c ****  */
 125:/opt/XMClib/XMC_Peripheral_Library_v2.1.16/XMCLib/src/xmc_usbd.c **** static __attribute__((aligned(4))) uint8_t XMC_USBD_EP_IN_BUFFER[7][256] __attribute__((section ("R
 126:/opt/XMClib/XMC_Peripheral_Library_v2.1.16/XMCLib/src/xmc_usbd.c **** #endif
 127:/opt/XMClib/XMC_Peripheral_Library_v2.1.16/XMCLib/src/xmc_usbd.c **** XMC_USBD_t *usbd_init;
 128:/opt/XMClib/XMC_Peripheral_Library_v2.1.16/XMCLib/src/xmc_usbd.c **** 
 129:/opt/XMClib/XMC_Peripheral_Library_v2.1.16/XMCLib/src/xmc_usbd.c **** /*******************************************************************************
 130:/opt/XMClib/XMC_Peripheral_Library_v2.1.16/XMCLib/src/xmc_usbd.c ****  *LOCAL ROUTINES
 131:/opt/XMClib/XMC_Peripheral_Library_v2.1.16/XMCLib/src/xmc_usbd.c ****  *******************************************************************************/
 132:/opt/XMClib/XMC_Peripheral_Library_v2.1.16/XMCLib/src/xmc_usbd.c **** /*Local routines prototypes*/
 133:/opt/XMClib/XMC_Peripheral_Library_v2.1.16/XMCLib/src/xmc_usbd.c **** uint8_t XMC_USBD_lDeviceActive(const XMC_USBD_t *const obj);
 134:/opt/XMClib/XMC_Peripheral_Library_v2.1.16/XMCLib/src/xmc_usbd.c **** static void XMC_USBD_lReadFifo(const uint32_t ep_num,const uint32_t byte_count);
 135:/opt/XMClib/XMC_Peripheral_Library_v2.1.16/XMCLib/src/xmc_usbd.c **** static uint32_t XMC_USBD_lWriteFifo(XMC_USBD_EP_t *ep);
 136:/opt/XMClib/XMC_Peripheral_Library_v2.1.16/XMCLib/src/xmc_usbd.c **** static void XMC_USBD_lFlushTXFifo(const uint8_t fifo_num);
 137:/opt/XMClib/XMC_Peripheral_Library_v2.1.16/XMCLib/src/xmc_usbd.c **** static void XMC_USBD_lFlushRXFifo(void);
 138:/opt/XMClib/XMC_Peripheral_Library_v2.1.16/XMCLib/src/xmc_usbd.c **** static uint8_t XMC_USBD_lAssignTXFifo(void);
 139:/opt/XMClib/XMC_Peripheral_Library_v2.1.16/XMCLib/src/xmc_usbd.c **** static void XMC_USBD_lStartReadXfer(XMC_USBD_EP_t *const ep);
 140:/opt/XMClib/XMC_Peripheral_Library_v2.1.16/XMCLib/src/xmc_usbd.c **** static void XMC_USBD_lStartWriteXfer(XMC_USBD_EP_t *const ep);
 141:/opt/XMClib/XMC_Peripheral_Library_v2.1.16/XMCLib/src/xmc_usbd.c **** static void XMC_USBD_lHandleEnumDone(void);
 142:/opt/XMClib/XMC_Peripheral_Library_v2.1.16/XMCLib/src/xmc_usbd.c **** static void XMC_USBD_lHandleOEPInt(const XMC_USBD_t *const obj);
 143:/opt/XMClib/XMC_Peripheral_Library_v2.1.16/XMCLib/src/xmc_usbd.c **** static void XMC_USBD_lHandleRxFLvl(void);
 144:/opt/XMClib/XMC_Peripheral_Library_v2.1.16/XMCLib/src/xmc_usbd.c **** static void XMC_USBD_lHandleIEPInt(const XMC_USBD_t *const obj);
 145:/opt/XMClib/XMC_Peripheral_Library_v2.1.16/XMCLib/src/xmc_usbd.c **** static void XMC_USBD_lUnassignFifo(const uint8_t fifo_nr);
 146:/opt/XMClib/XMC_Peripheral_Library_v2.1.16/XMCLib/src/xmc_usbd.c **** static void XMC_USBD_lHandleUSBReset(const XMC_USBD_t *const obj);
 147:/opt/XMClib/XMC_Peripheral_Library_v2.1.16/XMCLib/src/xmc_usbd.c **** static void XMC_USBD_lHandleOTGInt(void);
 148:/opt/XMClib/XMC_Peripheral_Library_v2.1.16/XMCLib/src/xmc_usbd.c **** static void XMC_USBD_lClearEventOTG(uint32_t event);
 149:/opt/XMClib/XMC_Peripheral_Library_v2.1.16/XMCLib/src/xmc_usbd.c **** 
 150:/opt/XMClib/XMC_Peripheral_Library_v2.1.16/XMCLib/src/xmc_usbd.c **** /**
 151:/opt/XMClib/XMC_Peripheral_Library_v2.1.16/XMCLib/src/xmc_usbd.c ****  *  The device driver
 152:/opt/XMClib/XMC_Peripheral_Library_v2.1.16/XMCLib/src/xmc_usbd.c ****  */
 153:/opt/XMClib/XMC_Peripheral_Library_v2.1.16/XMCLib/src/xmc_usbd.c **** const XMC_USBD_DRIVER_t Driver_USBD0 =
 154:/opt/XMClib/XMC_Peripheral_Library_v2.1.16/XMCLib/src/xmc_usbd.c **** {
 155:/opt/XMClib/XMC_Peripheral_Library_v2.1.16/XMCLib/src/xmc_usbd.c ****   .GetCapabilities = XMC_USBD_GetCapabilities,
 156:/opt/XMClib/XMC_Peripheral_Library_v2.1.16/XMCLib/src/xmc_usbd.c ****   .Initialize = XMC_USBD_Init,
 157:/opt/XMClib/XMC_Peripheral_Library_v2.1.16/XMCLib/src/xmc_usbd.c ****   .Uninitialize = XMC_USBD_Uninitialize,
 158:/opt/XMClib/XMC_Peripheral_Library_v2.1.16/XMCLib/src/xmc_usbd.c ****   .DeviceConnect = XMC_USBD_DeviceConnect,
 159:/opt/XMClib/XMC_Peripheral_Library_v2.1.16/XMCLib/src/xmc_usbd.c ****   .DeviceDisconnect = XMC_USBD_DeviceDisconnect,
 160:/opt/XMClib/XMC_Peripheral_Library_v2.1.16/XMCLib/src/xmc_usbd.c ****   .DeviceGetState = XMC_USBD_DeviceGetState,
 161:/opt/XMClib/XMC_Peripheral_Library_v2.1.16/XMCLib/src/xmc_usbd.c ****   .DeviceSetAddress = XMC_USBD_DeviceSetAddress,
 162:/opt/XMClib/XMC_Peripheral_Library_v2.1.16/XMCLib/src/xmc_usbd.c ****   .EndpointConfigure = XMC_USBD_EndpointConfigure,
 163:/opt/XMClib/XMC_Peripheral_Library_v2.1.16/XMCLib/src/xmc_usbd.c ****   .EndpointUnconfigure = XMC_USBD_EndpointUnconfigure,
 164:/opt/XMClib/XMC_Peripheral_Library_v2.1.16/XMCLib/src/xmc_usbd.c ****   .EndpointStall = XMC_USBD_EndpointStall,
 165:/opt/XMClib/XMC_Peripheral_Library_v2.1.16/XMCLib/src/xmc_usbd.c ****   .EndpointReadStart = XMC_USBD_EndpointReadStart,
 166:/opt/XMClib/XMC_Peripheral_Library_v2.1.16/XMCLib/src/xmc_usbd.c ****   .EndpointRead = XMC_USBD_EndpointRead,
 167:/opt/XMClib/XMC_Peripheral_Library_v2.1.16/XMCLib/src/xmc_usbd.c ****   .EndpointWrite = XMC_USBD_EndpointWrite,
 168:/opt/XMClib/XMC_Peripheral_Library_v2.1.16/XMCLib/src/xmc_usbd.c ****   .EndpointAbort = XMC_USBD_EndpointAbort,
 169:/opt/XMClib/XMC_Peripheral_Library_v2.1.16/XMCLib/src/xmc_usbd.c ****   .GetFrameNumber = XMC_USBD_GetFrameNumber,
 170:/opt/XMClib/XMC_Peripheral_Library_v2.1.16/XMCLib/src/xmc_usbd.c ****   .IsEnumDone = XMC_USBD_IsEnumDone
 171:/opt/XMClib/XMC_Peripheral_Library_v2.1.16/XMCLib/src/xmc_usbd.c **** };
 172:/opt/XMClib/XMC_Peripheral_Library_v2.1.16/XMCLib/src/xmc_usbd.c **** 
 173:/opt/XMClib/XMC_Peripheral_Library_v2.1.16/XMCLib/src/xmc_usbd.c **** /**
 174:/opt/XMClib/XMC_Peripheral_Library_v2.1.16/XMCLib/src/xmc_usbd.c ****  * @brief Checks if device is active
 175:/opt/XMClib/XMC_Peripheral_Library_v2.1.16/XMCLib/src/xmc_usbd.c ****  *
 176:/opt/XMClib/XMC_Peripheral_Library_v2.1.16/XMCLib/src/xmc_usbd.c ****  * Therefore the endpoint inInUse flag are checked and if one endpoint is in use, 1 is returned,
 177:/opt/XMClib/XMC_Peripheral_Library_v2.1.16/XMCLib/src/xmc_usbd.c ****  * else 0 is returned.
 178:/opt/XMClib/XMC_Peripheral_Library_v2.1.16/XMCLib/src/xmc_usbd.c ****  * @return 1 if an endpoint is active else 0
 179:/opt/XMClib/XMC_Peripheral_Library_v2.1.16/XMCLib/src/xmc_usbd.c ****  */
 180:/opt/XMClib/XMC_Peripheral_Library_v2.1.16/XMCLib/src/xmc_usbd.c **** uint8_t XMC_USBD_lDeviceActive(const XMC_USBD_t *const obj) 
 181:/opt/XMClib/XMC_Peripheral_Library_v2.1.16/XMCLib/src/xmc_usbd.c **** {
 182:/opt/XMClib/XMC_Peripheral_Library_v2.1.16/XMCLib/src/xmc_usbd.c ****   uint8_t i;
 183:/opt/XMClib/XMC_Peripheral_Library_v2.1.16/XMCLib/src/xmc_usbd.c ****   uint8_t result = 0U;
 184:/opt/XMClib/XMC_Peripheral_Library_v2.1.16/XMCLib/src/xmc_usbd.c ****   for (i = 0U; i < (uint8_t)obj->usbd_max_num_eps; i++)
 185:/opt/XMClib/XMC_Peripheral_Library_v2.1.16/XMCLib/src/xmc_usbd.c ****   {
 186:/opt/XMClib/XMC_Peripheral_Library_v2.1.16/XMCLib/src/xmc_usbd.c ****     if (xmc_device.ep[i].inInUse || xmc_device.ep[i].outInUse)
 187:/opt/XMClib/XMC_Peripheral_Library_v2.1.16/XMCLib/src/xmc_usbd.c ****     {
 188:/opt/XMClib/XMC_Peripheral_Library_v2.1.16/XMCLib/src/xmc_usbd.c ****       result = 1U;
 189:/opt/XMClib/XMC_Peripheral_Library_v2.1.16/XMCLib/src/xmc_usbd.c ****     }
 190:/opt/XMClib/XMC_Peripheral_Library_v2.1.16/XMCLib/src/xmc_usbd.c ****   }
 191:/opt/XMClib/XMC_Peripheral_Library_v2.1.16/XMCLib/src/xmc_usbd.c ****   return result;
 192:/opt/XMClib/XMC_Peripheral_Library_v2.1.16/XMCLib/src/xmc_usbd.c **** }
 193:/opt/XMClib/XMC_Peripheral_Library_v2.1.16/XMCLib/src/xmc_usbd.c **** 
 194:/opt/XMClib/XMC_Peripheral_Library_v2.1.16/XMCLib/src/xmc_usbd.c **** 
 195:/opt/XMClib/XMC_Peripheral_Library_v2.1.16/XMCLib/src/xmc_usbd.c **** /**
 196:/opt/XMClib/XMC_Peripheral_Library_v2.1.16/XMCLib/src/xmc_usbd.c ****  * @brief Read data from the rx fifo
 197:/opt/XMClib/XMC_Peripheral_Library_v2.1.16/XMCLib/src/xmc_usbd.c ****  *
 198:/opt/XMClib/XMC_Peripheral_Library_v2.1.16/XMCLib/src/xmc_usbd.c ****  * The data from the fifo is copied in to the buffer specified by @ref xfer_buffer and
 199:/opt/XMClib/XMC_Peripheral_Library_v2.1.16/XMCLib/src/xmc_usbd.c ****  * the transfer values get updated. If the endpoint is disabled or the buffer not existent
 200:/opt/XMClib/XMC_Peripheral_Library_v2.1.16/XMCLib/src/xmc_usbd.c ****  * the function exits.
 201:/opt/XMClib/XMC_Peripheral_Library_v2.1.16/XMCLib/src/xmc_usbd.c ****  *
 202:/opt/XMClib/XMC_Peripheral_Library_v2.1.16/XMCLib/src/xmc_usbd.c ****  * @arg ep_num the endpoint to read for
 203:/opt/XMClib/XMC_Peripheral_Library_v2.1.16/XMCLib/src/xmc_usbd.c ****  * @arg byte_count the byte count to read
 204:/opt/XMClib/XMC_Peripheral_Library_v2.1.16/XMCLib/src/xmc_usbd.c ****  */
 205:/opt/XMClib/XMC_Peripheral_Library_v2.1.16/XMCLib/src/xmc_usbd.c **** static void XMC_USBD_lReadFifo(const uint32_t ep_num,const uint32_t byte_count) 
 206:/opt/XMClib/XMC_Peripheral_Library_v2.1.16/XMCLib/src/xmc_usbd.c **** {
 207:/opt/XMClib/XMC_Peripheral_Library_v2.1.16/XMCLib/src/xmc_usbd.c ****   XMC_USBD_EP_t * ep = &xmc_device.ep[ep_num];
 208:/opt/XMClib/XMC_Peripheral_Library_v2.1.16/XMCLib/src/xmc_usbd.c ****   uint32_t word_count;
 209:/opt/XMClib/XMC_Peripheral_Library_v2.1.16/XMCLib/src/xmc_usbd.c ****   uint32_t temp_data;
 210:/opt/XMClib/XMC_Peripheral_Library_v2.1.16/XMCLib/src/xmc_usbd.c ****   uint32_t temp_word_count;
 211:/opt/XMClib/XMC_Peripheral_Library_v2.1.16/XMCLib/src/xmc_usbd.c ****   volatile uint32_t *fifo = xmc_device.fifo[0U];
 212:/opt/XMClib/XMC_Peripheral_Library_v2.1.16/XMCLib/src/xmc_usbd.c ****   uint32_t i;
 213:/opt/XMClib/XMC_Peripheral_Library_v2.1.16/XMCLib/src/xmc_usbd.c ****   depctl_data_t data;
 214:/opt/XMClib/XMC_Peripheral_Library_v2.1.16/XMCLib/src/xmc_usbd.c ****   data.d32 = xmc_device.endpoint_out_register[ep_num]->doepctl;
 215:/opt/XMClib/XMC_Peripheral_Library_v2.1.16/XMCLib/src/xmc_usbd.c ****   word_count = (byte_count >> 2U );
 216:/opt/XMClib/XMC_Peripheral_Library_v2.1.16/XMCLib/src/xmc_usbd.c ****   temp_word_count = (word_count << 2U);
 217:/opt/XMClib/XMC_Peripheral_Library_v2.1.16/XMCLib/src/xmc_usbd.c ****   /* Check if ep is enabled and has buffer */
 218:/opt/XMClib/XMC_Peripheral_Library_v2.1.16/XMCLib/src/xmc_usbd.c ****   if (!data.b.usbactep)
 219:/opt/XMClib/XMC_Peripheral_Library_v2.1.16/XMCLib/src/xmc_usbd.c ****   {
 220:/opt/XMClib/XMC_Peripheral_Library_v2.1.16/XMCLib/src/xmc_usbd.c ****     /*Do Nothing*/
 221:/opt/XMClib/XMC_Peripheral_Library_v2.1.16/XMCLib/src/xmc_usbd.c ****   }
 222:/opt/XMClib/XMC_Peripheral_Library_v2.1.16/XMCLib/src/xmc_usbd.c ****   else if (ep->xferBuffer == NULL)
 223:/opt/XMClib/XMC_Peripheral_Library_v2.1.16/XMCLib/src/xmc_usbd.c ****   {
 224:/opt/XMClib/XMC_Peripheral_Library_v2.1.16/XMCLib/src/xmc_usbd.c **** 	/*Do Nothing*/
 225:/opt/XMClib/XMC_Peripheral_Library_v2.1.16/XMCLib/src/xmc_usbd.c ****   }
 226:/opt/XMClib/XMC_Peripheral_Library_v2.1.16/XMCLib/src/xmc_usbd.c ****   else
 227:/opt/XMClib/XMC_Peripheral_Library_v2.1.16/XMCLib/src/xmc_usbd.c ****   {
 228:/opt/XMClib/XMC_Peripheral_Library_v2.1.16/XMCLib/src/xmc_usbd.c ****     /* store the data */
 229:/opt/XMClib/XMC_Peripheral_Library_v2.1.16/XMCLib/src/xmc_usbd.c ****     for (i = 0U;i < word_count; i++)
 230:/opt/XMClib/XMC_Peripheral_Library_v2.1.16/XMCLib/src/xmc_usbd.c ****     {
 231:/opt/XMClib/XMC_Peripheral_Library_v2.1.16/XMCLib/src/xmc_usbd.c ****       *(((uint32_t*)ep->xferBuffer)+i) = *fifo;
 232:/opt/XMClib/XMC_Peripheral_Library_v2.1.16/XMCLib/src/xmc_usbd.c ****     }
 233:/opt/XMClib/XMC_Peripheral_Library_v2.1.16/XMCLib/src/xmc_usbd.c ****     /* space is not devidable by 4 */
 234:/opt/XMClib/XMC_Peripheral_Library_v2.1.16/XMCLib/src/xmc_usbd.c ****     if (byte_count!=temp_word_count)
 235:/opt/XMClib/XMC_Peripheral_Library_v2.1.16/XMCLib/src/xmc_usbd.c ****     {
 236:/opt/XMClib/XMC_Peripheral_Library_v2.1.16/XMCLib/src/xmc_usbd.c ****       temp_data = *fifo;
 237:/opt/XMClib/XMC_Peripheral_Library_v2.1.16/XMCLib/src/xmc_usbd.c ****       for (i = 0U;(temp_word_count + i) < byte_count;i++)
 238:/opt/XMClib/XMC_Peripheral_Library_v2.1.16/XMCLib/src/xmc_usbd.c ****       {
 239:/opt/XMClib/XMC_Peripheral_Library_v2.1.16/XMCLib/src/xmc_usbd.c ****         ep->xferBuffer[(word_count << 2)+i] = (uint8_t)((temp_data & ((uint32_t)0xFFU << (i * 8U)))
 240:/opt/XMClib/XMC_Peripheral_Library_v2.1.16/XMCLib/src/xmc_usbd.c ****       }
 241:/opt/XMClib/XMC_Peripheral_Library_v2.1.16/XMCLib/src/xmc_usbd.c ****     }
 242:/opt/XMClib/XMC_Peripheral_Library_v2.1.16/XMCLib/src/xmc_usbd.c **** 
 243:/opt/XMClib/XMC_Peripheral_Library_v2.1.16/XMCLib/src/xmc_usbd.c ****     /* save the amount of data */
 244:/opt/XMClib/XMC_Peripheral_Library_v2.1.16/XMCLib/src/xmc_usbd.c ****     ep->xferCount += byte_count;
 245:/opt/XMClib/XMC_Peripheral_Library_v2.1.16/XMCLib/src/xmc_usbd.c ****     ep->xferBuffer += byte_count;
 246:/opt/XMClib/XMC_Peripheral_Library_v2.1.16/XMCLib/src/xmc_usbd.c ****   }
 247:/opt/XMClib/XMC_Peripheral_Library_v2.1.16/XMCLib/src/xmc_usbd.c **** }
 248:/opt/XMClib/XMC_Peripheral_Library_v2.1.16/XMCLib/src/xmc_usbd.c **** 
 249:/opt/XMClib/XMC_Peripheral_Library_v2.1.16/XMCLib/src/xmc_usbd.c **** /**
 250:/opt/XMClib/XMC_Peripheral_Library_v2.1.16/XMCLib/src/xmc_usbd.c ****  * @brief Write data to an endpoint fifo
 251:/opt/XMClib/XMC_Peripheral_Library_v2.1.16/XMCLib/src/xmc_usbd.c ****  *
 252:/opt/XMClib/XMC_Peripheral_Library_v2.1.16/XMCLib/src/xmc_usbd.c ****  * The data from the @ref xfer_buffer gets copied in to the tx fifo of the endpoint until the buffe
 253:/opt/XMClib/XMC_Peripheral_Library_v2.1.16/XMCLib/src/xmc_usbd.c ****  *completely or the tx fifo is full. The transfer values are not updated.
 254:/opt/XMClib/XMC_Peripheral_Library_v2.1.16/XMCLib/src/xmc_usbd.c ****  *
 255:/opt/XMClib/XMC_Peripheral_Library_v2.1.16/XMCLib/src/xmc_usbd.c ****  * @arg[in] ep the endpoint to use
 256:/opt/XMClib/XMC_Peripheral_Library_v2.1.16/XMCLib/src/xmc_usbd.c ****  * @return the number of bytes written to the fifo
 257:/opt/XMClib/XMC_Peripheral_Library_v2.1.16/XMCLib/src/xmc_usbd.c ****  */
 258:/opt/XMClib/XMC_Peripheral_Library_v2.1.16/XMCLib/src/xmc_usbd.c **** static uint32_t XMC_USBD_lWriteFifo(XMC_USBD_EP_t *const ep) 
 259:/opt/XMClib/XMC_Peripheral_Library_v2.1.16/XMCLib/src/xmc_usbd.c **** {
 260:/opt/XMClib/XMC_Peripheral_Library_v2.1.16/XMCLib/src/xmc_usbd.c ****   dtxfsts_data_t freeSpace; 
 261:/opt/XMClib/XMC_Peripheral_Library_v2.1.16/XMCLib/src/xmc_usbd.c ****   volatile uint32_t *fifo;
 262:/opt/XMClib/XMC_Peripheral_Library_v2.1.16/XMCLib/src/xmc_usbd.c ****   uint32_t byte_count;
 263:/opt/XMClib/XMC_Peripheral_Library_v2.1.16/XMCLib/src/xmc_usbd.c ****   uint32_t word_count;
 264:/opt/XMClib/XMC_Peripheral_Library_v2.1.16/XMCLib/src/xmc_usbd.c ****   uint32_t result;
 265:/opt/XMClib/XMC_Peripheral_Library_v2.1.16/XMCLib/src/xmc_usbd.c ****   uint32_t i;
 266:/opt/XMClib/XMC_Peripheral_Library_v2.1.16/XMCLib/src/xmc_usbd.c ****   fifo = xmc_device.fifo[ep->address_u.address_st.number]; /* fifo */
 267:/opt/XMClib/XMC_Peripheral_Library_v2.1.16/XMCLib/src/xmc_usbd.c ****   freeSpace.d32 = xmc_device.endpoint_in_register[ep->address_u.address_st.number]->dtxfsts;
 268:/opt/XMClib/XMC_Peripheral_Library_v2.1.16/XMCLib/src/xmc_usbd.c ****   /* calculate the length and the amount of dwords to copy based on the fifo status */
 269:/opt/XMClib/XMC_Peripheral_Library_v2.1.16/XMCLib/src/xmc_usbd.c ****   byte_count = ep->xferLength - ep->xferCount;
 270:/opt/XMClib/XMC_Peripheral_Library_v2.1.16/XMCLib/src/xmc_usbd.c ****   if (!byte_count)
 271:/opt/XMClib/XMC_Peripheral_Library_v2.1.16/XMCLib/src/xmc_usbd.c ****   {
 272:/opt/XMClib/XMC_Peripheral_Library_v2.1.16/XMCLib/src/xmc_usbd.c ****     result = 0U;
 273:/opt/XMClib/XMC_Peripheral_Library_v2.1.16/XMCLib/src/xmc_usbd.c ****   }
 274:/opt/XMClib/XMC_Peripheral_Library_v2.1.16/XMCLib/src/xmc_usbd.c ****   else
 275:/opt/XMClib/XMC_Peripheral_Library_v2.1.16/XMCLib/src/xmc_usbd.c ****   {
 276:/opt/XMClib/XMC_Peripheral_Library_v2.1.16/XMCLib/src/xmc_usbd.c ****     /* add the unaligned bytes to the word count to compare with the fifo space */
 277:/opt/XMClib/XMC_Peripheral_Library_v2.1.16/XMCLib/src/xmc_usbd.c ****     word_count = ((uint32_t)byte_count + 3U) >> 2U;
 278:/opt/XMClib/XMC_Peripheral_Library_v2.1.16/XMCLib/src/xmc_usbd.c ****     if (word_count > (uint32_t)freeSpace.b.txfspcavail )
 279:/opt/XMClib/XMC_Peripheral_Library_v2.1.16/XMCLib/src/xmc_usbd.c ****     {
 280:/opt/XMClib/XMC_Peripheral_Library_v2.1.16/XMCLib/src/xmc_usbd.c ****       word_count = (uint32_t)freeSpace.b.txfspcavail;
 281:/opt/XMClib/XMC_Peripheral_Library_v2.1.16/XMCLib/src/xmc_usbd.c ****       byte_count = (uint32_t)word_count << (uint32_t)2U;
 282:/opt/XMClib/XMC_Peripheral_Library_v2.1.16/XMCLib/src/xmc_usbd.c ****     }
 283:/opt/XMClib/XMC_Peripheral_Library_v2.1.16/XMCLib/src/xmc_usbd.c **** 
 284:/opt/XMClib/XMC_Peripheral_Library_v2.1.16/XMCLib/src/xmc_usbd.c ****     /* copy data dword wise */
 285:/opt/XMClib/XMC_Peripheral_Library_v2.1.16/XMCLib/src/xmc_usbd.c ****     for (i = 0U; i < word_count;ep->xferBuffer+= 4U)
 286:/opt/XMClib/XMC_Peripheral_Library_v2.1.16/XMCLib/src/xmc_usbd.c ****     {
 287:/opt/XMClib/XMC_Peripheral_Library_v2.1.16/XMCLib/src/xmc_usbd.c ****       *fifo = *(uint32_t*)ep->xferBuffer;
 288:/opt/XMClib/XMC_Peripheral_Library_v2.1.16/XMCLib/src/xmc_usbd.c ****       i++;
 289:/opt/XMClib/XMC_Peripheral_Library_v2.1.16/XMCLib/src/xmc_usbd.c ****     }
 290:/opt/XMClib/XMC_Peripheral_Library_v2.1.16/XMCLib/src/xmc_usbd.c ****     result=byte_count;
 291:/opt/XMClib/XMC_Peripheral_Library_v2.1.16/XMCLib/src/xmc_usbd.c ****   }
 292:/opt/XMClib/XMC_Peripheral_Library_v2.1.16/XMCLib/src/xmc_usbd.c ****   return result;
 293:/opt/XMClib/XMC_Peripheral_Library_v2.1.16/XMCLib/src/xmc_usbd.c **** }
 294:/opt/XMClib/XMC_Peripheral_Library_v2.1.16/XMCLib/src/xmc_usbd.c **** 
 295:/opt/XMClib/XMC_Peripheral_Library_v2.1.16/XMCLib/src/xmc_usbd.c **** /**
 296:/opt/XMClib/XMC_Peripheral_Library_v2.1.16/XMCLib/src/xmc_usbd.c ****  * @brief Flush a tx fifo
 297:/opt/XMClib/XMC_Peripheral_Library_v2.1.16/XMCLib/src/xmc_usbd.c ****  *
 298:/opt/XMClib/XMC_Peripheral_Library_v2.1.16/XMCLib/src/xmc_usbd.c ****  * @param[in] fifo_num Fifo number to flush
 299:/opt/XMClib/XMC_Peripheral_Library_v2.1.16/XMCLib/src/xmc_usbd.c ****  *
 300:/opt/XMClib/XMC_Peripheral_Library_v2.1.16/XMCLib/src/xmc_usbd.c ****  * @note Use 0x10 as parameter to flush all tx fifos.
 301:/opt/XMClib/XMC_Peripheral_Library_v2.1.16/XMCLib/src/xmc_usbd.c ****  */
 302:/opt/XMClib/XMC_Peripheral_Library_v2.1.16/XMCLib/src/xmc_usbd.c **** static void XMC_USBD_lFlushTXFifo(const uint8_t fifo_num) 
 303:/opt/XMClib/XMC_Peripheral_Library_v2.1.16/XMCLib/src/xmc_usbd.c **** {
 304:/opt/XMClib/XMC_Peripheral_Library_v2.1.16/XMCLib/src/xmc_usbd.c ****   volatile grstctl_t data;  
 305:/opt/XMClib/XMC_Peripheral_Library_v2.1.16/XMCLib/src/xmc_usbd.c ****   uint32_t count;
 306:/opt/XMClib/XMC_Peripheral_Library_v2.1.16/XMCLib/src/xmc_usbd.c ****   data.d32 = 0U;
 307:/opt/XMClib/XMC_Peripheral_Library_v2.1.16/XMCLib/src/xmc_usbd.c ****   /*flush fifo */
 308:/opt/XMClib/XMC_Peripheral_Library_v2.1.16/XMCLib/src/xmc_usbd.c ****   data.b.txfflsh = 1U;
 309:/opt/XMClib/XMC_Peripheral_Library_v2.1.16/XMCLib/src/xmc_usbd.c ****   data.b.txfnum = fifo_num;
 310:/opt/XMClib/XMC_Peripheral_Library_v2.1.16/XMCLib/src/xmc_usbd.c ****   xmc_device.global_register->grstctl = data.d32;
 311:/opt/XMClib/XMC_Peripheral_Library_v2.1.16/XMCLib/src/xmc_usbd.c ****   for (count = 0U;count < 1000U; count++){}
 312:/opt/XMClib/XMC_Peripheral_Library_v2.1.16/XMCLib/src/xmc_usbd.c ****   do
 313:/opt/XMClib/XMC_Peripheral_Library_v2.1.16/XMCLib/src/xmc_usbd.c ****   {
 314:/opt/XMClib/XMC_Peripheral_Library_v2.1.16/XMCLib/src/xmc_usbd.c ****    data.d32 = xmc_device.global_register->grstctl;
 315:/opt/XMClib/XMC_Peripheral_Library_v2.1.16/XMCLib/src/xmc_usbd.c ****   } while (data.b.txfflsh);
 316:/opt/XMClib/XMC_Peripheral_Library_v2.1.16/XMCLib/src/xmc_usbd.c ****     count = 0U;
 317:/opt/XMClib/XMC_Peripheral_Library_v2.1.16/XMCLib/src/xmc_usbd.c ****   while (count++ < 1000U)
 318:/opt/XMClib/XMC_Peripheral_Library_v2.1.16/XMCLib/src/xmc_usbd.c ****   {
 319:/opt/XMClib/XMC_Peripheral_Library_v2.1.16/XMCLib/src/xmc_usbd.c ****     /* wait 3 phy clocks */
 320:/opt/XMClib/XMC_Peripheral_Library_v2.1.16/XMCLib/src/xmc_usbd.c ****   }
 321:/opt/XMClib/XMC_Peripheral_Library_v2.1.16/XMCLib/src/xmc_usbd.c **** }
 322:/opt/XMClib/XMC_Peripheral_Library_v2.1.16/XMCLib/src/xmc_usbd.c **** 
 323:/opt/XMClib/XMC_Peripheral_Library_v2.1.16/XMCLib/src/xmc_usbd.c **** /**
 324:/opt/XMClib/XMC_Peripheral_Library_v2.1.16/XMCLib/src/xmc_usbd.c ****  * @brief Flush the rx fifo
 325:/opt/XMClib/XMC_Peripheral_Library_v2.1.16/XMCLib/src/xmc_usbd.c ****  */
 326:/opt/XMClib/XMC_Peripheral_Library_v2.1.16/XMCLib/src/xmc_usbd.c **** static void XMC_USBD_lFlushRXFifo(void) 
 327:/opt/XMClib/XMC_Peripheral_Library_v2.1.16/XMCLib/src/xmc_usbd.c **** {
 328:/opt/XMClib/XMC_Peripheral_Library_v2.1.16/XMCLib/src/xmc_usbd.c ****   volatile grstctl_t data;  
 329:/opt/XMClib/XMC_Peripheral_Library_v2.1.16/XMCLib/src/xmc_usbd.c ****   uint32_t count;
 330:/opt/XMClib/XMC_Peripheral_Library_v2.1.16/XMCLib/src/xmc_usbd.c **** 	
 331:/opt/XMClib/XMC_Peripheral_Library_v2.1.16/XMCLib/src/xmc_usbd.c **** 	data.d32 = 0U;
 332:/opt/XMClib/XMC_Peripheral_Library_v2.1.16/XMCLib/src/xmc_usbd.c ****   data.b.rxfflsh = 1U;
 333:/opt/XMClib/XMC_Peripheral_Library_v2.1.16/XMCLib/src/xmc_usbd.c ****   /* flush FIFO */
 334:/opt/XMClib/XMC_Peripheral_Library_v2.1.16/XMCLib/src/xmc_usbd.c ****   xmc_device.global_register->grstctl = data.d32;
 335:/opt/XMClib/XMC_Peripheral_Library_v2.1.16/XMCLib/src/xmc_usbd.c ****   do
 336:/opt/XMClib/XMC_Peripheral_Library_v2.1.16/XMCLib/src/xmc_usbd.c ****   {
 337:/opt/XMClib/XMC_Peripheral_Library_v2.1.16/XMCLib/src/xmc_usbd.c ****     for (count = 0U; count < 1000U; count++){}
 338:/opt/XMClib/XMC_Peripheral_Library_v2.1.16/XMCLib/src/xmc_usbd.c ****     data.d32 = xmc_device.global_register->grstctl;
 339:/opt/XMClib/XMC_Peripheral_Library_v2.1.16/XMCLib/src/xmc_usbd.c ****   } while (data.b.rxfflsh);
 340:/opt/XMClib/XMC_Peripheral_Library_v2.1.16/XMCLib/src/xmc_usbd.c ****   count = 0U;
 341:/opt/XMClib/XMC_Peripheral_Library_v2.1.16/XMCLib/src/xmc_usbd.c ****   while (count++ < 1000U)
 342:/opt/XMClib/XMC_Peripheral_Library_v2.1.16/XMCLib/src/xmc_usbd.c ****   {
 343:/opt/XMClib/XMC_Peripheral_Library_v2.1.16/XMCLib/src/xmc_usbd.c ****     /* wait 3 phy clocks */
 344:/opt/XMClib/XMC_Peripheral_Library_v2.1.16/XMCLib/src/xmc_usbd.c ****   }
 345:/opt/XMClib/XMC_Peripheral_Library_v2.1.16/XMCLib/src/xmc_usbd.c **** }
 346:/opt/XMClib/XMC_Peripheral_Library_v2.1.16/XMCLib/src/xmc_usbd.c **** 
 347:/opt/XMClib/XMC_Peripheral_Library_v2.1.16/XMCLib/src/xmc_usbd.c **** /*
 348:/opt/XMClib/XMC_Peripheral_Library_v2.1.16/XMCLib/src/xmc_usbd.c ****  * Support Functions
 349:/opt/XMClib/XMC_Peripheral_Library_v2.1.16/XMCLib/src/xmc_usbd.c ****  */
 350:/opt/XMClib/XMC_Peripheral_Library_v2.1.16/XMCLib/src/xmc_usbd.c **** 
 351:/opt/XMClib/XMC_Peripheral_Library_v2.1.16/XMCLib/src/xmc_usbd.c **** /**
 352:/opt/XMClib/XMC_Peripheral_Library_v2.1.16/XMCLib/src/xmc_usbd.c ****  * @brief Assign a free tx fifo
 353:/opt/XMClib/XMC_Peripheral_Library_v2.1.16/XMCLib/src/xmc_usbd.c ****  *
 354:/opt/XMClib/XMC_Peripheral_Library_v2.1.16/XMCLib/src/xmc_usbd.c ****  * A free tx fifo will be searched and the number will be returned.
 355:/opt/XMClib/XMC_Peripheral_Library_v2.1.16/XMCLib/src/xmc_usbd.c ****  *
 356:/opt/XMClib/XMC_Peripheral_Library_v2.1.16/XMCLib/src/xmc_usbd.c ****  * @return Fifo number for a free fifo
 357:/opt/XMClib/XMC_Peripheral_Library_v2.1.16/XMCLib/src/xmc_usbd.c ****  */
 358:/opt/XMClib/XMC_Peripheral_Library_v2.1.16/XMCLib/src/xmc_usbd.c **** static uint8_t XMC_USBD_lAssignTXFifo(void) 
 359:/opt/XMClib/XMC_Peripheral_Library_v2.1.16/XMCLib/src/xmc_usbd.c **** {
 360:/opt/XMClib/XMC_Peripheral_Library_v2.1.16/XMCLib/src/xmc_usbd.c ****   uint16_t mask = 1U;
 361:/opt/XMClib/XMC_Peripheral_Library_v2.1.16/XMCLib/src/xmc_usbd.c ****   uint8_t i = 0U;
 362:/opt/XMClib/XMC_Peripheral_Library_v2.1.16/XMCLib/src/xmc_usbd.c ****   uint8_t result = 0U;
 363:/opt/XMClib/XMC_Peripheral_Library_v2.1.16/XMCLib/src/xmc_usbd.c ****   while( (i < (uint8_t)XMC_USBD_NUM_TX_FIFOS)&&((xmc_device.txfifomsk & mask) != 0U))
 364:/opt/XMClib/XMC_Peripheral_Library_v2.1.16/XMCLib/src/xmc_usbd.c ****   {
 365:/opt/XMClib/XMC_Peripheral_Library_v2.1.16/XMCLib/src/xmc_usbd.c ****     mask = (uint16_t)(mask << 1U);
 366:/opt/XMClib/XMC_Peripheral_Library_v2.1.16/XMCLib/src/xmc_usbd.c ****     i++;
 367:/opt/XMClib/XMC_Peripheral_Library_v2.1.16/XMCLib/src/xmc_usbd.c ****   }
 368:/opt/XMClib/XMC_Peripheral_Library_v2.1.16/XMCLib/src/xmc_usbd.c ****   if ((xmc_device.txfifomsk & mask) == 0U)
 369:/opt/XMClib/XMC_Peripheral_Library_v2.1.16/XMCLib/src/xmc_usbd.c ****   {
 370:/opt/XMClib/XMC_Peripheral_Library_v2.1.16/XMCLib/src/xmc_usbd.c ****     xmc_device.txfifomsk |= mask;
 371:/opt/XMClib/XMC_Peripheral_Library_v2.1.16/XMCLib/src/xmc_usbd.c ****     result=i;
 372:/opt/XMClib/XMC_Peripheral_Library_v2.1.16/XMCLib/src/xmc_usbd.c ****   }
 373:/opt/XMClib/XMC_Peripheral_Library_v2.1.16/XMCLib/src/xmc_usbd.c ****   return result;
 374:/opt/XMClib/XMC_Peripheral_Library_v2.1.16/XMCLib/src/xmc_usbd.c **** }
 375:/opt/XMClib/XMC_Peripheral_Library_v2.1.16/XMCLib/src/xmc_usbd.c **** 
 376:/opt/XMClib/XMC_Peripheral_Library_v2.1.16/XMCLib/src/xmc_usbd.c **** /**
 377:/opt/XMClib/XMC_Peripheral_Library_v2.1.16/XMCLib/src/xmc_usbd.c ****  * @brief Free a tx fifo
 378:/opt/XMClib/XMC_Peripheral_Library_v2.1.16/XMCLib/src/xmc_usbd.c ****  *
 379:/opt/XMClib/XMC_Peripheral_Library_v2.1.16/XMCLib/src/xmc_usbd.c ****  * Mark an used tx fifo as free.
 380:/opt/XMClib/XMC_Peripheral_Library_v2.1.16/XMCLib/src/xmc_usbd.c ****  * @param[in] fifo_nr Fifo number to free
 381:/opt/XMClib/XMC_Peripheral_Library_v2.1.16/XMCLib/src/xmc_usbd.c ****  */
 382:/opt/XMClib/XMC_Peripheral_Library_v2.1.16/XMCLib/src/xmc_usbd.c **** static void XMC_USBD_lUnassignFifo(const uint8_t fifo_nr) 
 383:/opt/XMClib/XMC_Peripheral_Library_v2.1.16/XMCLib/src/xmc_usbd.c **** {
 384:/opt/XMClib/XMC_Peripheral_Library_v2.1.16/XMCLib/src/xmc_usbd.c ****   xmc_device.txfifomsk = (uint16_t)((uint32_t)xmc_device.txfifomsk & (uint32_t)(~((uint32_t)((uint3
 385:/opt/XMClib/XMC_Peripheral_Library_v2.1.16/XMCLib/src/xmc_usbd.c **** }
 386:/opt/XMClib/XMC_Peripheral_Library_v2.1.16/XMCLib/src/xmc_usbd.c **** 
 387:/opt/XMClib/XMC_Peripheral_Library_v2.1.16/XMCLib/src/xmc_usbd.c **** /**
 388:/opt/XMClib/XMC_Peripheral_Library_v2.1.16/XMCLib/src/xmc_usbd.c ****  * @brief Start a transfer for an out endpoint
 389:/opt/XMClib/XMC_Peripheral_Library_v2.1.16/XMCLib/src/xmc_usbd.c ****  *
 390:/opt/XMClib/XMC_Peripheral_Library_v2.1.16/XMCLib/src/xmc_usbd.c ****  * Based on the transfer values of the endpoint, the out endpoint registers will be programmed
 391:/opt/XMClib/XMC_Peripheral_Library_v2.1.16/XMCLib/src/xmc_usbd.c ****  * to start a new out transfer.
 392:/opt/XMClib/XMC_Peripheral_Library_v2.1.16/XMCLib/src/xmc_usbd.c ****  *
 393:/opt/XMClib/XMC_Peripheral_Library_v2.1.16/XMCLib/src/xmc_usbd.c ****  * @note No checking of the transfer values are done in this function. Be sure,
 394:/opt/XMClib/XMC_Peripheral_Library_v2.1.16/XMCLib/src/xmc_usbd.c ****  * that the transfer values are reasonable (e.g. buffer size is not exceeded).
 395:/opt/XMClib/XMC_Peripheral_Library_v2.1.16/XMCLib/src/xmc_usbd.c ****  *
 396:/opt/XMClib/XMC_Peripheral_Library_v2.1.16/XMCLib/src/xmc_usbd.c ****  * @param[in] ep Endpoint to start the transfer
 397:/opt/XMClib/XMC_Peripheral_Library_v2.1.16/XMCLib/src/xmc_usbd.c ****  */
 398:/opt/XMClib/XMC_Peripheral_Library_v2.1.16/XMCLib/src/xmc_usbd.c **** static void XMC_USBD_lStartReadXfer(XMC_USBD_EP_t *const ep) 
 399:/opt/XMClib/XMC_Peripheral_Library_v2.1.16/XMCLib/src/xmc_usbd.c **** {
  27              		.loc 1 399 0
  28              		.cfi_startproc
  29              		@ args = 0, pretend = 0, frame = 0
  30              		@ frame_needed = 0, uses_anonymous_args = 0
  31              		@ link register save eliminated.
  32              	.LVL0:
 400:/opt/XMClib/XMC_Peripheral_Library_v2.1.16/XMCLib/src/xmc_usbd.c ****   deptsiz_data_t data;
 401:/opt/XMClib/XMC_Peripheral_Library_v2.1.16/XMCLib/src/xmc_usbd.c ****   depctl_data_t epctl;
 402:/opt/XMClib/XMC_Peripheral_Library_v2.1.16/XMCLib/src/xmc_usbd.c **** 	
 403:/opt/XMClib/XMC_Peripheral_Library_v2.1.16/XMCLib/src/xmc_usbd.c ****   data.d32 =  0U;
 404:/opt/XMClib/XMC_Peripheral_Library_v2.1.16/XMCLib/src/xmc_usbd.c ****   if ((ep->xferTotal - ep->xferLength) > ep->maxTransferSize)
  33              		.loc 1 404 0
  34 0000 816A     		ldr	r1, [r0, #40]
  35 0002 8268     		ldr	r2, [r0, #8]
 399:/opt/XMClib/XMC_Peripheral_Library_v2.1.16/XMCLib/src/xmc_usbd.c ****   deptsiz_data_t data;
  36              		.loc 1 399 0
  37 0004 30B4     		push	{r4, r5}
  38              	.LCFI0:
  39              		.cfi_def_cfa_offset 8
  40              		.cfi_offset 4, -8
  41              		.cfi_offset 5, -4
  42              		.loc 1 404 0
  43 0006 046B     		ldr	r4, [r0, #48]
  44 0008 C2F31202 		ubfx	r2, r2, #0, #19
  45 000c 651A     		subs	r5, r4, r1
  46 000e 9542     		cmp	r5, r2
 405:/opt/XMClib/XMC_Peripheral_Library_v2.1.16/XMCLib/src/xmc_usbd.c ****   {
 406:/opt/XMClib/XMC_Peripheral_Library_v2.1.16/XMCLib/src/xmc_usbd.c ****     ep->xferLength += ep->maxTransferSize;
  47              		.loc 1 406 0
  48 0010 84BF     		itt	hi
  49 0012 5218     		addhi	r2, r2, r1
  50 0014 8262     		strhi	r2, [r0, #40]
 407:/opt/XMClib/XMC_Peripheral_Library_v2.1.16/XMCLib/src/xmc_usbd.c ****   }
 408:/opt/XMClib/XMC_Peripheral_Library_v2.1.16/XMCLib/src/xmc_usbd.c ****   else
 409:/opt/XMClib/XMC_Peripheral_Library_v2.1.16/XMCLib/src/xmc_usbd.c ****   {
 410:/opt/XMClib/XMC_Peripheral_Library_v2.1.16/XMCLib/src/xmc_usbd.c ****     ep->xferLength = ep->xferTotal;
 411:/opt/XMClib/XMC_Peripheral_Library_v2.1.16/XMCLib/src/xmc_usbd.c ****   }
 412:/opt/XMClib/XMC_Peripheral_Library_v2.1.16/XMCLib/src/xmc_usbd.c ****   if (ep->address_u.address_st.number == 0U)
  51              		.loc 1 412 0
  52 0016 0278     		ldrb	r2, [r0]	@ zero_extendqisi2
 410:/opt/XMClib/XMC_Peripheral_Library_v2.1.16/XMCLib/src/xmc_usbd.c ****   }
  53              		.loc 1 410 0
  54 0018 98BF     		it	ls
  55 001a 8462     		strls	r4, [r0, #40]
  56              		.loc 1 412 0
  57 001c 1107     		lsls	r1, r2, #28
 403:/opt/XMClib/XMC_Peripheral_Library_v2.1.16/XMCLib/src/xmc_usbd.c ****   if ((ep->xferTotal - ep->xferLength) > ep->maxTransferSize)
  58              		.loc 1 403 0
  59 001e 4FF00003 		mov	r3, #0
  60              	.LVL1:
  61              		.loc 1 412 0
  62 0022 1AD1     		bne	.L4
  63              	.LVL2:
  64              	.LBB84:
 413:/opt/XMClib/XMC_Peripheral_Library_v2.1.16/XMCLib/src/xmc_usbd.c ****   {
 414:/opt/XMClib/XMC_Peripheral_Library_v2.1.16/XMCLib/src/xmc_usbd.c **** 	/* Setup the endpoint to receive 3 setup packages and one normal package.*/
 415:/opt/XMClib/XMC_Peripheral_Library_v2.1.16/XMCLib/src/xmc_usbd.c **** 	/* Cast the data pointer to use only one variable */
 416:/opt/XMClib/XMC_Peripheral_Library_v2.1.16/XMCLib/src/xmc_usbd.c ****     deptsiz0_data_t *ep0_data = (deptsiz0_data_t*)&data;
 417:/opt/XMClib/XMC_Peripheral_Library_v2.1.16/XMCLib/src/xmc_usbd.c ****     ep0_data->b.pktcnt = 0x1U;
  65              		.loc 1 417 0
  66 0024 0121     		movs	r1, #1
  67 0026 61F3D443 		bfi	r3, r1, #19, #2
  68              	.LVL3:
 418:/opt/XMClib/XMC_Peripheral_Library_v2.1.16/XMCLib/src/xmc_usbd.c ****     ep0_data->b.supcnt = 0x3U;
  69              		.loc 1 418 0
  70 002a 43F0C043 		orr	r3, r3, #1610612736
  71              	.LVL4:
 419:/opt/XMClib/XMC_Peripheral_Library_v2.1.16/XMCLib/src/xmc_usbd.c ****     ep0_data->b.xfersize = (uint8_t)ep->xferTotal;
  72              		.loc 1 419 0
  73 002e 64F30603 		bfi	r3, r4, #0, #7
  74              	.LVL5:
  75              	.L5:
  76              	.LBE84:
 420:/opt/XMClib/XMC_Peripheral_Library_v2.1.16/XMCLib/src/xmc_usbd.c ****   }
 421:/opt/XMClib/XMC_Peripheral_Library_v2.1.16/XMCLib/src/xmc_usbd.c ****   else
 422:/opt/XMClib/XMC_Peripheral_Library_v2.1.16/XMCLib/src/xmc_usbd.c ****   {
 423:/opt/XMClib/XMC_Peripheral_Library_v2.1.16/XMCLib/src/xmc_usbd.c ****     /* If requested length is zero, just receive one zero length packet */
 424:/opt/XMClib/XMC_Peripheral_Library_v2.1.16/XMCLib/src/xmc_usbd.c ****     if (ep->xferLength == 0U)
 425:/opt/XMClib/XMC_Peripheral_Library_v2.1.16/XMCLib/src/xmc_usbd.c ****     {
 426:/opt/XMClib/XMC_Peripheral_Library_v2.1.16/XMCLib/src/xmc_usbd.c ****       data.b.xfersize = 0U;
 427:/opt/XMClib/XMC_Peripheral_Library_v2.1.16/XMCLib/src/xmc_usbd.c ****       data.b.pktcnt = 1U;
 428:/opt/XMClib/XMC_Peripheral_Library_v2.1.16/XMCLib/src/xmc_usbd.c ****     }
 429:/opt/XMClib/XMC_Peripheral_Library_v2.1.16/XMCLib/src/xmc_usbd.c ****     else
 430:/opt/XMClib/XMC_Peripheral_Library_v2.1.16/XMCLib/src/xmc_usbd.c ****     {
 431:/opt/XMClib/XMC_Peripheral_Library_v2.1.16/XMCLib/src/xmc_usbd.c ****       /* setup endpoint to recive a amount of packages by given size */
 432:/opt/XMClib/XMC_Peripheral_Library_v2.1.16/XMCLib/src/xmc_usbd.c ****       data.b.pktcnt = (uint16_t)(((ep->xferLength - ep->xferCount) + (ep->maxPacketSize -(uint32_t)
 433:/opt/XMClib/XMC_Peripheral_Library_v2.1.16/XMCLib/src/xmc_usbd.c ****       data.b.xfersize =(uint32_t)(ep->xferLength - ep->xferCount);
 434:/opt/XMClib/XMC_Peripheral_Library_v2.1.16/XMCLib/src/xmc_usbd.c ****     }
 435:/opt/XMClib/XMC_Peripheral_Library_v2.1.16/XMCLib/src/xmc_usbd.c ****   }
 436:/opt/XMClib/XMC_Peripheral_Library_v2.1.16/XMCLib/src/xmc_usbd.c ****   if(usbd_init->usbd_transfer_mode == XMC_USBD_USE_DMA)
  77              		.loc 1 436 0
  78 0032 154C     		ldr	r4, .L10
  79 0034 1549     		ldr	r1, .L10+4
  80 0036 2468     		ldr	r4, [r4]
  81 0038 02F00F02 		and	r2, r2, #15
  82 003c 01EB8202 		add	r2, r1, r2, lsl #2
  83 0040 617B     		ldrb	r1, [r4, #13]	@ zero_extendqisi2
  84 0042 D2F8C421 		ldr	r2, [r2, #452]
  85 0046 09B9     		cbnz	r1, .L7
 437:/opt/XMClib/XMC_Peripheral_Library_v2.1.16/XMCLib/src/xmc_usbd.c ****   {
 438:/opt/XMClib/XMC_Peripheral_Library_v2.1.16/XMCLib/src/xmc_usbd.c ****     /* Programm dma address if needed */
 439:/opt/XMClib/XMC_Peripheral_Library_v2.1.16/XMCLib/src/xmc_usbd.c ****     xmc_device.endpoint_out_register[ep->address_u.address_st.number]->doepdma = (uint32_t)(ep->xfe
  86              		.loc 1 439 0
  87 0048 416A     		ldr	r1, [r0, #36]
  88 004a 5161     		str	r1, [r2, #20]
  89              	.L7:
 440:/opt/XMClib/XMC_Peripheral_Library_v2.1.16/XMCLib/src/xmc_usbd.c ****   }
 441:/opt/XMClib/XMC_Peripheral_Library_v2.1.16/XMCLib/src/xmc_usbd.c ****   /* setup endpoint size and enable endpoint */
 442:/opt/XMClib/XMC_Peripheral_Library_v2.1.16/XMCLib/src/xmc_usbd.c ****   xmc_device.endpoint_out_register[ep->address_u.address_st.number]->doeptsiz = data.d32;
  90              		.loc 1 442 0
  91 004c 1361     		str	r3, [r2, #16]
 443:/opt/XMClib/XMC_Peripheral_Library_v2.1.16/XMCLib/src/xmc_usbd.c ****  
 444:/opt/XMClib/XMC_Peripheral_Library_v2.1.16/XMCLib/src/xmc_usbd.c ****   epctl.d32 = xmc_device.endpoint_out_register[ep->address_u.address_st.number]->doepctl;
  92              		.loc 1 444 0
  93 004e 1368     		ldr	r3, [r2]
  94              	.LVL6:
 445:/opt/XMClib/XMC_Peripheral_Library_v2.1.16/XMCLib/src/xmc_usbd.c ****   epctl.b.cnak = 1U;
 446:/opt/XMClib/XMC_Peripheral_Library_v2.1.16/XMCLib/src/xmc_usbd.c ****   epctl.b.epena = 1U;
  95              		.loc 1 446 0
  96 0050 43F00443 		orr	r3, r3, #-2080374784
  97              	.LVL7:
 447:/opt/XMClib/XMC_Peripheral_Library_v2.1.16/XMCLib/src/xmc_usbd.c ****   xmc_device.endpoint_out_register[ep->address_u.address_st.number]->doepctl = epctl.d32;
  98              		.loc 1 447 0
  99 0054 1360     		str	r3, [r2]
 448:/opt/XMClib/XMC_Peripheral_Library_v2.1.16/XMCLib/src/xmc_usbd.c **** }
 100              		.loc 1 448 0
 101 0056 30BC     		pop	{r4, r5}
 102              	.LCFI1:
 103              		.cfi_remember_state
 104              		.cfi_restore 5
 105              		.cfi_restore 4
 106              		.cfi_def_cfa_offset 0
 107 0058 7047     		bx	lr
 108              	.LVL8:
 109              	.L4:
 110              	.LCFI2:
 111              		.cfi_restore_state
 424:/opt/XMClib/XMC_Peripheral_Library_v2.1.16/XMCLib/src/xmc_usbd.c ****     {
 112              		.loc 1 424 0
 113 005a 816A     		ldr	r1, [r0, #40]
 114 005c 29B9     		cbnz	r1, .L6
 426:/opt/XMClib/XMC_Peripheral_Library_v2.1.16/XMCLib/src/xmc_usbd.c ****       data.b.pktcnt = 1U;
 115              		.loc 1 426 0
 116 005e 61F31203 		bfi	r3, r1, #0, #19
 117              	.LVL9:
 427:/opt/XMClib/XMC_Peripheral_Library_v2.1.16/XMCLib/src/xmc_usbd.c ****     }
 118              		.loc 1 427 0
 119 0062 0121     		movs	r1, #1
 120 0064 61F3DC43 		bfi	r3, r1, #19, #10
 121 0068 E3E7     		b	.L5
 122              	.LVL10:
 123              	.L6:
 432:/opt/XMClib/XMC_Peripheral_Library_v2.1.16/XMCLib/src/xmc_usbd.c ****       data.b.xfersize =(uint32_t)(ep->xferLength - ep->xferCount);
 124              		.loc 1 432 0
 125 006a C56A     		ldr	r5, [r0, #44]
 126 006c 4468     		ldr	r4, [r0, #4]
 127 006e 491B     		subs	r1, r1, r5
 128 0070 C4F3C625 		ubfx	r5, r4, #11, #7
 129 0074 4C19     		adds	r4, r1, r5
 130 0076 013C     		subs	r4, r4, #1
 131 0078 B4FBF5F4 		udiv	r4, r4, r5
 132 007c 64F3DC43 		bfi	r3, r4, #19, #10
 133              	.LVL11:
 433:/opt/XMClib/XMC_Peripheral_Library_v2.1.16/XMCLib/src/xmc_usbd.c ****     }
 134              		.loc 1 433 0
 135 0080 61F31203 		bfi	r3, r1, #0, #19
 136 0084 D5E7     		b	.L5
 137              	.L11:
 138 0086 00BF     		.align	2
 139              	.L10:
 140 0088 00000000 		.word	usbd_init
 141 008c 00000000 		.word	xmc_device
 142              		.cfi_endproc
 143              	.LFE169:
 145              		.section	.text.XMC_USBD_lStartWriteXfer,"ax",%progbits
 146              		.align	1
 147              		.p2align 2,,3
 148              		.syntax unified
 149              		.thumb
 150              		.thumb_func
 151              		.fpu fpv4-sp-d16
 153              	XMC_USBD_lStartWriteXfer:
 154              	.LFB170:
 449:/opt/XMClib/XMC_Peripheral_Library_v2.1.16/XMCLib/src/xmc_usbd.c **** 
 450:/opt/XMClib/XMC_Peripheral_Library_v2.1.16/XMCLib/src/xmc_usbd.c **** /**
 451:/opt/XMClib/XMC_Peripheral_Library_v2.1.16/XMCLib/src/xmc_usbd.c ****  * @brief Start a new in transfer
 452:/opt/XMClib/XMC_Peripheral_Library_v2.1.16/XMCLib/src/xmc_usbd.c ****  *
 453:/opt/XMClib/XMC_Peripheral_Library_v2.1.16/XMCLib/src/xmc_usbd.c ****  * Based on the transfer values of the endpoint the in endpoint registers will be programmed
 454:/opt/XMClib/XMC_Peripheral_Library_v2.1.16/XMCLib/src/xmc_usbd.c ****  * to start a new in transfer
 455:/opt/XMClib/XMC_Peripheral_Library_v2.1.16/XMCLib/src/xmc_usbd.c ****  *
 456:/opt/XMClib/XMC_Peripheral_Library_v2.1.16/XMCLib/src/xmc_usbd.c ****  * @param[in] ep Endpoint to start the transfer
 457:/opt/XMClib/XMC_Peripheral_Library_v2.1.16/XMCLib/src/xmc_usbd.c ****  */
 458:/opt/XMClib/XMC_Peripheral_Library_v2.1.16/XMCLib/src/xmc_usbd.c **** static void XMC_USBD_lStartWriteXfer(XMC_USBD_EP_t *const ep) 
 459:/opt/XMClib/XMC_Peripheral_Library_v2.1.16/XMCLib/src/xmc_usbd.c **** {
 155              		.loc 1 459 0
 156              		.cfi_startproc
 157              		@ args = 0, pretend = 0, frame = 0
 158              		@ frame_needed = 0, uses_anonymous_args = 0
 159              	.LVL12:
 160 0000 2DE9F041 		push	{r4, r5, r6, r7, r8, lr}
 161              	.LCFI3:
 162              		.cfi_def_cfa_offset 24
 163              		.cfi_offset 4, -24
 164              		.cfi_offset 5, -20
 165              		.cfi_offset 6, -16
 166              		.cfi_offset 7, -12
 167              		.cfi_offset 8, -8
 168              		.cfi_offset 14, -4
 460:/opt/XMClib/XMC_Peripheral_Library_v2.1.16/XMCLib/src/xmc_usbd.c ****   deptsiz_data_t size;
 461:/opt/XMClib/XMC_Peripheral_Library_v2.1.16/XMCLib/src/xmc_usbd.c ****   depctl_data_t ctl;
 462:/opt/XMClib/XMC_Peripheral_Library_v2.1.16/XMCLib/src/xmc_usbd.c **** 	
 463:/opt/XMClib/XMC_Peripheral_Library_v2.1.16/XMCLib/src/xmc_usbd.c ****   size.d32 = 0U;  
 464:/opt/XMClib/XMC_Peripheral_Library_v2.1.16/XMCLib/src/xmc_usbd.c ****   ctl.d32 = xmc_device.endpoint_in_register[ep->address_u.address_st.number]->diepctl;
 169              		.loc 1 464 0
 170 0004 0678     		ldrb	r6, [r0]	@ zero_extendqisi2
 465:/opt/XMClib/XMC_Peripheral_Library_v2.1.16/XMCLib/src/xmc_usbd.c **** 
 466:/opt/XMClib/XMC_Peripheral_Library_v2.1.16/XMCLib/src/xmc_usbd.c ****   if ((ep->xferTotal - ep->xferLength)  < ep->maxTransferSize)
 171              		.loc 1 466 0
 172 0006 036B     		ldr	r3, [r0, #48]
 173 0008 D0F828E0 		ldr	lr, [r0, #40]
 174 000c 8268     		ldr	r2, [r0, #8]
 464:/opt/XMClib/XMC_Peripheral_Library_v2.1.16/XMCLib/src/xmc_usbd.c **** 
 175              		.loc 1 464 0
 176 000e DFF8B4C0 		ldr	ip, .L25+4
 177 0012 06F00F07 		and	r7, r6, #15
 178 0016 07F16A01 		add	r1, r7, #106
 179              		.loc 1 466 0
 180 001a A3EB0E08 		sub	r8, r3, lr
 181 001e C2F31202 		ubfx	r2, r2, #0, #19
 464:/opt/XMClib/XMC_Peripheral_Library_v2.1.16/XMCLib/src/xmc_usbd.c **** 
 182              		.loc 1 464 0
 183 0022 5CF82110 		ldr	r1, [ip, r1, lsl #2]
 184              		.loc 1 466 0
 185 0026 9045     		cmp	r8, r2
 467:/opt/XMClib/XMC_Peripheral_Library_v2.1.16/XMCLib/src/xmc_usbd.c ****   {
 468:/opt/XMClib/XMC_Peripheral_Library_v2.1.16/XMCLib/src/xmc_usbd.c ****     ep->xferLength = ep->xferTotal;
 469:/opt/XMClib/XMC_Peripheral_Library_v2.1.16/XMCLib/src/xmc_usbd.c ****   }
 470:/opt/XMClib/XMC_Peripheral_Library_v2.1.16/XMCLib/src/xmc_usbd.c ****   else
 471:/opt/XMClib/XMC_Peripheral_Library_v2.1.16/XMCLib/src/xmc_usbd.c ****   {
 472:/opt/XMClib/XMC_Peripheral_Library_v2.1.16/XMCLib/src/xmc_usbd.c ****     ep->xferLength += ep->maxTransferSize;
 186              		.loc 1 472 0
 187 0028 28BF     		it	cs
 188 002a 0EEB0203 		addcs	r3, lr, r2
 464:/opt/XMClib/XMC_Peripheral_Library_v2.1.16/XMCLib/src/xmc_usbd.c **** 
 189              		.loc 1 464 0
 190 002e 0C68     		ldr	r4, [r1]
 191              	.LVL13:
 192              		.loc 1 472 0
 193 0030 8362     		str	r3, [r0, #40]
 463:/opt/XMClib/XMC_Peripheral_Library_v2.1.16/XMCLib/src/xmc_usbd.c ****   ctl.d32 = xmc_device.endpoint_in_register[ep->address_u.address_st.number]->diepctl;
 194              		.loc 1 463 0
 195 0032 0025     		movs	r5, #0
 196              	.LVL14:
 473:/opt/XMClib/XMC_Peripheral_Library_v2.1.16/XMCLib/src/xmc_usbd.c ****   }
 474:/opt/XMClib/XMC_Peripheral_Library_v2.1.16/XMCLib/src/xmc_usbd.c ****   if (ep->xferLength == 0U)
 197              		.loc 1 474 0
 198 0034 002B     		cmp	r3, #0
 199 0036 37D0     		beq	.L22
 200 0038 C26A     		ldr	r2, [r0, #44]
 201 003a 9B1A     		subs	r3, r3, r2
 475:/opt/XMClib/XMC_Peripheral_Library_v2.1.16/XMCLib/src/xmc_usbd.c ****   {
 476:/opt/XMClib/XMC_Peripheral_Library_v2.1.16/XMCLib/src/xmc_usbd.c ****     size.b.xfersize = 0U;
 477:/opt/XMClib/XMC_Peripheral_Library_v2.1.16/XMCLib/src/xmc_usbd.c ****     size.b.pktcnt = 1U;
 478:/opt/XMClib/XMC_Peripheral_Library_v2.1.16/XMCLib/src/xmc_usbd.c ****   }
 479:/opt/XMClib/XMC_Peripheral_Library_v2.1.16/XMCLib/src/xmc_usbd.c ****   else
 480:/opt/XMClib/XMC_Peripheral_Library_v2.1.16/XMCLib/src/xmc_usbd.c ****   {
 481:/opt/XMClib/XMC_Peripheral_Library_v2.1.16/XMCLib/src/xmc_usbd.c ****     if (ep->address_u.address_st.number == 0U)
 202              		.loc 1 481 0
 203 003c 3207     		lsls	r2, r6, #28
 204 003e C3F3120E 		ubfx	lr, r3, #0, #19
 205 0042 18D0     		beq	.L23
 482:/opt/XMClib/XMC_Peripheral_Library_v2.1.16/XMCLib/src/xmc_usbd.c ****     {
 483:/opt/XMClib/XMC_Peripheral_Library_v2.1.16/XMCLib/src/xmc_usbd.c ****       size.b.pktcnt = 1U;
 484:/opt/XMClib/XMC_Peripheral_Library_v2.1.16/XMCLib/src/xmc_usbd.c ****       /* ep->maxXferSize equals maxPacketSize */
 485:/opt/XMClib/XMC_Peripheral_Library_v2.1.16/XMCLib/src/xmc_usbd.c ****       size.b.xfersize = (uint32_t)(ep->xferLength - ep->xferCount);
 486:/opt/XMClib/XMC_Peripheral_Library_v2.1.16/XMCLib/src/xmc_usbd.c ****     }
 487:/opt/XMClib/XMC_Peripheral_Library_v2.1.16/XMCLib/src/xmc_usbd.c ****     else
 488:/opt/XMClib/XMC_Peripheral_Library_v2.1.16/XMCLib/src/xmc_usbd.c ****     {
 489:/opt/XMClib/XMC_Peripheral_Library_v2.1.16/XMCLib/src/xmc_usbd.c ****       size.b.xfersize =(uint32_t)(ep->xferLength - ep->xferCount);
 490:/opt/XMClib/XMC_Peripheral_Library_v2.1.16/XMCLib/src/xmc_usbd.c ****       size.b.pktcnt = (uint16_t)(((uint16_t)(ep->xferLength - ep->xferCount) + (uint16_t)((uint16_t
 206              		.loc 1 490 0
 207 0044 4268     		ldr	r2, [r0, #4]
 208 0046 C2F3C622 		ubfx	r2, r2, #11, #7
 209 004a 561E     		subs	r6, r2, #1
 489:/opt/XMClib/XMC_Peripheral_Library_v2.1.16/XMCLib/src/xmc_usbd.c ****       size.b.pktcnt = (uint16_t)(((uint16_t)(ep->xferLength - ep->xferCount) + (uint16_t)((uint16_t
 210              		.loc 1 489 0
 211 004c 6EF31205 		bfi	r5, lr, #0, #19
 212              	.LVL15:
 213              		.loc 1 490 0
 214 0050 B6B2     		uxth	r6, r6
 215 0052 16FA83F3 		uxtah	r3, r6, r3
 216 0056 93FBF2F3 		sdiv	r3, r3, r2
 217 005a 63F3DC45 		bfi	r5, r3, #19, #10
 491:/opt/XMClib/XMC_Peripheral_Library_v2.1.16/XMCLib/src/xmc_usbd.c ****     		 ep->maxPacketSize);
 492:/opt/XMClib/XMC_Peripheral_Library_v2.1.16/XMCLib/src/xmc_usbd.c ****     }
 493:/opt/XMClib/XMC_Peripheral_Library_v2.1.16/XMCLib/src/xmc_usbd.c ****     if(usbd_init->usbd_transfer_mode == XMC_USBD_USE_DMA)
 218              		.loc 1 493 0
 219 005e 184B     		ldr	r3, .L25
 220 0060 1B68     		ldr	r3, [r3]
 221 0062 5B7B     		ldrb	r3, [r3, #13]	@ zero_extendqisi2
 222 0064 8BB9     		cbnz	r3, .L19
 223              	.L24:
 494:/opt/XMClib/XMC_Peripheral_Library_v2.1.16/XMCLib/src/xmc_usbd.c ****     {
 495:/opt/XMClib/XMC_Peripheral_Library_v2.1.16/XMCLib/src/xmc_usbd.c ****       /* Program dma*/
 496:/opt/XMClib/XMC_Peripheral_Library_v2.1.16/XMCLib/src/xmc_usbd.c ****       xmc_device.endpoint_in_register[ep->address_u.address_st.number]->diepdma = (uint32_t)ep->xfe
 224              		.loc 1 496 0
 225 0066 436A     		ldr	r3, [r0, #36]
 226 0068 4B61     		str	r3, [r1, #20]
 227              	.L16:
 497:/opt/XMClib/XMC_Peripheral_Library_v2.1.16/XMCLib/src/xmc_usbd.c ****     }
 498:/opt/XMClib/XMC_Peripheral_Library_v2.1.16/XMCLib/src/xmc_usbd.c ****     if(usbd_init->usbd_transfer_mode == XMC_USBD_USE_FIFO)
 499:/opt/XMClib/XMC_Peripheral_Library_v2.1.16/XMCLib/src/xmc_usbd.c ****     {
 500:/opt/XMClib/XMC_Peripheral_Library_v2.1.16/XMCLib/src/xmc_usbd.c ****       /* enable fifo empty interrupt */
 501:/opt/XMClib/XMC_Peripheral_Library_v2.1.16/XMCLib/src/xmc_usbd.c **** 			xmc_device.device_register->dtknqr4_fifoemptymsk |= (uint32_t)((uint32_t)1U << (uint8_t)ep->addr
 502:/opt/XMClib/XMC_Peripheral_Library_v2.1.16/XMCLib/src/xmc_usbd.c ****     }
 503:/opt/XMClib/XMC_Peripheral_Library_v2.1.16/XMCLib/src/xmc_usbd.c ****   }
 504:/opt/XMClib/XMC_Peripheral_Library_v2.1.16/XMCLib/src/xmc_usbd.c **** 
 505:/opt/XMClib/XMC_Peripheral_Library_v2.1.16/XMCLib/src/xmc_usbd.c ****   /* Program size of transfer and enable endpoint */
 506:/opt/XMClib/XMC_Peripheral_Library_v2.1.16/XMCLib/src/xmc_usbd.c ****   xmc_device.endpoint_in_register[ep->address_u.address_st.number]->dieptsiz = size.d32;
 507:/opt/XMClib/XMC_Peripheral_Library_v2.1.16/XMCLib/src/xmc_usbd.c ****   ctl.b.epena = 1U;
 508:/opt/XMClib/XMC_Peripheral_Library_v2.1.16/XMCLib/src/xmc_usbd.c ****   ctl.b.cnak = 1U;
 228              		.loc 1 508 0
 229 006a 44F00444 		orr	r4, r4, #-2080374784
 230              	.LVL16:
 506:/opt/XMClib/XMC_Peripheral_Library_v2.1.16/XMCLib/src/xmc_usbd.c ****   ctl.b.epena = 1U;
 231              		.loc 1 506 0
 232 006e 0D61     		str	r5, [r1, #16]
 233              	.LVL17:
 509:/opt/XMClib/XMC_Peripheral_Library_v2.1.16/XMCLib/src/xmc_usbd.c ****   xmc_device.endpoint_in_register[ep->address_u.address_st.number]->diepctl = ctl.d32;
 234              		.loc 1 509 0
 235 0070 0C60     		str	r4, [r1]
 510:/opt/XMClib/XMC_Peripheral_Library_v2.1.16/XMCLib/src/xmc_usbd.c **** }
 236              		.loc 1 510 0
 237 0072 BDE8F081 		pop	{r4, r5, r6, r7, r8, pc}
 238              	.LVL18:
 239              	.L23:
 483:/opt/XMClib/XMC_Peripheral_Library_v2.1.16/XMCLib/src/xmc_usbd.c ****       /* ep->maxXferSize equals maxPacketSize */
 240              		.loc 1 483 0
 241 0076 0123     		movs	r3, #1
 242 0078 63F3DC45 		bfi	r5, r3, #19, #10
 243              	.LVL19:
 493:/opt/XMClib/XMC_Peripheral_Library_v2.1.16/XMCLib/src/xmc_usbd.c ****     {
 244              		.loc 1 493 0
 245 007c 104B     		ldr	r3, .L25
 246 007e 1B68     		ldr	r3, [r3]
 247 0080 5B7B     		ldrb	r3, [r3, #13]	@ zero_extendqisi2
 485:/opt/XMClib/XMC_Peripheral_Library_v2.1.16/XMCLib/src/xmc_usbd.c ****     }
 248              		.loc 1 485 0
 249 0082 6EF31205 		bfi	r5, lr, #0, #19
 493:/opt/XMClib/XMC_Peripheral_Library_v2.1.16/XMCLib/src/xmc_usbd.c ****     {
 250              		.loc 1 493 0
 251 0086 002B     		cmp	r3, #0
 252 0088 EDD0     		beq	.L24
 253              	.L19:
 498:/opt/XMClib/XMC_Peripheral_Library_v2.1.16/XMCLib/src/xmc_usbd.c ****     {
 254              		.loc 1 498 0
 255 008a 012B     		cmp	r3, #1
 256 008c EDD1     		bne	.L16
 501:/opt/XMClib/XMC_Peripheral_Library_v2.1.16/XMCLib/src/xmc_usbd.c ****     }
 257              		.loc 1 501 0
 258 008e DCF8A421 		ldr	r2, [ip, #420]
 259 0092 506B     		ldr	r0, [r2, #52]
 260              	.LVL20:
 261 0094 03FA07F7 		lsl	r7, r3, r7
 262 0098 0743     		orrs	r7, r7, r0
 508:/opt/XMClib/XMC_Peripheral_Library_v2.1.16/XMCLib/src/xmc_usbd.c ****   xmc_device.endpoint_in_register[ep->address_u.address_st.number]->diepctl = ctl.d32;
 263              		.loc 1 508 0
 264 009a 44F00444 		orr	r4, r4, #-2080374784
 265              	.LVL21:
 501:/opt/XMClib/XMC_Peripheral_Library_v2.1.16/XMCLib/src/xmc_usbd.c ****     }
 266              		.loc 1 501 0
 267 009e 5763     		str	r7, [r2, #52]
 506:/opt/XMClib/XMC_Peripheral_Library_v2.1.16/XMCLib/src/xmc_usbd.c ****   ctl.b.epena = 1U;
 268              		.loc 1 506 0
 269 00a0 0D61     		str	r5, [r1, #16]
 270              	.LVL22:
 509:/opt/XMClib/XMC_Peripheral_Library_v2.1.16/XMCLib/src/xmc_usbd.c **** }
 271              		.loc 1 509 0
 272 00a2 0C60     		str	r4, [r1]
 273              		.loc 1 510 0
 274 00a4 BDE8F081 		pop	{r4, r5, r6, r7, r8, pc}
 275              	.LVL23:
 276              	.L22:
 476:/opt/XMClib/XMC_Peripheral_Library_v2.1.16/XMCLib/src/xmc_usbd.c ****     size.b.pktcnt = 1U;
 277              		.loc 1 476 0
 278 00a8 63F31205 		bfi	r5, r3, #0, #19
 279              	.LVL24:
 477:/opt/XMClib/XMC_Peripheral_Library_v2.1.16/XMCLib/src/xmc_usbd.c ****   }
 280              		.loc 1 477 0
 281 00ac 0123     		movs	r3, #1
 282 00ae 63F3DC45 		bfi	r5, r3, #19, #10
 508:/opt/XMClib/XMC_Peripheral_Library_v2.1.16/XMCLib/src/xmc_usbd.c ****   xmc_device.endpoint_in_register[ep->address_u.address_st.number]->diepctl = ctl.d32;
 283              		.loc 1 508 0
 284 00b2 44F00444 		orr	r4, r4, #-2080374784
 285              	.LVL25:
 506:/opt/XMClib/XMC_Peripheral_Library_v2.1.16/XMCLib/src/xmc_usbd.c ****   ctl.b.epena = 1U;
 286              		.loc 1 506 0
 287 00b6 0D61     		str	r5, [r1, #16]
 288              	.LVL26:
 509:/opt/XMClib/XMC_Peripheral_Library_v2.1.16/XMCLib/src/xmc_usbd.c **** }
 289              		.loc 1 509 0
 290 00b8 0C60     		str	r4, [r1]
 291              		.loc 1 510 0
 292 00ba BDE8F081 		pop	{r4, r5, r6, r7, r8, pc}
 293              	.LVL27:
 294              	.L26:
 295 00be 00BF     		.align	2
 296              	.L25:
 297 00c0 00000000 		.word	usbd_init
 298 00c4 00000000 		.word	xmc_device
 299              		.cfi_endproc
 300              	.LFE170:
 302              		.section	.text.XMC_USBD_GetCapabilities,"ax",%progbits
 303              		.align	1
 304              		.p2align 2,,3
 305              		.global	XMC_USBD_GetCapabilities
 306              		.syntax unified
 307              		.thumb
 308              		.thumb_func
 309              		.fpu fpv4-sp-d16
 311              	XMC_USBD_GetCapabilities:
 312              	.LFB186:
 511:/opt/XMClib/XMC_Peripheral_Library_v2.1.16/XMCLib/src/xmc_usbd.c **** 
 512:/opt/XMClib/XMC_Peripheral_Library_v2.1.16/XMCLib/src/xmc_usbd.c **** 
 513:/opt/XMClib/XMC_Peripheral_Library_v2.1.16/XMCLib/src/xmc_usbd.c **** /**
 514:/opt/XMClib/XMC_Peripheral_Library_v2.1.16/XMCLib/src/xmc_usbd.c ****  * @brief Handles the USBD reset interrupt
 515:/opt/XMClib/XMC_Peripheral_Library_v2.1.16/XMCLib/src/xmc_usbd.c ****  *
 516:/opt/XMClib/XMC_Peripheral_Library_v2.1.16/XMCLib/src/xmc_usbd.c ****  * When ever the host sets the bus into reset condition the usb otg_core generates
 517:/opt/XMClib/XMC_Peripheral_Library_v2.1.16/XMCLib/src/xmc_usbd.c ****  * an interrupt, which is handled by this function. It resets the complete otg_core
 518:/opt/XMClib/XMC_Peripheral_Library_v2.1.16/XMCLib/src/xmc_usbd.c ****  * into the default state.
 519:/opt/XMClib/XMC_Peripheral_Library_v2.1.16/XMCLib/src/xmc_usbd.c ****  */
 520:/opt/XMClib/XMC_Peripheral_Library_v2.1.16/XMCLib/src/xmc_usbd.c **** static void XMC_USBD_lHandleUSBReset(const XMC_USBD_t *const obj) 
 521:/opt/XMClib/XMC_Peripheral_Library_v2.1.16/XMCLib/src/xmc_usbd.c **** {
 522:/opt/XMClib/XMC_Peripheral_Library_v2.1.16/XMCLib/src/xmc_usbd.c ****   uint32_t i;
 523:/opt/XMClib/XMC_Peripheral_Library_v2.1.16/XMCLib/src/xmc_usbd.c ****   depctl_data_t epctl;
 524:/opt/XMClib/XMC_Peripheral_Library_v2.1.16/XMCLib/src/xmc_usbd.c ****   dctl_data_t dctl;
 525:/opt/XMClib/XMC_Peripheral_Library_v2.1.16/XMCLib/src/xmc_usbd.c ****   fifosize_data_t gnptxfsiz;
 526:/opt/XMClib/XMC_Peripheral_Library_v2.1.16/XMCLib/src/xmc_usbd.c ****   daint_data_t daint;
 527:/opt/XMClib/XMC_Peripheral_Library_v2.1.16/XMCLib/src/xmc_usbd.c ****   dcfg_data_t dcfg;
 528:/opt/XMClib/XMC_Peripheral_Library_v2.1.16/XMCLib/src/xmc_usbd.c **** 	
 529:/opt/XMClib/XMC_Peripheral_Library_v2.1.16/XMCLib/src/xmc_usbd.c ****   /* Clear the Remote Wakeup Signaling */
 530:/opt/XMClib/XMC_Peripheral_Library_v2.1.16/XMCLib/src/xmc_usbd.c ****   dctl.d32 = xmc_device.device_register->dctl;
 531:/opt/XMClib/XMC_Peripheral_Library_v2.1.16/XMCLib/src/xmc_usbd.c ****   dctl.b.rmtwkupsig = 1U;
 532:/opt/XMClib/XMC_Peripheral_Library_v2.1.16/XMCLib/src/xmc_usbd.c ****   xmc_device.device_register->dctl = dctl.d32;
 533:/opt/XMClib/XMC_Peripheral_Library_v2.1.16/XMCLib/src/xmc_usbd.c **** 
 534:/opt/XMClib/XMC_Peripheral_Library_v2.1.16/XMCLib/src/xmc_usbd.c ****   /* enable naks for all eps */
 535:/opt/XMClib/XMC_Peripheral_Library_v2.1.16/XMCLib/src/xmc_usbd.c ****   for (i = 0U;i < (uint8_t)XMC_USBD_NUM_EPS;i++)
 536:/opt/XMClib/XMC_Peripheral_Library_v2.1.16/XMCLib/src/xmc_usbd.c ****   {
 537:/opt/XMClib/XMC_Peripheral_Library_v2.1.16/XMCLib/src/xmc_usbd.c ****     epctl.d32 = xmc_device.endpoint_out_register[i]->doepctl;
 538:/opt/XMClib/XMC_Peripheral_Library_v2.1.16/XMCLib/src/xmc_usbd.c **** 		epctl.b.snak = 1U;
 539:/opt/XMClib/XMC_Peripheral_Library_v2.1.16/XMCLib/src/xmc_usbd.c **** 		epctl.b.stall = 0U;
 540:/opt/XMClib/XMC_Peripheral_Library_v2.1.16/XMCLib/src/xmc_usbd.c **** 		xmc_device.endpoint_out_register[i]->doepctl = epctl.d32;
 541:/opt/XMClib/XMC_Peripheral_Library_v2.1.16/XMCLib/src/xmc_usbd.c ****   }
 542:/opt/XMClib/XMC_Peripheral_Library_v2.1.16/XMCLib/src/xmc_usbd.c **** 
 543:/opt/XMClib/XMC_Peripheral_Library_v2.1.16/XMCLib/src/xmc_usbd.c ****   /* Configure fifos */
 544:/opt/XMClib/XMC_Peripheral_Library_v2.1.16/XMCLib/src/xmc_usbd.c ****   /* Calculate the size of the rx fifo */
 545:/opt/XMClib/XMC_Peripheral_Library_v2.1.16/XMCLib/src/xmc_usbd.c ****   xmc_device.global_register->grxfsiz = 64U;
 546:/opt/XMClib/XMC_Peripheral_Library_v2.1.16/XMCLib/src/xmc_usbd.c ****   /* Calculate the size of the tx fifo for ep 0 */  
 547:/opt/XMClib/XMC_Peripheral_Library_v2.1.16/XMCLib/src/xmc_usbd.c ****   gnptxfsiz.d32 = 0U;
 548:/opt/XMClib/XMC_Peripheral_Library_v2.1.16/XMCLib/src/xmc_usbd.c ****   gnptxfsiz.b.depth = 16U;
 549:/opt/XMClib/XMC_Peripheral_Library_v2.1.16/XMCLib/src/xmc_usbd.c ****   gnptxfsiz.b.startaddr = 64U;
 550:/opt/XMClib/XMC_Peripheral_Library_v2.1.16/XMCLib/src/xmc_usbd.c ****   xmc_device.global_register->gnptxfsiz = gnptxfsiz.d32;
 551:/opt/XMClib/XMC_Peripheral_Library_v2.1.16/XMCLib/src/xmc_usbd.c ****   /* calculate the size for the rest */
 552:/opt/XMClib/XMC_Peripheral_Library_v2.1.16/XMCLib/src/xmc_usbd.c ****   for (i = 1U;i < (uint8_t)XMC_USBD_NUM_TX_FIFOS;i++)
 553:/opt/XMClib/XMC_Peripheral_Library_v2.1.16/XMCLib/src/xmc_usbd.c ****   {
 554:/opt/XMClib/XMC_Peripheral_Library_v2.1.16/XMCLib/src/xmc_usbd.c ****     xmc_device.global_register->dtxfsiz[i- 1U] = (uint32_t)(((256U + (i*(64U)))/4U) | ((uint32_t)16
 555:/opt/XMClib/XMC_Peripheral_Library_v2.1.16/XMCLib/src/xmc_usbd.c ****   }
 556:/opt/XMClib/XMC_Peripheral_Library_v2.1.16/XMCLib/src/xmc_usbd.c **** 
 557:/opt/XMClib/XMC_Peripheral_Library_v2.1.16/XMCLib/src/xmc_usbd.c ****   /* flush the fifos for proper operation */
 558:/opt/XMClib/XMC_Peripheral_Library_v2.1.16/XMCLib/src/xmc_usbd.c ****   XMC_USBD_lFlushTXFifo(0x10U); /* 0x10 == all fifos, see doc */
 559:/opt/XMClib/XMC_Peripheral_Library_v2.1.16/XMCLib/src/xmc_usbd.c ****   XMC_USBD_lFlushTXFifo(0x0U);
 560:/opt/XMClib/XMC_Peripheral_Library_v2.1.16/XMCLib/src/xmc_usbd.c ****   XMC_USBD_lFlushRXFifo();
 561:/opt/XMClib/XMC_Peripheral_Library_v2.1.16/XMCLib/src/xmc_usbd.c ****   /* Flush learning queue not needed due to fifo config */
 562:/opt/XMClib/XMC_Peripheral_Library_v2.1.16/XMCLib/src/xmc_usbd.c ****   /* enable ep0 interrupts */  
 563:/opt/XMClib/XMC_Peripheral_Library_v2.1.16/XMCLib/src/xmc_usbd.c ****   daint.d32 = 0U;
 564:/opt/XMClib/XMC_Peripheral_Library_v2.1.16/XMCLib/src/xmc_usbd.c ****   daint.b.inep0 = 1U;
 565:/opt/XMClib/XMC_Peripheral_Library_v2.1.16/XMCLib/src/xmc_usbd.c ****   daint.b.outep0 = 1U;
 566:/opt/XMClib/XMC_Peripheral_Library_v2.1.16/XMCLib/src/xmc_usbd.c ****   xmc_device.device_register->daintmsk = daint.d32;
 567:/opt/XMClib/XMC_Peripheral_Library_v2.1.16/XMCLib/src/xmc_usbd.c **** 
 568:/opt/XMClib/XMC_Peripheral_Library_v2.1.16/XMCLib/src/xmc_usbd.c ****   /* enable endpoint interrupts */
 569:/opt/XMClib/XMC_Peripheral_Library_v2.1.16/XMCLib/src/xmc_usbd.c ****   /* out ep interrupts */
 570:/opt/XMClib/XMC_Peripheral_Library_v2.1.16/XMCLib/src/xmc_usbd.c ****   XMC_USBD_EnableEventOUTEP(((uint32_t)XMC_USBD_EVENT_OUT_EP_TX_COMPLET | (uint32_t)XMC_USBD_EVENT_
 571:/opt/XMClib/XMC_Peripheral_Library_v2.1.16/XMCLib/src/xmc_usbd.c **** 		  	  	  	  	  	  (uint32_t)XMC_USBD_EVENT_OUT_EP_SETUP | (uint32_t)XMC_USBD_EVENT_OUT_EP_AHB_ERRO
 572:/opt/XMClib/XMC_Peripheral_Library_v2.1.16/XMCLib/src/xmc_usbd.c **** 
 573:/opt/XMClib/XMC_Peripheral_Library_v2.1.16/XMCLib/src/xmc_usbd.c ****   /*in ep interrupts */
 574:/opt/XMClib/XMC_Peripheral_Library_v2.1.16/XMCLib/src/xmc_usbd.c ****   XMC_USBD_EnableEventINEP(((uint32_t)XMC_USBD_EVENT_IN_EP_TX_COMPLET | (uint32_t)XMC_USBD_EVENT_IN
 575:/opt/XMClib/XMC_Peripheral_Library_v2.1.16/XMCLib/src/xmc_usbd.c **** 		  (uint32_t)XMC_USBD_EVENT_IN_EP_AHB_ERROR | (uint32_t)XMC_USBD_EVENT_IN_EP_TIMEOUT));
 576:/opt/XMClib/XMC_Peripheral_Library_v2.1.16/XMCLib/src/xmc_usbd.c **** 
 577:/opt/XMClib/XMC_Peripheral_Library_v2.1.16/XMCLib/src/xmc_usbd.c **** 
 578:/opt/XMClib/XMC_Peripheral_Library_v2.1.16/XMCLib/src/xmc_usbd.c ****   /* Clear device Address */  
 579:/opt/XMClib/XMC_Peripheral_Library_v2.1.16/XMCLib/src/xmc_usbd.c ****   dcfg.d32 = xmc_device.device_register->dcfg;
 580:/opt/XMClib/XMC_Peripheral_Library_v2.1.16/XMCLib/src/xmc_usbd.c ****   dcfg.b.devaddr = 0U;
 581:/opt/XMClib/XMC_Peripheral_Library_v2.1.16/XMCLib/src/xmc_usbd.c ****   xmc_device.device_register->dcfg = dcfg.d32;
 582:/opt/XMClib/XMC_Peripheral_Library_v2.1.16/XMCLib/src/xmc_usbd.c **** 
 583:/opt/XMClib/XMC_Peripheral_Library_v2.1.16/XMCLib/src/xmc_usbd.c ****   if(obj->usbd_transfer_mode == XMC_USBD_USE_FIFO)
 584:/opt/XMClib/XMC_Peripheral_Library_v2.1.16/XMCLib/src/xmc_usbd.c ****   {
 585:/opt/XMClib/XMC_Peripheral_Library_v2.1.16/XMCLib/src/xmc_usbd.c ****     /* Clear Empty interrupt */
 586:/opt/XMClib/XMC_Peripheral_Library_v2.1.16/XMCLib/src/xmc_usbd.c ****     xmc_device.device_register->dtknqr4_fifoemptymsk = 0U;
 587:/opt/XMClib/XMC_Peripheral_Library_v2.1.16/XMCLib/src/xmc_usbd.c ****   }
 588:/opt/XMClib/XMC_Peripheral_Library_v2.1.16/XMCLib/src/xmc_usbd.c **** 
 589:/opt/XMClib/XMC_Peripheral_Library_v2.1.16/XMCLib/src/xmc_usbd.c ****   xmc_device.ep[0U].outInUse = 0U;
 590:/opt/XMClib/XMC_Peripheral_Library_v2.1.16/XMCLib/src/xmc_usbd.c ****   xmc_device.ep[0U].inInUse = 0U;
 591:/opt/XMClib/XMC_Peripheral_Library_v2.1.16/XMCLib/src/xmc_usbd.c **** 
 592:/opt/XMClib/XMC_Peripheral_Library_v2.1.16/XMCLib/src/xmc_usbd.c ****   xmc_device.DeviceEvent_cb(XMC_USBD_EVENT_RESET);
 593:/opt/XMClib/XMC_Peripheral_Library_v2.1.16/XMCLib/src/xmc_usbd.c **** 
 594:/opt/XMClib/XMC_Peripheral_Library_v2.1.16/XMCLib/src/xmc_usbd.c ****   /* clear reset intr */
 595:/opt/XMClib/XMC_Peripheral_Library_v2.1.16/XMCLib/src/xmc_usbd.c ****   XMC_USBD_ClearEvent(XMC_USBD_EVENT_RESET);
 596:/opt/XMClib/XMC_Peripheral_Library_v2.1.16/XMCLib/src/xmc_usbd.c **** }
 597:/opt/XMClib/XMC_Peripheral_Library_v2.1.16/XMCLib/src/xmc_usbd.c **** 
 598:/opt/XMClib/XMC_Peripheral_Library_v2.1.16/XMCLib/src/xmc_usbd.c **** /**
 599:/opt/XMClib/XMC_Peripheral_Library_v2.1.16/XMCLib/src/xmc_usbd.c **** * @brief Handle OTG Interrupt
 600:/opt/XMClib/XMC_Peripheral_Library_v2.1.16/XMCLib/src/xmc_usbd.c **** *
 601:/opt/XMClib/XMC_Peripheral_Library_v2.1.16/XMCLib/src/xmc_usbd.c **** * It detects especially connect and disconnect events.
 602:/opt/XMClib/XMC_Peripheral_Library_v2.1.16/XMCLib/src/xmc_usbd.c **** */
 603:/opt/XMClib/XMC_Peripheral_Library_v2.1.16/XMCLib/src/xmc_usbd.c **** static void XMC_USBD_lHandleOTGInt(void) 
 604:/opt/XMClib/XMC_Peripheral_Library_v2.1.16/XMCLib/src/xmc_usbd.c **** {
 605:/opt/XMClib/XMC_Peripheral_Library_v2.1.16/XMCLib/src/xmc_usbd.c ****   gotgint_data_t data;
 606:/opt/XMClib/XMC_Peripheral_Library_v2.1.16/XMCLib/src/xmc_usbd.c ****   data.d32 = xmc_device.global_register->gotgint;
 607:/opt/XMClib/XMC_Peripheral_Library_v2.1.16/XMCLib/src/xmc_usbd.c ****   if (data.b.sesenddet)
 608:/opt/XMClib/XMC_Peripheral_Library_v2.1.16/XMCLib/src/xmc_usbd.c ****   {
 609:/opt/XMClib/XMC_Peripheral_Library_v2.1.16/XMCLib/src/xmc_usbd.c **** 		xmc_device.IsPowered = 0U;
 610:/opt/XMClib/XMC_Peripheral_Library_v2.1.16/XMCLib/src/xmc_usbd.c **** 		xmc_device.DeviceEvent_cb(XMC_USBD_EVENT_POWER_OFF);
 611:/opt/XMClib/XMC_Peripheral_Library_v2.1.16/XMCLib/src/xmc_usbd.c ****   }
 612:/opt/XMClib/XMC_Peripheral_Library_v2.1.16/XMCLib/src/xmc_usbd.c ****   XMC_USBD_lClearEventOTG(data.d32);
 613:/opt/XMClib/XMC_Peripheral_Library_v2.1.16/XMCLib/src/xmc_usbd.c **** 
 614:/opt/XMClib/XMC_Peripheral_Library_v2.1.16/XMCLib/src/xmc_usbd.c **** }
 615:/opt/XMClib/XMC_Peripheral_Library_v2.1.16/XMCLib/src/xmc_usbd.c **** 
 616:/opt/XMClib/XMC_Peripheral_Library_v2.1.16/XMCLib/src/xmc_usbd.c **** /**
 617:/opt/XMClib/XMC_Peripheral_Library_v2.1.16/XMCLib/src/xmc_usbd.c ****  * @brief Interrupt handler for device enumeration done.
 618:/opt/XMClib/XMC_Peripheral_Library_v2.1.16/XMCLib/src/xmc_usbd.c ****  *
 619:/opt/XMClib/XMC_Peripheral_Library_v2.1.16/XMCLib/src/xmc_usbd.c ****  * Handles the enumeration done from dwc_otg, when the host has enumerated the device.
 620:/opt/XMClib/XMC_Peripheral_Library_v2.1.16/XMCLib/src/xmc_usbd.c ****  */
 621:/opt/XMClib/XMC_Peripheral_Library_v2.1.16/XMCLib/src/xmc_usbd.c **** static void XMC_USBD_lHandleEnumDone(void) 
 622:/opt/XMClib/XMC_Peripheral_Library_v2.1.16/XMCLib/src/xmc_usbd.c **** {
 623:/opt/XMClib/XMC_Peripheral_Library_v2.1.16/XMCLib/src/xmc_usbd.c ****   /* Normaly we need to check dctl
 624:/opt/XMClib/XMC_Peripheral_Library_v2.1.16/XMCLib/src/xmc_usbd.c ****    * We are always fullspeed, so max it up. */
 625:/opt/XMClib/XMC_Peripheral_Library_v2.1.16/XMCLib/src/xmc_usbd.c ****   depctl_data_t epctl;
 626:/opt/XMClib/XMC_Peripheral_Library_v2.1.16/XMCLib/src/xmc_usbd.c ****   gusbcfg_data_t gusbcfg;
 627:/opt/XMClib/XMC_Peripheral_Library_v2.1.16/XMCLib/src/xmc_usbd.c **** 	
 628:/opt/XMClib/XMC_Peripheral_Library_v2.1.16/XMCLib/src/xmc_usbd.c ****   epctl.d32=xmc_device.endpoint_in_register[0U]->diepctl;
 629:/opt/XMClib/XMC_Peripheral_Library_v2.1.16/XMCLib/src/xmc_usbd.c ****   epctl.b.mps = 0x00U; /* 64 Byte, this is also automatically set for out ep */
 630:/opt/XMClib/XMC_Peripheral_Library_v2.1.16/XMCLib/src/xmc_usbd.c ****   xmc_device.endpoint_in_register[0U]->diepctl = epctl.d32;
 631:/opt/XMClib/XMC_Peripheral_Library_v2.1.16/XMCLib/src/xmc_usbd.c **** 
 632:/opt/XMClib/XMC_Peripheral_Library_v2.1.16/XMCLib/src/xmc_usbd.c ****   /* update device connected flag */
 633:/opt/XMClib/XMC_Peripheral_Library_v2.1.16/XMCLib/src/xmc_usbd.c ****   xmc_device.IsConnected = 1U;
 634:/opt/XMClib/XMC_Peripheral_Library_v2.1.16/XMCLib/src/xmc_usbd.c ****   xmc_device.IsPowered = 1U;
 635:/opt/XMClib/XMC_Peripheral_Library_v2.1.16/XMCLib/src/xmc_usbd.c **** 
 636:/opt/XMClib/XMC_Peripheral_Library_v2.1.16/XMCLib/src/xmc_usbd.c ****   xmc_device.DeviceEvent_cb(XMC_USBD_EVENT_CONNECT);
 637:/opt/XMClib/XMC_Peripheral_Library_v2.1.16/XMCLib/src/xmc_usbd.c **** 
 638:/opt/XMClib/XMC_Peripheral_Library_v2.1.16/XMCLib/src/xmc_usbd.c ****   /* Set Trim */  
 639:/opt/XMClib/XMC_Peripheral_Library_v2.1.16/XMCLib/src/xmc_usbd.c ****   gusbcfg.d32 = xmc_device.global_register->gusbcfg;
 640:/opt/XMClib/XMC_Peripheral_Library_v2.1.16/XMCLib/src/xmc_usbd.c ****   gusbcfg.b.usbtrdtim = 9U; /* default value for LS/FS */
 641:/opt/XMClib/XMC_Peripheral_Library_v2.1.16/XMCLib/src/xmc_usbd.c ****   xmc_device.global_register->gusbcfg = gusbcfg.d32;
 642:/opt/XMClib/XMC_Peripheral_Library_v2.1.16/XMCLib/src/xmc_usbd.c **** 
 643:/opt/XMClib/XMC_Peripheral_Library_v2.1.16/XMCLib/src/xmc_usbd.c ****   /* clear interrupt */
 644:/opt/XMClib/XMC_Peripheral_Library_v2.1.16/XMCLib/src/xmc_usbd.c ****   XMC_USBD_ClearEvent(XMC_USBD_EVENT_ENUMDONE);
 645:/opt/XMClib/XMC_Peripheral_Library_v2.1.16/XMCLib/src/xmc_usbd.c **** }
 646:/opt/XMClib/XMC_Peripheral_Library_v2.1.16/XMCLib/src/xmc_usbd.c **** 
 647:/opt/XMClib/XMC_Peripheral_Library_v2.1.16/XMCLib/src/xmc_usbd.c **** 
 648:/opt/XMClib/XMC_Peripheral_Library_v2.1.16/XMCLib/src/xmc_usbd.c **** /**
 649:/opt/XMClib/XMC_Peripheral_Library_v2.1.16/XMCLib/src/xmc_usbd.c ****  * @brief Handles all interrupts for all out endpoints
 650:/opt/XMClib/XMC_Peripheral_Library_v2.1.16/XMCLib/src/xmc_usbd.c ****  *
 651:/opt/XMClib/XMC_Peripheral_Library_v2.1.16/XMCLib/src/xmc_usbd.c ****  * The interrupt handler first checks, which endpoint has caused the interrupt and then
 652:/opt/XMClib/XMC_Peripheral_Library_v2.1.16/XMCLib/src/xmc_usbd.c ****  * determines, which interrupt should be handled.
 653:/opt/XMClib/XMC_Peripheral_Library_v2.1.16/XMCLib/src/xmc_usbd.c ****  */
 654:/opt/XMClib/XMC_Peripheral_Library_v2.1.16/XMCLib/src/xmc_usbd.c **** static void XMC_USBD_lHandleOEPInt(const XMC_USBD_t *const obj) 
 655:/opt/XMClib/XMC_Peripheral_Library_v2.1.16/XMCLib/src/xmc_usbd.c **** {
 656:/opt/XMClib/XMC_Peripheral_Library_v2.1.16/XMCLib/src/xmc_usbd.c ****   daint_data_t daint;
 657:/opt/XMClib/XMC_Peripheral_Library_v2.1.16/XMCLib/src/xmc_usbd.c ****   daint_data_t daintmsk;
 658:/opt/XMClib/XMC_Peripheral_Library_v2.1.16/XMCLib/src/xmc_usbd.c ****   doepmsk_data_t doepmsk;
 659:/opt/XMClib/XMC_Peripheral_Library_v2.1.16/XMCLib/src/xmc_usbd.c ****   doepint_data_t doepint;
 660:/opt/XMClib/XMC_Peripheral_Library_v2.1.16/XMCLib/src/xmc_usbd.c ****   deptsiz_data_t doeptsiz;
 661:/opt/XMClib/XMC_Peripheral_Library_v2.1.16/XMCLib/src/xmc_usbd.c ****   XMC_USBD_EP_t *ep;
 662:/opt/XMClib/XMC_Peripheral_Library_v2.1.16/XMCLib/src/xmc_usbd.c ****   uint16_t temp;
 663:/opt/XMClib/XMC_Peripheral_Library_v2.1.16/XMCLib/src/xmc_usbd.c ****   uint16_t temp1;
 664:/opt/XMClib/XMC_Peripheral_Library_v2.1.16/XMCLib/src/xmc_usbd.c ****   uint16_t mask;
 665:/opt/XMClib/XMC_Peripheral_Library_v2.1.16/XMCLib/src/xmc_usbd.c ****   uint8_t ep_num;
 666:/opt/XMClib/XMC_Peripheral_Library_v2.1.16/XMCLib/src/xmc_usbd.c **** 	
 667:/opt/XMClib/XMC_Peripheral_Library_v2.1.16/XMCLib/src/xmc_usbd.c ****   daint.d32 = xmc_device.device_register->daint;
 668:/opt/XMClib/XMC_Peripheral_Library_v2.1.16/XMCLib/src/xmc_usbd.c ****   
 669:/opt/XMClib/XMC_Peripheral_Library_v2.1.16/XMCLib/src/xmc_usbd.c ****   daintmsk.d32 = xmc_device.device_register->daintmsk;
 670:/opt/XMClib/XMC_Peripheral_Library_v2.1.16/XMCLib/src/xmc_usbd.c ****   
 671:/opt/XMClib/XMC_Peripheral_Library_v2.1.16/XMCLib/src/xmc_usbd.c ****   doepmsk.d32 = xmc_device.device_register->doepmsk;  
 672:/opt/XMClib/XMC_Peripheral_Library_v2.1.16/XMCLib/src/xmc_usbd.c ****   
 673:/opt/XMClib/XMC_Peripheral_Library_v2.1.16/XMCLib/src/xmc_usbd.c ****   mask = daint.ep.out & daintmsk.ep.out;
 674:/opt/XMClib/XMC_Peripheral_Library_v2.1.16/XMCLib/src/xmc_usbd.c ****   ep_num = 0U;
 675:/opt/XMClib/XMC_Peripheral_Library_v2.1.16/XMCLib/src/xmc_usbd.c ****   doeptsiz.d32 = 0U;
 676:/opt/XMClib/XMC_Peripheral_Library_v2.1.16/XMCLib/src/xmc_usbd.c ****  
 677:/opt/XMClib/XMC_Peripheral_Library_v2.1.16/XMCLib/src/xmc_usbd.c ****   while ((uint16_t)mask >> ep_num)
 678:/opt/XMClib/XMC_Peripheral_Library_v2.1.16/XMCLib/src/xmc_usbd.c ****   {
 679:/opt/XMClib/XMC_Peripheral_Library_v2.1.16/XMCLib/src/xmc_usbd.c ****     temp1 = (mask >> (uint16_t)ep_num);
 680:/opt/XMClib/XMC_Peripheral_Library_v2.1.16/XMCLib/src/xmc_usbd.c ****     temp = temp1 & 0x1U;
 681:/opt/XMClib/XMC_Peripheral_Library_v2.1.16/XMCLib/src/xmc_usbd.c ****     if (temp)
 682:/opt/XMClib/XMC_Peripheral_Library_v2.1.16/XMCLib/src/xmc_usbd.c ****     {
 683:/opt/XMClib/XMC_Peripheral_Library_v2.1.16/XMCLib/src/xmc_usbd.c ****       /* load register data for endpoint */
 684:/opt/XMClib/XMC_Peripheral_Library_v2.1.16/XMCLib/src/xmc_usbd.c ****       ep = &xmc_device.ep[ep_num];
 685:/opt/XMClib/XMC_Peripheral_Library_v2.1.16/XMCLib/src/xmc_usbd.c ****       doepint.d32 = xmc_device.endpoint_out_register[ep_num]->doepint & doepmsk.d32;
 686:/opt/XMClib/XMC_Peripheral_Library_v2.1.16/XMCLib/src/xmc_usbd.c ****       if(obj->usbd_transfer_mode == XMC_USBD_USE_DMA)
 687:/opt/XMClib/XMC_Peripheral_Library_v2.1.16/XMCLib/src/xmc_usbd.c ****       {
 688:/opt/XMClib/XMC_Peripheral_Library_v2.1.16/XMCLib/src/xmc_usbd.c ****         doeptsiz.d32 = xmc_device.endpoint_out_register[ep_num]->doeptsiz;
 689:/opt/XMClib/XMC_Peripheral_Library_v2.1.16/XMCLib/src/xmc_usbd.c ****       }
 690:/opt/XMClib/XMC_Peripheral_Library_v2.1.16/XMCLib/src/xmc_usbd.c **** 	  /* Setup Phase Complete */
 691:/opt/XMClib/XMC_Peripheral_Library_v2.1.16/XMCLib/src/xmc_usbd.c ****       if (doepint.b.setup)
 692:/opt/XMClib/XMC_Peripheral_Library_v2.1.16/XMCLib/src/xmc_usbd.c ****       {
 693:/opt/XMClib/XMC_Peripheral_Library_v2.1.16/XMCLib/src/xmc_usbd.c ****         /* ep0 not stalled any more */
 694:/opt/XMClib/XMC_Peripheral_Library_v2.1.16/XMCLib/src/xmc_usbd.c ****         ep->isStalled = 0U;
 695:/opt/XMClib/XMC_Peripheral_Library_v2.1.16/XMCLib/src/xmc_usbd.c ****         if(obj->usbd_transfer_mode == XMC_USBD_USE_DMA)
 696:/opt/XMClib/XMC_Peripheral_Library_v2.1.16/XMCLib/src/xmc_usbd.c ****         {
 697:/opt/XMClib/XMC_Peripheral_Library_v2.1.16/XMCLib/src/xmc_usbd.c ****           /* calculate size for setup packet */
 698:/opt/XMClib/XMC_Peripheral_Library_v2.1.16/XMCLib/src/xmc_usbd.c **** 		  ep->outBytesAvailable = (uint32_t)(((uint32_t)XMC_USBD_SETUP_COUNT -
 699:/opt/XMClib/XMC_Peripheral_Library_v2.1.16/XMCLib/src/xmc_usbd.c **** 		  (uint32_t)((deptsiz0_data_t*)&doeptsiz)->b.supcnt)*(uint32_t)XMC_USBD_SETUP_SIZE);
 700:/opt/XMClib/XMC_Peripheral_Library_v2.1.16/XMCLib/src/xmc_usbd.c ****         }
 701:/opt/XMClib/XMC_Peripheral_Library_v2.1.16/XMCLib/src/xmc_usbd.c **** 		if(obj->usbd_transfer_mode == XMC_USBD_USE_FIFO)
 702:/opt/XMClib/XMC_Peripheral_Library_v2.1.16/XMCLib/src/xmc_usbd.c **** 		{
 703:/opt/XMClib/XMC_Peripheral_Library_v2.1.16/XMCLib/src/xmc_usbd.c **** 			ep->outBytesAvailable += ep->xferCount;
 704:/opt/XMClib/XMC_Peripheral_Library_v2.1.16/XMCLib/src/xmc_usbd.c **** 		}
 705:/opt/XMClib/XMC_Peripheral_Library_v2.1.16/XMCLib/src/xmc_usbd.c **** 		ep->outInUse = 0U;
 706:/opt/XMClib/XMC_Peripheral_Library_v2.1.16/XMCLib/src/xmc_usbd.c **** 		xmc_device.EndpointEvent_cb(0U,XMC_USBD_EP_EVENT_SETUP); /* signal endpoint event */
 707:/opt/XMClib/XMC_Peripheral_Library_v2.1.16/XMCLib/src/xmc_usbd.c **** 				/* clear the interrupt */
 708:/opt/XMClib/XMC_Peripheral_Library_v2.1.16/XMCLib/src/xmc_usbd.c **** 		XMC_USBD_ClearEventOUTEP((uint32_t)XMC_USBD_EVENT_OUT_EP_SETUP,ep_num);
 709:/opt/XMClib/XMC_Peripheral_Library_v2.1.16/XMCLib/src/xmc_usbd.c ****       }
 710:/opt/XMClib/XMC_Peripheral_Library_v2.1.16/XMCLib/src/xmc_usbd.c ****       if (doepint.b.xfercompl)
 711:/opt/XMClib/XMC_Peripheral_Library_v2.1.16/XMCLib/src/xmc_usbd.c ****       {
 712:/opt/XMClib/XMC_Peripheral_Library_v2.1.16/XMCLib/src/xmc_usbd.c ****         if(obj->usbd_transfer_mode == XMC_USBD_USE_DMA)
 713:/opt/XMClib/XMC_Peripheral_Library_v2.1.16/XMCLib/src/xmc_usbd.c ****         {
 714:/opt/XMClib/XMC_Peripheral_Library_v2.1.16/XMCLib/src/xmc_usbd.c ****           uint32_t bytes = (ep->xferLength - ep->xferCount) - doeptsiz.b.xfersize;
 715:/opt/XMClib/XMC_Peripheral_Library_v2.1.16/XMCLib/src/xmc_usbd.c ****           ep->xferCount += bytes;
 716:/opt/XMClib/XMC_Peripheral_Library_v2.1.16/XMCLib/src/xmc_usbd.c ****           ep->xferBuffer += bytes;
 717:/opt/XMClib/XMC_Peripheral_Library_v2.1.16/XMCLib/src/xmc_usbd.c **** 				}
 718:/opt/XMClib/XMC_Peripheral_Library_v2.1.16/XMCLib/src/xmc_usbd.c ****         if (ep->xferTotal == ep->xferLength)
 719:/opt/XMClib/XMC_Peripheral_Library_v2.1.16/XMCLib/src/xmc_usbd.c ****         {
 720:/opt/XMClib/XMC_Peripheral_Library_v2.1.16/XMCLib/src/xmc_usbd.c ****           ep->outBytesAvailable = ep->xferCount;
 721:/opt/XMClib/XMC_Peripheral_Library_v2.1.16/XMCLib/src/xmc_usbd.c ****           ep->outInUse = 0U;
 722:/opt/XMClib/XMC_Peripheral_Library_v2.1.16/XMCLib/src/xmc_usbd.c ****           xmc_device.EndpointEvent_cb(ep_num,XMC_USBD_EP_EVENT_OUT);
 723:/opt/XMClib/XMC_Peripheral_Library_v2.1.16/XMCLib/src/xmc_usbd.c ****         }
 724:/opt/XMClib/XMC_Peripheral_Library_v2.1.16/XMCLib/src/xmc_usbd.c ****         else
 725:/opt/XMClib/XMC_Peripheral_Library_v2.1.16/XMCLib/src/xmc_usbd.c ****         {
 726:/opt/XMClib/XMC_Peripheral_Library_v2.1.16/XMCLib/src/xmc_usbd.c ****           XMC_USBD_lStartReadXfer(ep);
 727:/opt/XMClib/XMC_Peripheral_Library_v2.1.16/XMCLib/src/xmc_usbd.c ****         }
 728:/opt/XMClib/XMC_Peripheral_Library_v2.1.16/XMCLib/src/xmc_usbd.c **** 
 729:/opt/XMClib/XMC_Peripheral_Library_v2.1.16/XMCLib/src/xmc_usbd.c ****       }
 730:/opt/XMClib/XMC_Peripheral_Library_v2.1.16/XMCLib/src/xmc_usbd.c **** 
 731:/opt/XMClib/XMC_Peripheral_Library_v2.1.16/XMCLib/src/xmc_usbd.c ****       XMC_USBD_ClearEventOUTEP(doepint.d32,ep_num);
 732:/opt/XMClib/XMC_Peripheral_Library_v2.1.16/XMCLib/src/xmc_usbd.c ****     }
 733:/opt/XMClib/XMC_Peripheral_Library_v2.1.16/XMCLib/src/xmc_usbd.c ****     ep_num++;
 734:/opt/XMClib/XMC_Peripheral_Library_v2.1.16/XMCLib/src/xmc_usbd.c ****   }
 735:/opt/XMClib/XMC_Peripheral_Library_v2.1.16/XMCLib/src/xmc_usbd.c **** 
 736:/opt/XMClib/XMC_Peripheral_Library_v2.1.16/XMCLib/src/xmc_usbd.c ****   /* clear interrupt */
 737:/opt/XMClib/XMC_Peripheral_Library_v2.1.16/XMCLib/src/xmc_usbd.c ****   XMC_USBD_ClearEvent(XMC_USBD_EVENT_OUTEP);
 738:/opt/XMClib/XMC_Peripheral_Library_v2.1.16/XMCLib/src/xmc_usbd.c **** }
 739:/opt/XMClib/XMC_Peripheral_Library_v2.1.16/XMCLib/src/xmc_usbd.c **** 
 740:/opt/XMClib/XMC_Peripheral_Library_v2.1.16/XMCLib/src/xmc_usbd.c **** /**
 741:/opt/XMClib/XMC_Peripheral_Library_v2.1.16/XMCLib/src/xmc_usbd.c ****  * @brief Handles all interrupts for all in endpoints
 742:/opt/XMClib/XMC_Peripheral_Library_v2.1.16/XMCLib/src/xmc_usbd.c ****  *
 743:/opt/XMClib/XMC_Peripheral_Library_v2.1.16/XMCLib/src/xmc_usbd.c ****  * The interrupt handler first checks, which endpoint has caused the interrupt and then
 744:/opt/XMClib/XMC_Peripheral_Library_v2.1.16/XMCLib/src/xmc_usbd.c ****  * determines, which interrupt should be handled.
 745:/opt/XMClib/XMC_Peripheral_Library_v2.1.16/XMCLib/src/xmc_usbd.c ****  */
 746:/opt/XMClib/XMC_Peripheral_Library_v2.1.16/XMCLib/src/xmc_usbd.c **** static void XMC_USBD_lHandleIEPInt(const XMC_USBD_t *const obj) 
 747:/opt/XMClib/XMC_Peripheral_Library_v2.1.16/XMCLib/src/xmc_usbd.c **** {
 748:/opt/XMClib/XMC_Peripheral_Library_v2.1.16/XMCLib/src/xmc_usbd.c ****   XMC_USBD_EP_t *ep;
 749:/opt/XMClib/XMC_Peripheral_Library_v2.1.16/XMCLib/src/xmc_usbd.c ****   daint_data_t daint;
 750:/opt/XMClib/XMC_Peripheral_Library_v2.1.16/XMCLib/src/xmc_usbd.c ****   diepmsk_data_t diepmsk;
 751:/opt/XMClib/XMC_Peripheral_Library_v2.1.16/XMCLib/src/xmc_usbd.c ****   diepint_data_t diepint;
 752:/opt/XMClib/XMC_Peripheral_Library_v2.1.16/XMCLib/src/xmc_usbd.c ****   deptsiz_data_t dieptsiz;
 753:/opt/XMClib/XMC_Peripheral_Library_v2.1.16/XMCLib/src/xmc_usbd.c ****   uint16_t temp;
 754:/opt/XMClib/XMC_Peripheral_Library_v2.1.16/XMCLib/src/xmc_usbd.c ****   uint16_t temp1;
 755:/opt/XMClib/XMC_Peripheral_Library_v2.1.16/XMCLib/src/xmc_usbd.c ****   uint16_t mask;
 756:/opt/XMClib/XMC_Peripheral_Library_v2.1.16/XMCLib/src/xmc_usbd.c ****   uint8_t ep_num;
 757:/opt/XMClib/XMC_Peripheral_Library_v2.1.16/XMCLib/src/xmc_usbd.c ****   uint32_t inepint;
 758:/opt/XMClib/XMC_Peripheral_Library_v2.1.16/XMCLib/src/xmc_usbd.c **** 	
 759:/opt/XMClib/XMC_Peripheral_Library_v2.1.16/XMCLib/src/xmc_usbd.c ****   daint.d32 = xmc_device.device_register->daint;
 760:/opt/XMClib/XMC_Peripheral_Library_v2.1.16/XMCLib/src/xmc_usbd.c ****   
 761:/opt/XMClib/XMC_Peripheral_Library_v2.1.16/XMCLib/src/xmc_usbd.c ****   diepmsk.d32 = xmc_device.device_register->diepmsk;
 762:/opt/XMClib/XMC_Peripheral_Library_v2.1.16/XMCLib/src/xmc_usbd.c ****   
 763:/opt/XMClib/XMC_Peripheral_Library_v2.1.16/XMCLib/src/xmc_usbd.c ****   dieptsiz.d32 = 0U;
 764:/opt/XMClib/XMC_Peripheral_Library_v2.1.16/XMCLib/src/xmc_usbd.c ****   mask = daint.ep.in;
 765:/opt/XMClib/XMC_Peripheral_Library_v2.1.16/XMCLib/src/xmc_usbd.c ****   ep_num = 0U;
 766:/opt/XMClib/XMC_Peripheral_Library_v2.1.16/XMCLib/src/xmc_usbd.c ****   
 767:/opt/XMClib/XMC_Peripheral_Library_v2.1.16/XMCLib/src/xmc_usbd.c ****   while ((uint16_t)mask >> ep_num)
 768:/opt/XMClib/XMC_Peripheral_Library_v2.1.16/XMCLib/src/xmc_usbd.c ****   {
 769:/opt/XMClib/XMC_Peripheral_Library_v2.1.16/XMCLib/src/xmc_usbd.c ****     temp1 = ((uint16_t)mask >> (uint16_t)ep_num);
 770:/opt/XMClib/XMC_Peripheral_Library_v2.1.16/XMCLib/src/xmc_usbd.c ****     temp = (uint16_t)temp1 & (uint16_t)0x1U;
 771:/opt/XMClib/XMC_Peripheral_Library_v2.1.16/XMCLib/src/xmc_usbd.c ****     if ((uint16_t)temp)
 772:/opt/XMClib/XMC_Peripheral_Library_v2.1.16/XMCLib/src/xmc_usbd.c ****     {
 773:/opt/XMClib/XMC_Peripheral_Library_v2.1.16/XMCLib/src/xmc_usbd.c ****       ep = &xmc_device.ep[ep_num];
 774:/opt/XMClib/XMC_Peripheral_Library_v2.1.16/XMCLib/src/xmc_usbd.c **** 			inepint = (uint32_t)xmc_device.endpoint_in_register[ep_num]->diepint;
 775:/opt/XMClib/XMC_Peripheral_Library_v2.1.16/XMCLib/src/xmc_usbd.c ****       diepint.d32 = inepint &
 776:/opt/XMClib/XMC_Peripheral_Library_v2.1.16/XMCLib/src/xmc_usbd.c ****       ((((uint32_t)((uint32_t)xmc_device.device_register->dtknqr4_fifoemptymsk >> ep->address_u.add
 777:/opt/XMClib/XMC_Peripheral_Library_v2.1.16/XMCLib/src/xmc_usbd.c ****                      0x1U) << 7U) | (uint32_t)diepmsk.d32);
 778:/opt/XMClib/XMC_Peripheral_Library_v2.1.16/XMCLib/src/xmc_usbd.c ****       if(obj->usbd_transfer_mode == XMC_USBD_USE_DMA)
 779:/opt/XMClib/XMC_Peripheral_Library_v2.1.16/XMCLib/src/xmc_usbd.c ****       {
 780:/opt/XMClib/XMC_Peripheral_Library_v2.1.16/XMCLib/src/xmc_usbd.c ****         dieptsiz.d32 = xmc_device.endpoint_in_register[ep_num]->dieptsiz;
 781:/opt/XMClib/XMC_Peripheral_Library_v2.1.16/XMCLib/src/xmc_usbd.c ****       }
 782:/opt/XMClib/XMC_Peripheral_Library_v2.1.16/XMCLib/src/xmc_usbd.c ****       if(obj->usbd_transfer_mode == XMC_USBD_USE_FIFO)
 783:/opt/XMClib/XMC_Peripheral_Library_v2.1.16/XMCLib/src/xmc_usbd.c ****       {
 784:/opt/XMClib/XMC_Peripheral_Library_v2.1.16/XMCLib/src/xmc_usbd.c ****         if (diepint.b.emptyintr)
 785:/opt/XMClib/XMC_Peripheral_Library_v2.1.16/XMCLib/src/xmc_usbd.c ****         {
 786:/opt/XMClib/XMC_Peripheral_Library_v2.1.16/XMCLib/src/xmc_usbd.c ****           uint32_t bytes;
 787:/opt/XMClib/XMC_Peripheral_Library_v2.1.16/XMCLib/src/xmc_usbd.c ****           bytes = XMC_USBD_lWriteFifo(ep);
 788:/opt/XMClib/XMC_Peripheral_Library_v2.1.16/XMCLib/src/xmc_usbd.c ****           ep->xferCount += bytes;
 789:/opt/XMClib/XMC_Peripheral_Library_v2.1.16/XMCLib/src/xmc_usbd.c ****           ep->xferBuffer += bytes;
 790:/opt/XMClib/XMC_Peripheral_Library_v2.1.16/XMCLib/src/xmc_usbd.c ****         }
 791:/opt/XMClib/XMC_Peripheral_Library_v2.1.16/XMCLib/src/xmc_usbd.c ****       }
 792:/opt/XMClib/XMC_Peripheral_Library_v2.1.16/XMCLib/src/xmc_usbd.c ****       if (diepint.b.xfercompl)
 793:/opt/XMClib/XMC_Peripheral_Library_v2.1.16/XMCLib/src/xmc_usbd.c ****       {
 794:/opt/XMClib/XMC_Peripheral_Library_v2.1.16/XMCLib/src/xmc_usbd.c ****         if(obj->usbd_transfer_mode == XMC_USBD_USE_DMA)
 795:/opt/XMClib/XMC_Peripheral_Library_v2.1.16/XMCLib/src/xmc_usbd.c ****         {
 796:/opt/XMClib/XMC_Peripheral_Library_v2.1.16/XMCLib/src/xmc_usbd.c ****           /* update xfer values */
 797:/opt/XMClib/XMC_Peripheral_Library_v2.1.16/XMCLib/src/xmc_usbd.c ****           if ((dieptsiz.b.pktcnt == 0U) && (dieptsiz.b.xfersize == 0U))
 798:/opt/XMClib/XMC_Peripheral_Library_v2.1.16/XMCLib/src/xmc_usbd.c ****           {
 799:/opt/XMClib/XMC_Peripheral_Library_v2.1.16/XMCLib/src/xmc_usbd.c ****             uint32_t Bytes = ep->xferLength - ep->xferCount;
 800:/opt/XMClib/XMC_Peripheral_Library_v2.1.16/XMCLib/src/xmc_usbd.c ****             ep->xferCount += Bytes;
 801:/opt/XMClib/XMC_Peripheral_Library_v2.1.16/XMCLib/src/xmc_usbd.c ****             ep->xferBuffer += Bytes;
 802:/opt/XMClib/XMC_Peripheral_Library_v2.1.16/XMCLib/src/xmc_usbd.c ****           }
 803:/opt/XMClib/XMC_Peripheral_Library_v2.1.16/XMCLib/src/xmc_usbd.c ****         }
 804:/opt/XMClib/XMC_Peripheral_Library_v2.1.16/XMCLib/src/xmc_usbd.c ****         if (ep->xferTotal==ep->xferLength)
 805:/opt/XMClib/XMC_Peripheral_Library_v2.1.16/XMCLib/src/xmc_usbd.c ****         {
 806:/opt/XMClib/XMC_Peripheral_Library_v2.1.16/XMCLib/src/xmc_usbd.c ****           ep->inInUse = 0U;
 807:/opt/XMClib/XMC_Peripheral_Library_v2.1.16/XMCLib/src/xmc_usbd.c ****           if(obj->usbd_transfer_mode == XMC_USBD_USE_FIFO)
 808:/opt/XMClib/XMC_Peripheral_Library_v2.1.16/XMCLib/src/xmc_usbd.c ****           {
 809:/opt/XMClib/XMC_Peripheral_Library_v2.1.16/XMCLib/src/xmc_usbd.c ****             /* mask fifo empty interrupt */
 810:/opt/XMClib/XMC_Peripheral_Library_v2.1.16/XMCLib/src/xmc_usbd.c ****             xmc_device.device_register->dtknqr4_fifoemptymsk =
 811:/opt/XMClib/XMC_Peripheral_Library_v2.1.16/XMCLib/src/xmc_usbd.c ****             (uint32_t)(xmc_device.device_register->dtknqr4_fifoemptymsk & ~(((uint32_t)1U << ep_num
 812:/opt/XMClib/XMC_Peripheral_Library_v2.1.16/XMCLib/src/xmc_usbd.c ****           }
 813:/opt/XMClib/XMC_Peripheral_Library_v2.1.16/XMCLib/src/xmc_usbd.c ****           xmc_device.EndpointEvent_cb(0x80U | ep_num,XMC_USBD_EP_EVENT_IN);
 814:/opt/XMClib/XMC_Peripheral_Library_v2.1.16/XMCLib/src/xmc_usbd.c ****         }
 815:/opt/XMClib/XMC_Peripheral_Library_v2.1.16/XMCLib/src/xmc_usbd.c ****         else
 816:/opt/XMClib/XMC_Peripheral_Library_v2.1.16/XMCLib/src/xmc_usbd.c ****         {
 817:/opt/XMClib/XMC_Peripheral_Library_v2.1.16/XMCLib/src/xmc_usbd.c ****           /* start next step of transfer */
 818:/opt/XMClib/XMC_Peripheral_Library_v2.1.16/XMCLib/src/xmc_usbd.c ****           XMC_USBD_lStartWriteXfer(ep);
 819:/opt/XMClib/XMC_Peripheral_Library_v2.1.16/XMCLib/src/xmc_usbd.c ****         }
 820:/opt/XMClib/XMC_Peripheral_Library_v2.1.16/XMCLib/src/xmc_usbd.c **** 
 821:/opt/XMClib/XMC_Peripheral_Library_v2.1.16/XMCLib/src/xmc_usbd.c ****       }
 822:/opt/XMClib/XMC_Peripheral_Library_v2.1.16/XMCLib/src/xmc_usbd.c **** 
 823:/opt/XMClib/XMC_Peripheral_Library_v2.1.16/XMCLib/src/xmc_usbd.c ****       XMC_USBD_ClearEventINEP((uint32_t)diepint.d32,ep_num);
 824:/opt/XMClib/XMC_Peripheral_Library_v2.1.16/XMCLib/src/xmc_usbd.c ****     }
 825:/opt/XMClib/XMC_Peripheral_Library_v2.1.16/XMCLib/src/xmc_usbd.c ****     ep_num++;
 826:/opt/XMClib/XMC_Peripheral_Library_v2.1.16/XMCLib/src/xmc_usbd.c ****   }
 827:/opt/XMClib/XMC_Peripheral_Library_v2.1.16/XMCLib/src/xmc_usbd.c ****   XMC_USBD_ClearEvent(XMC_USBD_EVENT_INEP);
 828:/opt/XMClib/XMC_Peripheral_Library_v2.1.16/XMCLib/src/xmc_usbd.c **** }
 829:/opt/XMClib/XMC_Peripheral_Library_v2.1.16/XMCLib/src/xmc_usbd.c **** 
 830:/opt/XMClib/XMC_Peripheral_Library_v2.1.16/XMCLib/src/xmc_usbd.c **** /**
 831:/opt/XMClib/XMC_Peripheral_Library_v2.1.16/XMCLib/src/xmc_usbd.c ****  * @brief RX Fifo interrupt handler
 832:/opt/XMClib/XMC_Peripheral_Library_v2.1.16/XMCLib/src/xmc_usbd.c ****  *
 833:/opt/XMClib/XMC_Peripheral_Library_v2.1.16/XMCLib/src/xmc_usbd.c ****  * This function handles the interrupt, when the rx fifo is not empty anymore.
 834:/opt/XMClib/XMC_Peripheral_Library_v2.1.16/XMCLib/src/xmc_usbd.c ****  */
 835:/opt/XMClib/XMC_Peripheral_Library_v2.1.16/XMCLib/src/xmc_usbd.c **** static void XMC_USBD_lHandleRxFLvl(void) 
 836:/opt/XMClib/XMC_Peripheral_Library_v2.1.16/XMCLib/src/xmc_usbd.c **** {
 837:/opt/XMClib/XMC_Peripheral_Library_v2.1.16/XMCLib/src/xmc_usbd.c ****   device_grxsts_data_t data;	
 838:/opt/XMClib/XMC_Peripheral_Library_v2.1.16/XMCLib/src/xmc_usbd.c ****   data.d32 = xmc_device.global_register->grxstsp;
 839:/opt/XMClib/XMC_Peripheral_Library_v2.1.16/XMCLib/src/xmc_usbd.c **** 
 840:/opt/XMClib/XMC_Peripheral_Library_v2.1.16/XMCLib/src/xmc_usbd.c ****   switch (data.b.pktsts)
 841:/opt/XMClib/XMC_Peripheral_Library_v2.1.16/XMCLib/src/xmc_usbd.c **** 	{
 842:/opt/XMClib/XMC_Peripheral_Library_v2.1.16/XMCLib/src/xmc_usbd.c ****     case XMC_USBD_GRXSTS_PKTSTS_GOUTNAK:
 843:/opt/XMClib/XMC_Peripheral_Library_v2.1.16/XMCLib/src/xmc_usbd.c ****       break;
 844:/opt/XMClib/XMC_Peripheral_Library_v2.1.16/XMCLib/src/xmc_usbd.c ****     case XMC_USBD_GRXSTS_PKTSTS_OUTCMPL:
 845:/opt/XMClib/XMC_Peripheral_Library_v2.1.16/XMCLib/src/xmc_usbd.c ****       break;
 846:/opt/XMClib/XMC_Peripheral_Library_v2.1.16/XMCLib/src/xmc_usbd.c ****     case XMC_USBD_GRXSTS_PKTSTS_OUTDATA:
 847:/opt/XMClib/XMC_Peripheral_Library_v2.1.16/XMCLib/src/xmc_usbd.c ****       XMC_USBD_lReadFifo((uint32_t)data.b.epnum,(uint32_t)data.b.bcnt);
 848:/opt/XMClib/XMC_Peripheral_Library_v2.1.16/XMCLib/src/xmc_usbd.c ****       break;
 849:/opt/XMClib/XMC_Peripheral_Library_v2.1.16/XMCLib/src/xmc_usbd.c ****     case XMC_USBD_GRXSTS_PKTSTS_SETUP:
 850:/opt/XMClib/XMC_Peripheral_Library_v2.1.16/XMCLib/src/xmc_usbd.c ****       XMC_USBD_lReadFifo((uint32_t)data.b.epnum,(uint32_t)data.b.bcnt);
 851:/opt/XMClib/XMC_Peripheral_Library_v2.1.16/XMCLib/src/xmc_usbd.c ****       break;
 852:/opt/XMClib/XMC_Peripheral_Library_v2.1.16/XMCLib/src/xmc_usbd.c ****     case XMC_USBD_GRXSTS_PKTSTS_SETUPCMPL:
 853:/opt/XMClib/XMC_Peripheral_Library_v2.1.16/XMCLib/src/xmc_usbd.c ****       break;
 854:/opt/XMClib/XMC_Peripheral_Library_v2.1.16/XMCLib/src/xmc_usbd.c ****     default:
 855:/opt/XMClib/XMC_Peripheral_Library_v2.1.16/XMCLib/src/xmc_usbd.c ****       break;
 856:/opt/XMClib/XMC_Peripheral_Library_v2.1.16/XMCLib/src/xmc_usbd.c **** 	}
 857:/opt/XMClib/XMC_Peripheral_Library_v2.1.16/XMCLib/src/xmc_usbd.c ****   /* no need to clear */
 858:/opt/XMClib/XMC_Peripheral_Library_v2.1.16/XMCLib/src/xmc_usbd.c **** }
 859:/opt/XMClib/XMC_Peripheral_Library_v2.1.16/XMCLib/src/xmc_usbd.c **** 
 860:/opt/XMClib/XMC_Peripheral_Library_v2.1.16/XMCLib/src/xmc_usbd.c **** /**
 861:/opt/XMClib/XMC_Peripheral_Library_v2.1.16/XMCLib/src/xmc_usbd.c ****  * @brief Global interrupt handler
 862:/opt/XMClib/XMC_Peripheral_Library_v2.1.16/XMCLib/src/xmc_usbd.c ****  *
 863:/opt/XMClib/XMC_Peripheral_Library_v2.1.16/XMCLib/src/xmc_usbd.c ****  * The handler first checks, which global interrupt has caused the interrupt
 864:/opt/XMClib/XMC_Peripheral_Library_v2.1.16/XMCLib/src/xmc_usbd.c ****  * and then dispatches interrupt to the corresponding sub-handler.
 865:/opt/XMClib/XMC_Peripheral_Library_v2.1.16/XMCLib/src/xmc_usbd.c ****  */
 866:/opt/XMClib/XMC_Peripheral_Library_v2.1.16/XMCLib/src/xmc_usbd.c **** void XMC_USBD_IRQHandler(const XMC_USBD_t *const obj) 
 867:/opt/XMClib/XMC_Peripheral_Library_v2.1.16/XMCLib/src/xmc_usbd.c **** {
 868:/opt/XMClib/XMC_Peripheral_Library_v2.1.16/XMCLib/src/xmc_usbd.c ****   gintmsk_data_t gintmsk;
 869:/opt/XMClib/XMC_Peripheral_Library_v2.1.16/XMCLib/src/xmc_usbd.c ****   gintsts_data_t data;
 870:/opt/XMClib/XMC_Peripheral_Library_v2.1.16/XMCLib/src/xmc_usbd.c **** 	
 871:/opt/XMClib/XMC_Peripheral_Library_v2.1.16/XMCLib/src/xmc_usbd.c ****   gintmsk.d32 = xmc_device.global_register->gintmsk;
 872:/opt/XMClib/XMC_Peripheral_Library_v2.1.16/XMCLib/src/xmc_usbd.c ****   data.d32 = xmc_device.global_register->gintsts & gintmsk.d32;
 873:/opt/XMClib/XMC_Peripheral_Library_v2.1.16/XMCLib/src/xmc_usbd.c **** 	
 874:/opt/XMClib/XMC_Peripheral_Library_v2.1.16/XMCLib/src/xmc_usbd.c ****   if (data.b.sofintr)
 875:/opt/XMClib/XMC_Peripheral_Library_v2.1.16/XMCLib/src/xmc_usbd.c ****   {
 876:/opt/XMClib/XMC_Peripheral_Library_v2.1.16/XMCLib/src/xmc_usbd.c ****     xmc_device.DeviceEvent_cb(XMC_USBD_EVENT_SOF);
 877:/opt/XMClib/XMC_Peripheral_Library_v2.1.16/XMCLib/src/xmc_usbd.c ****     XMC_USBD_ClearEvent(XMC_USBD_EVENT_SOF);
 878:/opt/XMClib/XMC_Peripheral_Library_v2.1.16/XMCLib/src/xmc_usbd.c ****   }
 879:/opt/XMClib/XMC_Peripheral_Library_v2.1.16/XMCLib/src/xmc_usbd.c ****   if(obj->usbd_transfer_mode == XMC_USBD_USE_FIFO)
 880:/opt/XMClib/XMC_Peripheral_Library_v2.1.16/XMCLib/src/xmc_usbd.c ****   {
 881:/opt/XMClib/XMC_Peripheral_Library_v2.1.16/XMCLib/src/xmc_usbd.c ****     if (data.b.rxstsqlvl)
 882:/opt/XMClib/XMC_Peripheral_Library_v2.1.16/XMCLib/src/xmc_usbd.c ****     {
 883:/opt/XMClib/XMC_Peripheral_Library_v2.1.16/XMCLib/src/xmc_usbd.c ****       /* Masked that interrupt so its only done once */
 884:/opt/XMClib/XMC_Peripheral_Library_v2.1.16/XMCLib/src/xmc_usbd.c ****       gintmsk.b.rxstsqlvl = 0U;
 885:/opt/XMClib/XMC_Peripheral_Library_v2.1.16/XMCLib/src/xmc_usbd.c ****       xmc_device.global_register->gintmsk = gintmsk.d32;
 886:/opt/XMClib/XMC_Peripheral_Library_v2.1.16/XMCLib/src/xmc_usbd.c ****       XMC_USBD_lHandleRxFLvl(); /* handle the interrupt */
 887:/opt/XMClib/XMC_Peripheral_Library_v2.1.16/XMCLib/src/xmc_usbd.c ****       gintmsk.b.rxstsqlvl = 1U;
 888:/opt/XMClib/XMC_Peripheral_Library_v2.1.16/XMCLib/src/xmc_usbd.c ****       xmc_device.global_register->gintmsk = gintmsk.d32;
 889:/opt/XMClib/XMC_Peripheral_Library_v2.1.16/XMCLib/src/xmc_usbd.c ****     }
 890:/opt/XMClib/XMC_Peripheral_Library_v2.1.16/XMCLib/src/xmc_usbd.c ****   }
 891:/opt/XMClib/XMC_Peripheral_Library_v2.1.16/XMCLib/src/xmc_usbd.c ****   if (data.b.erlysuspend)
 892:/opt/XMClib/XMC_Peripheral_Library_v2.1.16/XMCLib/src/xmc_usbd.c ****   {
 893:/opt/XMClib/XMC_Peripheral_Library_v2.1.16/XMCLib/src/xmc_usbd.c ****     XMC_USBD_ClearEvent(XMC_USBD_EVENT_EARLYSUSPEND);
 894:/opt/XMClib/XMC_Peripheral_Library_v2.1.16/XMCLib/src/xmc_usbd.c ****   }
 895:/opt/XMClib/XMC_Peripheral_Library_v2.1.16/XMCLib/src/xmc_usbd.c ****   if (data.b.usbsuspend)
 896:/opt/XMClib/XMC_Peripheral_Library_v2.1.16/XMCLib/src/xmc_usbd.c ****   {
 897:/opt/XMClib/XMC_Peripheral_Library_v2.1.16/XMCLib/src/xmc_usbd.c ****     xmc_device.DeviceEvent_cb(XMC_USBD_EVENT_SUSPEND);
 898:/opt/XMClib/XMC_Peripheral_Library_v2.1.16/XMCLib/src/xmc_usbd.c ****     XMC_USBD_ClearEvent(XMC_USBD_EVENT_SUSPEND);
 899:/opt/XMClib/XMC_Peripheral_Library_v2.1.16/XMCLib/src/xmc_usbd.c ****   }
 900:/opt/XMClib/XMC_Peripheral_Library_v2.1.16/XMCLib/src/xmc_usbd.c ****   if (data.b.wkupintr)
 901:/opt/XMClib/XMC_Peripheral_Library_v2.1.16/XMCLib/src/xmc_usbd.c ****   {
 902:/opt/XMClib/XMC_Peripheral_Library_v2.1.16/XMCLib/src/xmc_usbd.c ****     xmc_device.DeviceEvent_cb(XMC_USBD_EVENT_REMOTE_WAKEUP);
 903:/opt/XMClib/XMC_Peripheral_Library_v2.1.16/XMCLib/src/xmc_usbd.c ****     XMC_USBD_ClearEvent(XMC_USBD_EVENT_REMOTE_WAKEUP);
 904:/opt/XMClib/XMC_Peripheral_Library_v2.1.16/XMCLib/src/xmc_usbd.c ****   }
 905:/opt/XMClib/XMC_Peripheral_Library_v2.1.16/XMCLib/src/xmc_usbd.c ****   if (data.b.sessreqintr)
 906:/opt/XMClib/XMC_Peripheral_Library_v2.1.16/XMCLib/src/xmc_usbd.c ****   {
 907:/opt/XMClib/XMC_Peripheral_Library_v2.1.16/XMCLib/src/xmc_usbd.c ****     xmc_device.IsPowered = 1U;
 908:/opt/XMClib/XMC_Peripheral_Library_v2.1.16/XMCLib/src/xmc_usbd.c ****     xmc_device.DeviceEvent_cb(XMC_USBD_EVENT_POWER_ON);
 909:/opt/XMClib/XMC_Peripheral_Library_v2.1.16/XMCLib/src/xmc_usbd.c ****     XMC_USBD_ClearEvent(XMC_USBD_EVENT_POWER_ON);
 910:/opt/XMClib/XMC_Peripheral_Library_v2.1.16/XMCLib/src/xmc_usbd.c ****   }
 911:/opt/XMClib/XMC_Peripheral_Library_v2.1.16/XMCLib/src/xmc_usbd.c ****   if (data.b.usbreset)
 912:/opt/XMClib/XMC_Peripheral_Library_v2.1.16/XMCLib/src/xmc_usbd.c ****   {
 913:/opt/XMClib/XMC_Peripheral_Library_v2.1.16/XMCLib/src/xmc_usbd.c ****     XMC_USBD_lHandleUSBReset(obj);
 914:/opt/XMClib/XMC_Peripheral_Library_v2.1.16/XMCLib/src/xmc_usbd.c ****   }
 915:/opt/XMClib/XMC_Peripheral_Library_v2.1.16/XMCLib/src/xmc_usbd.c ****   if (data.b.enumdone)
 916:/opt/XMClib/XMC_Peripheral_Library_v2.1.16/XMCLib/src/xmc_usbd.c ****   {
 917:/opt/XMClib/XMC_Peripheral_Library_v2.1.16/XMCLib/src/xmc_usbd.c ****     XMC_USBD_lHandleEnumDone();
 918:/opt/XMClib/XMC_Peripheral_Library_v2.1.16/XMCLib/src/xmc_usbd.c ****   }
 919:/opt/XMClib/XMC_Peripheral_Library_v2.1.16/XMCLib/src/xmc_usbd.c ****   if (data.b.inepint)
 920:/opt/XMClib/XMC_Peripheral_Library_v2.1.16/XMCLib/src/xmc_usbd.c ****   {
 921:/opt/XMClib/XMC_Peripheral_Library_v2.1.16/XMCLib/src/xmc_usbd.c ****     XMC_USBD_lHandleIEPInt(obj);
 922:/opt/XMClib/XMC_Peripheral_Library_v2.1.16/XMCLib/src/xmc_usbd.c ****   }
 923:/opt/XMClib/XMC_Peripheral_Library_v2.1.16/XMCLib/src/xmc_usbd.c ****   if (data.b.outepintr)
 924:/opt/XMClib/XMC_Peripheral_Library_v2.1.16/XMCLib/src/xmc_usbd.c ****   {
 925:/opt/XMClib/XMC_Peripheral_Library_v2.1.16/XMCLib/src/xmc_usbd.c **** 		XMC_USBD_lHandleOEPInt(obj);
 926:/opt/XMClib/XMC_Peripheral_Library_v2.1.16/XMCLib/src/xmc_usbd.c ****   }
 927:/opt/XMClib/XMC_Peripheral_Library_v2.1.16/XMCLib/src/xmc_usbd.c **** 	if (data.b.otgintr)
 928:/opt/XMClib/XMC_Peripheral_Library_v2.1.16/XMCLib/src/xmc_usbd.c ****   {
 929:/opt/XMClib/XMC_Peripheral_Library_v2.1.16/XMCLib/src/xmc_usbd.c **** 	  XMC_USBD_lHandleOTGInt();
 930:/opt/XMClib/XMC_Peripheral_Library_v2.1.16/XMCLib/src/xmc_usbd.c ****   }
 931:/opt/XMClib/XMC_Peripheral_Library_v2.1.16/XMCLib/src/xmc_usbd.c **** 
 932:/opt/XMClib/XMC_Peripheral_Library_v2.1.16/XMCLib/src/xmc_usbd.c **** }
 933:/opt/XMClib/XMC_Peripheral_Library_v2.1.16/XMCLib/src/xmc_usbd.c **** 
 934:/opt/XMClib/XMC_Peripheral_Library_v2.1.16/XMCLib/src/xmc_usbd.c **** 
 935:/opt/XMClib/XMC_Peripheral_Library_v2.1.16/XMCLib/src/xmc_usbd.c **** /*******************************************************************************
 936:/opt/XMClib/XMC_Peripheral_Library_v2.1.16/XMCLib/src/xmc_usbd.c ****  * API IMPLEMENTATION
 937:/opt/XMClib/XMC_Peripheral_Library_v2.1.16/XMCLib/src/xmc_usbd.c ****  *******************************************************************************/
 938:/opt/XMClib/XMC_Peripheral_Library_v2.1.16/XMCLib/src/xmc_usbd.c **** /**
 939:/opt/XMClib/XMC_Peripheral_Library_v2.1.16/XMCLib/src/xmc_usbd.c ****  * Enables the USB0 module
 940:/opt/XMClib/XMC_Peripheral_Library_v2.1.16/XMCLib/src/xmc_usbd.c ****  **/
 941:/opt/XMClib/XMC_Peripheral_Library_v2.1.16/XMCLib/src/xmc_usbd.c **** void XMC_USBD_Enable(void) 
 942:/opt/XMClib/XMC_Peripheral_Library_v2.1.16/XMCLib/src/xmc_usbd.c **** {
 943:/opt/XMClib/XMC_Peripheral_Library_v2.1.16/XMCLib/src/xmc_usbd.c **** #if defined(CLOCK_GATING_SUPPORTED)
 944:/opt/XMClib/XMC_Peripheral_Library_v2.1.16/XMCLib/src/xmc_usbd.c ****   XMC_SCU_CLOCK_UngatePeripheralClock(XMC_SCU_PERIPHERAL_CLOCK_USB0);
 945:/opt/XMClib/XMC_Peripheral_Library_v2.1.16/XMCLib/src/xmc_usbd.c **** #endif
 946:/opt/XMClib/XMC_Peripheral_Library_v2.1.16/XMCLib/src/xmc_usbd.c ****   /* Reset and power up */
 947:/opt/XMClib/XMC_Peripheral_Library_v2.1.16/XMCLib/src/xmc_usbd.c ****   XMC_SCU_RESET_DeassertPeripheralReset(XMC_SCU_PERIPHERAL_RESET_USB0);
 948:/opt/XMClib/XMC_Peripheral_Library_v2.1.16/XMCLib/src/xmc_usbd.c ****   XMC_SCU_POWER_EnableUsb();
 949:/opt/XMClib/XMC_Peripheral_Library_v2.1.16/XMCLib/src/xmc_usbd.c **** }
 950:/opt/XMClib/XMC_Peripheral_Library_v2.1.16/XMCLib/src/xmc_usbd.c **** 
 951:/opt/XMClib/XMC_Peripheral_Library_v2.1.16/XMCLib/src/xmc_usbd.c **** /**
 952:/opt/XMClib/XMC_Peripheral_Library_v2.1.16/XMCLib/src/xmc_usbd.c ****  * Disables the USB0 module
 953:/opt/XMClib/XMC_Peripheral_Library_v2.1.16/XMCLib/src/xmc_usbd.c ****  **/
 954:/opt/XMClib/XMC_Peripheral_Library_v2.1.16/XMCLib/src/xmc_usbd.c **** void XMC_USBD_Disable(void) 
 955:/opt/XMClib/XMC_Peripheral_Library_v2.1.16/XMCLib/src/xmc_usbd.c **** {
 956:/opt/XMClib/XMC_Peripheral_Library_v2.1.16/XMCLib/src/xmc_usbd.c ****   /* Clear Reset and power up */
 957:/opt/XMClib/XMC_Peripheral_Library_v2.1.16/XMCLib/src/xmc_usbd.c ****   XMC_SCU_RESET_AssertPeripheralReset(XMC_SCU_PERIPHERAL_RESET_USB0);
 958:/opt/XMClib/XMC_Peripheral_Library_v2.1.16/XMCLib/src/xmc_usbd.c **** #if defined(CLOCK_GATING_SUPPORTED)
 959:/opt/XMClib/XMC_Peripheral_Library_v2.1.16/XMCLib/src/xmc_usbd.c ****   XMC_SCU_CLOCK_GatePeripheralClock(XMC_SCU_PERIPHERAL_CLOCK_USB0);
 960:/opt/XMClib/XMC_Peripheral_Library_v2.1.16/XMCLib/src/xmc_usbd.c **** #endif
 961:/opt/XMClib/XMC_Peripheral_Library_v2.1.16/XMCLib/src/xmc_usbd.c ****   XMC_SCU_POWER_DisableUsb();
 962:/opt/XMClib/XMC_Peripheral_Library_v2.1.16/XMCLib/src/xmc_usbd.c **** }
 963:/opt/XMClib/XMC_Peripheral_Library_v2.1.16/XMCLib/src/xmc_usbd.c **** 
 964:/opt/XMClib/XMC_Peripheral_Library_v2.1.16/XMCLib/src/xmc_usbd.c **** /**
 965:/opt/XMClib/XMC_Peripheral_Library_v2.1.16/XMCLib/src/xmc_usbd.c ****  * Clear the USB device event
 966:/opt/XMClib/XMC_Peripheral_Library_v2.1.16/XMCLib/src/xmc_usbd.c ****  **/
 967:/opt/XMClib/XMC_Peripheral_Library_v2.1.16/XMCLib/src/xmc_usbd.c **** void XMC_USBD_ClearEvent(const XMC_USBD_EVENT_t event) 
 968:/opt/XMClib/XMC_Peripheral_Library_v2.1.16/XMCLib/src/xmc_usbd.c **** {
 969:/opt/XMClib/XMC_Peripheral_Library_v2.1.16/XMCLib/src/xmc_usbd.c ****   gintsts_data_t clear;
 970:/opt/XMClib/XMC_Peripheral_Library_v2.1.16/XMCLib/src/xmc_usbd.c ****   clear.d32 = 0U;
 971:/opt/XMClib/XMC_Peripheral_Library_v2.1.16/XMCLib/src/xmc_usbd.c ****   switch(event)
 972:/opt/XMClib/XMC_Peripheral_Library_v2.1.16/XMCLib/src/xmc_usbd.c ****   {
 973:/opt/XMClib/XMC_Peripheral_Library_v2.1.16/XMCLib/src/xmc_usbd.c ****     case (XMC_USBD_EVENT_POWER_ON):
 974:/opt/XMClib/XMC_Peripheral_Library_v2.1.16/XMCLib/src/xmc_usbd.c **** 	  clear.b.sessreqintr = 1U;
 975:/opt/XMClib/XMC_Peripheral_Library_v2.1.16/XMCLib/src/xmc_usbd.c **** 	  break;
 976:/opt/XMClib/XMC_Peripheral_Library_v2.1.16/XMCLib/src/xmc_usbd.c ****     case (XMC_USBD_EVENT_RESET):
 977:/opt/XMClib/XMC_Peripheral_Library_v2.1.16/XMCLib/src/xmc_usbd.c **** 	  clear.b.usbreset = 1U;
 978:/opt/XMClib/XMC_Peripheral_Library_v2.1.16/XMCLib/src/xmc_usbd.c **** 	  break;
 979:/opt/XMClib/XMC_Peripheral_Library_v2.1.16/XMCLib/src/xmc_usbd.c ****     case (XMC_USBD_EVENT_SUSPEND):
 980:/opt/XMClib/XMC_Peripheral_Library_v2.1.16/XMCLib/src/xmc_usbd.c **** 	  clear.b.usbsuspend = 1U;
 981:/opt/XMClib/XMC_Peripheral_Library_v2.1.16/XMCLib/src/xmc_usbd.c **** 	  break;
 982:/opt/XMClib/XMC_Peripheral_Library_v2.1.16/XMCLib/src/xmc_usbd.c ****     case (XMC_USBD_EVENT_RESUME):
 983:/opt/XMClib/XMC_Peripheral_Library_v2.1.16/XMCLib/src/xmc_usbd.c **** 	  clear.b.wkupintr = 1U;
 984:/opt/XMClib/XMC_Peripheral_Library_v2.1.16/XMCLib/src/xmc_usbd.c **** 	  break;
 985:/opt/XMClib/XMC_Peripheral_Library_v2.1.16/XMCLib/src/xmc_usbd.c ****     case (XMC_USBD_EVENT_REMOTE_WAKEUP):
 986:/opt/XMClib/XMC_Peripheral_Library_v2.1.16/XMCLib/src/xmc_usbd.c **** 	  clear.b.wkupintr = 1U;
 987:/opt/XMClib/XMC_Peripheral_Library_v2.1.16/XMCLib/src/xmc_usbd.c **** 	  break;
 988:/opt/XMClib/XMC_Peripheral_Library_v2.1.16/XMCLib/src/xmc_usbd.c ****     case (XMC_USBD_EVENT_SOF):
 989:/opt/XMClib/XMC_Peripheral_Library_v2.1.16/XMCLib/src/xmc_usbd.c **** 	  clear.b.sofintr = 1U;
 990:/opt/XMClib/XMC_Peripheral_Library_v2.1.16/XMCLib/src/xmc_usbd.c **** 	  break;
 991:/opt/XMClib/XMC_Peripheral_Library_v2.1.16/XMCLib/src/xmc_usbd.c ****     case (XMC_USBD_EVENT_EARLYSUSPEND):
 992:/opt/XMClib/XMC_Peripheral_Library_v2.1.16/XMCLib/src/xmc_usbd.c **** 	  clear.b.erlysuspend = 1U;
 993:/opt/XMClib/XMC_Peripheral_Library_v2.1.16/XMCLib/src/xmc_usbd.c **** 	  break;
 994:/opt/XMClib/XMC_Peripheral_Library_v2.1.16/XMCLib/src/xmc_usbd.c ****     case (XMC_USBD_EVENT_ENUMDONE):
 995:/opt/XMClib/XMC_Peripheral_Library_v2.1.16/XMCLib/src/xmc_usbd.c **** 	  clear.b.enumdone = 1U;
 996:/opt/XMClib/XMC_Peripheral_Library_v2.1.16/XMCLib/src/xmc_usbd.c **** 	  break;
 997:/opt/XMClib/XMC_Peripheral_Library_v2.1.16/XMCLib/src/xmc_usbd.c ****     case (XMC_USBD_EVENT_OUTEP):
 998:/opt/XMClib/XMC_Peripheral_Library_v2.1.16/XMCLib/src/xmc_usbd.c **** 	  clear.b.outepintr = 1U;
 999:/opt/XMClib/XMC_Peripheral_Library_v2.1.16/XMCLib/src/xmc_usbd.c **** 	  break;
1000:/opt/XMClib/XMC_Peripheral_Library_v2.1.16/XMCLib/src/xmc_usbd.c **** 		default:
1001:/opt/XMClib/XMC_Peripheral_Library_v2.1.16/XMCLib/src/xmc_usbd.c **** 		break;
1002:/opt/XMClib/XMC_Peripheral_Library_v2.1.16/XMCLib/src/xmc_usbd.c **** 	}
1003:/opt/XMClib/XMC_Peripheral_Library_v2.1.16/XMCLib/src/xmc_usbd.c **** 	xmc_device.global_register->gintsts = clear.d32;
1004:/opt/XMClib/XMC_Peripheral_Library_v2.1.16/XMCLib/src/xmc_usbd.c **** }
1005:/opt/XMClib/XMC_Peripheral_Library_v2.1.16/XMCLib/src/xmc_usbd.c **** 
1006:/opt/XMClib/XMC_Peripheral_Library_v2.1.16/XMCLib/src/xmc_usbd.c **** /**
1007:/opt/XMClib/XMC_Peripheral_Library_v2.1.16/XMCLib/src/xmc_usbd.c ****  * Clear the USB OTG events
1008:/opt/XMClib/XMC_Peripheral_Library_v2.1.16/XMCLib/src/xmc_usbd.c ****  **/
1009:/opt/XMClib/XMC_Peripheral_Library_v2.1.16/XMCLib/src/xmc_usbd.c **** static void XMC_USBD_lClearEventOTG(uint32_t event)
1010:/opt/XMClib/XMC_Peripheral_Library_v2.1.16/XMCLib/src/xmc_usbd.c **** {
1011:/opt/XMClib/XMC_Peripheral_Library_v2.1.16/XMCLib/src/xmc_usbd.c ****   gotgint_data_t clear = { .d32 = 0U};
1012:/opt/XMClib/XMC_Peripheral_Library_v2.1.16/XMCLib/src/xmc_usbd.c ****   clear.d32 = event;
1013:/opt/XMClib/XMC_Peripheral_Library_v2.1.16/XMCLib/src/xmc_usbd.c ****   xmc_device.global_register->gotgint = clear.d32;
1014:/opt/XMClib/XMC_Peripheral_Library_v2.1.16/XMCLib/src/xmc_usbd.c **** }
1015:/opt/XMClib/XMC_Peripheral_Library_v2.1.16/XMCLib/src/xmc_usbd.c **** 
1016:/opt/XMClib/XMC_Peripheral_Library_v2.1.16/XMCLib/src/xmc_usbd.c **** /**
1017:/opt/XMClib/XMC_Peripheral_Library_v2.1.16/XMCLib/src/xmc_usbd.c ****  * Clear the USB IN EP events
1018:/opt/XMClib/XMC_Peripheral_Library_v2.1.16/XMCLib/src/xmc_usbd.c ****  **/
1019:/opt/XMClib/XMC_Peripheral_Library_v2.1.16/XMCLib/src/xmc_usbd.c **** void XMC_USBD_ClearEventINEP(uint32_t event,const uint8_t ep_num)
1020:/opt/XMClib/XMC_Peripheral_Library_v2.1.16/XMCLib/src/xmc_usbd.c **** {
1021:/opt/XMClib/XMC_Peripheral_Library_v2.1.16/XMCLib/src/xmc_usbd.c ****   diepint_data_t clear;
1022:/opt/XMClib/XMC_Peripheral_Library_v2.1.16/XMCLib/src/xmc_usbd.c ****   clear.d32 = event;
1023:/opt/XMClib/XMC_Peripheral_Library_v2.1.16/XMCLib/src/xmc_usbd.c ****   xmc_device.endpoint_in_register[ep_num]->diepint = clear.d32;
1024:/opt/XMClib/XMC_Peripheral_Library_v2.1.16/XMCLib/src/xmc_usbd.c **** }
1025:/opt/XMClib/XMC_Peripheral_Library_v2.1.16/XMCLib/src/xmc_usbd.c **** 
1026:/opt/XMClib/XMC_Peripheral_Library_v2.1.16/XMCLib/src/xmc_usbd.c **** /**
1027:/opt/XMClib/XMC_Peripheral_Library_v2.1.16/XMCLib/src/xmc_usbd.c ****  * Clear the USB OUT EP events
1028:/opt/XMClib/XMC_Peripheral_Library_v2.1.16/XMCLib/src/xmc_usbd.c ****  **/
1029:/opt/XMClib/XMC_Peripheral_Library_v2.1.16/XMCLib/src/xmc_usbd.c **** void XMC_USBD_ClearEventOUTEP(uint32_t event,const uint8_t ep_num)
1030:/opt/XMClib/XMC_Peripheral_Library_v2.1.16/XMCLib/src/xmc_usbd.c **** {
1031:/opt/XMClib/XMC_Peripheral_Library_v2.1.16/XMCLib/src/xmc_usbd.c ****   doepint_data_t clear;
1032:/opt/XMClib/XMC_Peripheral_Library_v2.1.16/XMCLib/src/xmc_usbd.c ****   clear.d32 = event;
1033:/opt/XMClib/XMC_Peripheral_Library_v2.1.16/XMCLib/src/xmc_usbd.c ****   xmc_device.endpoint_out_register[ep_num]->doepint = clear.d32;
1034:/opt/XMClib/XMC_Peripheral_Library_v2.1.16/XMCLib/src/xmc_usbd.c **** }
1035:/opt/XMClib/XMC_Peripheral_Library_v2.1.16/XMCLib/src/xmc_usbd.c **** 
1036:/opt/XMClib/XMC_Peripheral_Library_v2.1.16/XMCLib/src/xmc_usbd.c **** /**
1037:/opt/XMClib/XMC_Peripheral_Library_v2.1.16/XMCLib/src/xmc_usbd.c ****  * Enable the USB OUT EP events
1038:/opt/XMClib/XMC_Peripheral_Library_v2.1.16/XMCLib/src/xmc_usbd.c ****  **/
1039:/opt/XMClib/XMC_Peripheral_Library_v2.1.16/XMCLib/src/xmc_usbd.c **** void XMC_USBD_EnableEventOUTEP(uint32_t event)
1040:/opt/XMClib/XMC_Peripheral_Library_v2.1.16/XMCLib/src/xmc_usbd.c **** {
1041:/opt/XMClib/XMC_Peripheral_Library_v2.1.16/XMCLib/src/xmc_usbd.c **** 	doepint_data_t doepint;
1042:/opt/XMClib/XMC_Peripheral_Library_v2.1.16/XMCLib/src/xmc_usbd.c **** 	doepint.d32 = event;
1043:/opt/XMClib/XMC_Peripheral_Library_v2.1.16/XMCLib/src/xmc_usbd.c **** 	xmc_device.device_register->doepmsk |= doepint.d32;
1044:/opt/XMClib/XMC_Peripheral_Library_v2.1.16/XMCLib/src/xmc_usbd.c **** }
1045:/opt/XMClib/XMC_Peripheral_Library_v2.1.16/XMCLib/src/xmc_usbd.c **** 
1046:/opt/XMClib/XMC_Peripheral_Library_v2.1.16/XMCLib/src/xmc_usbd.c **** /**
1047:/opt/XMClib/XMC_Peripheral_Library_v2.1.16/XMCLib/src/xmc_usbd.c ****  * Enable the USB IN EP events
1048:/opt/XMClib/XMC_Peripheral_Library_v2.1.16/XMCLib/src/xmc_usbd.c ****  **/
1049:/opt/XMClib/XMC_Peripheral_Library_v2.1.16/XMCLib/src/xmc_usbd.c **** void XMC_USBD_EnableEventINEP(uint32_t event)
1050:/opt/XMClib/XMC_Peripheral_Library_v2.1.16/XMCLib/src/xmc_usbd.c **** {
1051:/opt/XMClib/XMC_Peripheral_Library_v2.1.16/XMCLib/src/xmc_usbd.c **** 	diepint_data_t diepint;
1052:/opt/XMClib/XMC_Peripheral_Library_v2.1.16/XMCLib/src/xmc_usbd.c **** 	diepint.d32 = event;
1053:/opt/XMClib/XMC_Peripheral_Library_v2.1.16/XMCLib/src/xmc_usbd.c **** 	xmc_device.device_register->diepmsk |= diepint.d32;
1054:/opt/XMClib/XMC_Peripheral_Library_v2.1.16/XMCLib/src/xmc_usbd.c **** }
1055:/opt/XMClib/XMC_Peripheral_Library_v2.1.16/XMCLib/src/xmc_usbd.c **** 
1056:/opt/XMClib/XMC_Peripheral_Library_v2.1.16/XMCLib/src/xmc_usbd.c **** /**
1057:/opt/XMClib/XMC_Peripheral_Library_v2.1.16/XMCLib/src/xmc_usbd.c ****  * Gets the USB device capabilities
1058:/opt/XMClib/XMC_Peripheral_Library_v2.1.16/XMCLib/src/xmc_usbd.c ****  **/
1059:/opt/XMClib/XMC_Peripheral_Library_v2.1.16/XMCLib/src/xmc_usbd.c **** XMC_USBD_CAPABILITIES_t XMC_USBD_GetCapabilities()
1060:/opt/XMClib/XMC_Peripheral_Library_v2.1.16/XMCLib/src/xmc_usbd.c **** {
 313              		.loc 1 1060 0
 314              		.cfi_startproc
 315              		@ args = 0, pretend = 0, frame = 0
 316              		@ frame_needed = 0, uses_anonymous_args = 0
 317              		@ link register save eliminated.
 318              	.LVL28:
1061:/opt/XMClib/XMC_Peripheral_Library_v2.1.16/XMCLib/src/xmc_usbd.c ****   XMC_USBD_CAPABILITIES_t cap={0U};
1062:/opt/XMClib/XMC_Peripheral_Library_v2.1.16/XMCLib/src/xmc_usbd.c ****   cap.event_connect = 1U;
1063:/opt/XMClib/XMC_Peripheral_Library_v2.1.16/XMCLib/src/xmc_usbd.c ****   cap.event_disconnect = 1U;
1064:/opt/XMClib/XMC_Peripheral_Library_v2.1.16/XMCLib/src/xmc_usbd.c **** #if UC_SERIES == 45
1065:/opt/XMClib/XMC_Peripheral_Library_v2.1.16/XMCLib/src/xmc_usbd.c ****   cap.event_power_off = 1U;
1066:/opt/XMClib/XMC_Peripheral_Library_v2.1.16/XMCLib/src/xmc_usbd.c ****   cap.event_power_on = 1U;
1067:/opt/XMClib/XMC_Peripheral_Library_v2.1.16/XMCLib/src/xmc_usbd.c **** #else
1068:/opt/XMClib/XMC_Peripheral_Library_v2.1.16/XMCLib/src/xmc_usbd.c ****   cap.event_power_off = 0U;
1069:/opt/XMClib/XMC_Peripheral_Library_v2.1.16/XMCLib/src/xmc_usbd.c ****   cap.event_power_on = 0U;
1070:/opt/XMClib/XMC_Peripheral_Library_v2.1.16/XMCLib/src/xmc_usbd.c **** #endif
1071:/opt/XMClib/XMC_Peripheral_Library_v2.1.16/XMCLib/src/xmc_usbd.c ****   cap.event_high_speed = 0U;
1072:/opt/XMClib/XMC_Peripheral_Library_v2.1.16/XMCLib/src/xmc_usbd.c ****   cap.event_remote_wakeup = 1U;
1073:/opt/XMClib/XMC_Peripheral_Library_v2.1.16/XMCLib/src/xmc_usbd.c ****   cap.event_reset = 1U;
1074:/opt/XMClib/XMC_Peripheral_Library_v2.1.16/XMCLib/src/xmc_usbd.c ****   cap.event_resume = 1U;
1075:/opt/XMClib/XMC_Peripheral_Library_v2.1.16/XMCLib/src/xmc_usbd.c ****   cap.event_suspend = 1U;
1076:/opt/XMClib/XMC_Peripheral_Library_v2.1.16/XMCLib/src/xmc_usbd.c ****   cap.reserved = 0U;
1077:/opt/XMClib/XMC_Peripheral_Library_v2.1.16/XMCLib/src/xmc_usbd.c ****   return cap;
1078:/opt/XMClib/XMC_Peripheral_Library_v2.1.16/XMCLib/src/xmc_usbd.c **** }
 319              		.loc 1 1078 0
 320 0000 40F2DF10 		movw	r0, #479
 321 0004 7047     		bx	lr
 322              		.cfi_endproc
 323              	.LFE186:
 325 0006 00BF     		.section	.text.XMC_USBD_DeviceConnect,"ax",%progbits
 326              		.align	1
 327              		.p2align 2,,3
 328              		.global	XMC_USBD_DeviceConnect
 329              		.syntax unified
 330              		.thumb
 331              		.thumb_func
 332              		.fpu fpv4-sp-d16
 334              	XMC_USBD_DeviceConnect:
 335              	.LFB189:
1079:/opt/XMClib/XMC_Peripheral_Library_v2.1.16/XMCLib/src/xmc_usbd.c **** 
1080:/opt/XMClib/XMC_Peripheral_Library_v2.1.16/XMCLib/src/xmc_usbd.c **** /**
1081:/opt/XMClib/XMC_Peripheral_Library_v2.1.16/XMCLib/src/xmc_usbd.c ****  * Initializes the USB device
1082:/opt/XMClib/XMC_Peripheral_Library_v2.1.16/XMCLib/src/xmc_usbd.c ****  **/
1083:/opt/XMClib/XMC_Peripheral_Library_v2.1.16/XMCLib/src/xmc_usbd.c **** XMC_USBD_STATUS_t XMC_USBD_Init(XMC_USBD_t *obj)
1084:/opt/XMClib/XMC_Peripheral_Library_v2.1.16/XMCLib/src/xmc_usbd.c **** {
1085:/opt/XMClib/XMC_Peripheral_Library_v2.1.16/XMCLib/src/xmc_usbd.c ****   uint8_t *XMC_USBD_BASE_ADDRESS;
1086:/opt/XMClib/XMC_Peripheral_Library_v2.1.16/XMCLib/src/xmc_usbd.c ****   uint32_t i;
1087:/opt/XMClib/XMC_Peripheral_Library_v2.1.16/XMCLib/src/xmc_usbd.c ****   gahbcfg_data_t gahbcfg;
1088:/opt/XMClib/XMC_Peripheral_Library_v2.1.16/XMCLib/src/xmc_usbd.c ****   gusbcfg_data_t gusbcfg;
1089:/opt/XMClib/XMC_Peripheral_Library_v2.1.16/XMCLib/src/xmc_usbd.c ****   dcfg_data_t dcfg;
1090:/opt/XMClib/XMC_Peripheral_Library_v2.1.16/XMCLib/src/xmc_usbd.c ****   dctl_data_t dctl;
1091:/opt/XMClib/XMC_Peripheral_Library_v2.1.16/XMCLib/src/xmc_usbd.c ****   gintmsk_data_t gintmsk;
1092:/opt/XMClib/XMC_Peripheral_Library_v2.1.16/XMCLib/src/xmc_usbd.c **** 
1093:/opt/XMClib/XMC_Peripheral_Library_v2.1.16/XMCLib/src/xmc_usbd.c ****   XMC_ASSERT("XMC_USBD_Init: obj.usbd_max_num_eps not of type XMC_USBD_MAX_NUM_EPS_t",
1094:/opt/XMClib/XMC_Peripheral_Library_v2.1.16/XMCLib/src/xmc_usbd.c ****  		      XMC_USBD_CHECK_INPUT_MAX_NUM_EPS(obj->usbd_max_num_eps))
1095:/opt/XMClib/XMC_Peripheral_Library_v2.1.16/XMCLib/src/xmc_usbd.c ****   
1096:/opt/XMClib/XMC_Peripheral_Library_v2.1.16/XMCLib/src/xmc_usbd.c ****   XMC_USBD_Enable();
1097:/opt/XMClib/XMC_Peripheral_Library_v2.1.16/XMCLib/src/xmc_usbd.c ****   
1098:/opt/XMClib/XMC_Peripheral_Library_v2.1.16/XMCLib/src/xmc_usbd.c ****   usbd_init = obj;
1099:/opt/XMClib/XMC_Peripheral_Library_v2.1.16/XMCLib/src/xmc_usbd.c **** 
1100:/opt/XMClib/XMC_Peripheral_Library_v2.1.16/XMCLib/src/xmc_usbd.c ****   /* Filling out buffer size */
1101:/opt/XMClib/XMC_Peripheral_Library_v2.1.16/XMCLib/src/xmc_usbd.c ****   for(i = 0U;i < (uint32_t)XMC_USBD_NUM_EPS;i++)
1102:/opt/XMClib/XMC_Peripheral_Library_v2.1.16/XMCLib/src/xmc_usbd.c ****   {
1103:/opt/XMClib/XMC_Peripheral_Library_v2.1.16/XMCLib/src/xmc_usbd.c **** 	  XMC_USBD_EP_OUT_BUFFERSIZE[i] = XMC_USBD_EP0_BUFFER_SIZE;
1104:/opt/XMClib/XMC_Peripheral_Library_v2.1.16/XMCLib/src/xmc_usbd.c **** 	  XMC_USBD_EP_IN_BUFFERSIZE[i] 	= XMC_USBD_EP0_BUFFER_SIZE;
1105:/opt/XMClib/XMC_Peripheral_Library_v2.1.16/XMCLib/src/xmc_usbd.c ****   }
1106:/opt/XMClib/XMC_Peripheral_Library_v2.1.16/XMCLib/src/xmc_usbd.c **** 
1107:/opt/XMClib/XMC_Peripheral_Library_v2.1.16/XMCLib/src/xmc_usbd.c ****   /* clear device status */
1108:/opt/XMClib/XMC_Peripheral_Library_v2.1.16/XMCLib/src/xmc_usbd.c ****   memset((void*)&xmc_device,0x0U,sizeof(XMC_USBD_DEVICE_t));
1109:/opt/XMClib/XMC_Peripheral_Library_v2.1.16/XMCLib/src/xmc_usbd.c **** 
1110:/opt/XMClib/XMC_Peripheral_Library_v2.1.16/XMCLib/src/xmc_usbd.c ****   /* assign callbacks */
1111:/opt/XMClib/XMC_Peripheral_Library_v2.1.16/XMCLib/src/xmc_usbd.c ****   xmc_device.DeviceEvent_cb = obj->cb_xmc_device_event;
1112:/opt/XMClib/XMC_Peripheral_Library_v2.1.16/XMCLib/src/xmc_usbd.c ****   xmc_device.EndpointEvent_cb = obj->cb_endpoint_event;
1113:/opt/XMClib/XMC_Peripheral_Library_v2.1.16/XMCLib/src/xmc_usbd.c ****   XMC_USBD_BASE_ADDRESS = (uint8_t *)(obj->usbd);
1114:/opt/XMClib/XMC_Peripheral_Library_v2.1.16/XMCLib/src/xmc_usbd.c ****   /* assign register address */
1115:/opt/XMClib/XMC_Peripheral_Library_v2.1.16/XMCLib/src/xmc_usbd.c ****   xmc_device.global_register = (dwc_otg_core_global_regs_t*)(obj->usbd);
1116:/opt/XMClib/XMC_Peripheral_Library_v2.1.16/XMCLib/src/xmc_usbd.c ****   xmc_device.device_register = ((dwc_otg_device_global_regs_t*)(XMC_USBD_BASE_ADDRESS + DWC_DEV_GLO
1117:/opt/XMClib/XMC_Peripheral_Library_v2.1.16/XMCLib/src/xmc_usbd.c ****   for (i = 0U;i < (uint32_t)XMC_USBD_NUM_EPS;i++)
1118:/opt/XMClib/XMC_Peripheral_Library_v2.1.16/XMCLib/src/xmc_usbd.c ****   {
1119:/opt/XMClib/XMC_Peripheral_Library_v2.1.16/XMCLib/src/xmc_usbd.c ****     xmc_device.endpoint_in_register[i] = (dwc_otg_dev_in_ep_regs_t*)(XMC_USBD_BASE_ADDRESS + DWC_DE
1120:/opt/XMClib/XMC_Peripheral_Library_v2.1.16/XMCLib/src/xmc_usbd.c ****     ((uint32_t)DWC_EP_REG_OFFSET*i));
1121:/opt/XMClib/XMC_Peripheral_Library_v2.1.16/XMCLib/src/xmc_usbd.c ****   }
1122:/opt/XMClib/XMC_Peripheral_Library_v2.1.16/XMCLib/src/xmc_usbd.c ****   for (i = 0U;i < (uint32_t)XMC_USBD_NUM_EPS;i++)
1123:/opt/XMClib/XMC_Peripheral_Library_v2.1.16/XMCLib/src/xmc_usbd.c ****   {
1124:/opt/XMClib/XMC_Peripheral_Library_v2.1.16/XMCLib/src/xmc_usbd.c ****     xmc_device.endpoint_out_register[i] = (dwc_otg_dev_out_ep_regs_t*)(XMC_USBD_BASE_ADDRESS +
1125:/opt/XMClib/XMC_Peripheral_Library_v2.1.16/XMCLib/src/xmc_usbd.c ****     									  DWC_DEV_OUT_EP_REG_OFFSET +
1126:/opt/XMClib/XMC_Peripheral_Library_v2.1.16/XMCLib/src/xmc_usbd.c ****     									  ((uint32_t)DWC_EP_REG_OFFSET*i));
1127:/opt/XMClib/XMC_Peripheral_Library_v2.1.16/XMCLib/src/xmc_usbd.c ****   }
1128:/opt/XMClib/XMC_Peripheral_Library_v2.1.16/XMCLib/src/xmc_usbd.c ****   for (i = 0U;i < (uint32_t)XMC_USBD_NUM_TX_FIFOS;i++)
1129:/opt/XMClib/XMC_Peripheral_Library_v2.1.16/XMCLib/src/xmc_usbd.c ****   {
1130:/opt/XMClib/XMC_Peripheral_Library_v2.1.16/XMCLib/src/xmc_usbd.c ****     xmc_device.fifo[i] = (uint32_t*)(XMC_USBD_BASE_ADDRESS +
1131:/opt/XMClib/XMC_Peripheral_Library_v2.1.16/XMCLib/src/xmc_usbd.c ****     						XMC_USBD_TX_FIFO_REG_OFFSET +
1132:/opt/XMClib/XMC_Peripheral_Library_v2.1.16/XMCLib/src/xmc_usbd.c ****     						(i * XMC_USBD_TX_FIFO_OFFSET));
1133:/opt/XMClib/XMC_Peripheral_Library_v2.1.16/XMCLib/src/xmc_usbd.c ****   }
1134:/opt/XMClib/XMC_Peripheral_Library_v2.1.16/XMCLib/src/xmc_usbd.c ****   /* obj data structure for endpoint 0 */
1135:/opt/XMClib/XMC_Peripheral_Library_v2.1.16/XMCLib/src/xmc_usbd.c ****   /* Done by driver core */
1136:/opt/XMClib/XMC_Peripheral_Library_v2.1.16/XMCLib/src/xmc_usbd.c ****   /* configure ahb details */  
1137:/opt/XMClib/XMC_Peripheral_Library_v2.1.16/XMCLib/src/xmc_usbd.c ****   gahbcfg.d32 = xmc_device.global_register->gahbcfg;
1138:/opt/XMClib/XMC_Peripheral_Library_v2.1.16/XMCLib/src/xmc_usbd.c ****   gahbcfg.b.glblintrmsk = 1U; /* enable interrupts ( global mask ) */
1139:/opt/XMClib/XMC_Peripheral_Library_v2.1.16/XMCLib/src/xmc_usbd.c ****   gahbcfg.b.nptxfemplvl_txfemplvl = 1U;
1140:/opt/XMClib/XMC_Peripheral_Library_v2.1.16/XMCLib/src/xmc_usbd.c ****   if(obj->usbd_transfer_mode == XMC_USBD_USE_DMA)
1141:/opt/XMClib/XMC_Peripheral_Library_v2.1.16/XMCLib/src/xmc_usbd.c ****   {
1142:/opt/XMClib/XMC_Peripheral_Library_v2.1.16/XMCLib/src/xmc_usbd.c ****     /* Enable dma if needed */
1143:/opt/XMClib/XMC_Peripheral_Library_v2.1.16/XMCLib/src/xmc_usbd.c ****     gahbcfg.b.dmaenable = 1U; /* enable dma if needed */
1144:/opt/XMClib/XMC_Peripheral_Library_v2.1.16/XMCLib/src/xmc_usbd.c ****   }
1145:/opt/XMClib/XMC_Peripheral_Library_v2.1.16/XMCLib/src/xmc_usbd.c ****   else
1146:/opt/XMClib/XMC_Peripheral_Library_v2.1.16/XMCLib/src/xmc_usbd.c ****   {
1147:/opt/XMClib/XMC_Peripheral_Library_v2.1.16/XMCLib/src/xmc_usbd.c ****     gahbcfg.b.dmaenable = 0U;
1148:/opt/XMClib/XMC_Peripheral_Library_v2.1.16/XMCLib/src/xmc_usbd.c ****   }
1149:/opt/XMClib/XMC_Peripheral_Library_v2.1.16/XMCLib/src/xmc_usbd.c ****   xmc_device.global_register->gahbcfg = gahbcfg.d32;
1150:/opt/XMClib/XMC_Peripheral_Library_v2.1.16/XMCLib/src/xmc_usbd.c ****   /* configure usb details */  
1151:/opt/XMClib/XMC_Peripheral_Library_v2.1.16/XMCLib/src/xmc_usbd.c ****   gusbcfg.d32= xmc_device.global_register->gusbcfg;
1152:/opt/XMClib/XMC_Peripheral_Library_v2.1.16/XMCLib/src/xmc_usbd.c ****   gusbcfg.b.force_dev_mode = 1U; /* force us into device mode */
1153:/opt/XMClib/XMC_Peripheral_Library_v2.1.16/XMCLib/src/xmc_usbd.c ****   gusbcfg.b.srpcap = 1U; /* enable session request protocoll */
1154:/opt/XMClib/XMC_Peripheral_Library_v2.1.16/XMCLib/src/xmc_usbd.c ****   xmc_device.global_register->gusbcfg = gusbcfg.d32;
1155:/opt/XMClib/XMC_Peripheral_Library_v2.1.16/XMCLib/src/xmc_usbd.c **** 
1156:/opt/XMClib/XMC_Peripheral_Library_v2.1.16/XMCLib/src/xmc_usbd.c ****   /* Device init */
1157:/opt/XMClib/XMC_Peripheral_Library_v2.1.16/XMCLib/src/xmc_usbd.c ****   /* configure device speed */  
1158:/opt/XMClib/XMC_Peripheral_Library_v2.1.16/XMCLib/src/xmc_usbd.c ****   dcfg.d32 = xmc_device.device_register->dcfg;
1159:/opt/XMClib/XMC_Peripheral_Library_v2.1.16/XMCLib/src/xmc_usbd.c ****   dcfg.b.devspd = XMC_USBD_DCFG_DEVSPD_FS;
1160:/opt/XMClib/XMC_Peripheral_Library_v2.1.16/XMCLib/src/xmc_usbd.c ****   dcfg.b.descdma = 0U;
1161:/opt/XMClib/XMC_Peripheral_Library_v2.1.16/XMCLib/src/xmc_usbd.c ****   xmc_device.device_register->dcfg = dcfg.d32;
1162:/opt/XMClib/XMC_Peripheral_Library_v2.1.16/XMCLib/src/xmc_usbd.c ****   /* configure device functions */  
1163:/opt/XMClib/XMC_Peripheral_Library_v2.1.16/XMCLib/src/xmc_usbd.c ****   dctl.d32 = xmc_device.device_register->dctl;
1164:/opt/XMClib/XMC_Peripheral_Library_v2.1.16/XMCLib/src/xmc_usbd.c ****   dctl.b.sftdiscon = 1U; /* disconnect the device until its connected by the user */
1165:/opt/XMClib/XMC_Peripheral_Library_v2.1.16/XMCLib/src/xmc_usbd.c ****   /* all other config is done by default register value */
1166:/opt/XMClib/XMC_Peripheral_Library_v2.1.16/XMCLib/src/xmc_usbd.c ****   xmc_device.device_register->dctl = dctl.d32;
1167:/opt/XMClib/XMC_Peripheral_Library_v2.1.16/XMCLib/src/xmc_usbd.c ****   /* flush the fifos for proper operation */
1168:/opt/XMClib/XMC_Peripheral_Library_v2.1.16/XMCLib/src/xmc_usbd.c ****   XMC_USBD_lFlushTXFifo((uint8_t)0x10U); /* 0x10 == all fifos, see doc */
1169:/opt/XMClib/XMC_Peripheral_Library_v2.1.16/XMCLib/src/xmc_usbd.c ****   XMC_USBD_lFlushRXFifo();
1170:/opt/XMClib/XMC_Peripheral_Library_v2.1.16/XMCLib/src/xmc_usbd.c ****   /* Enable Global Interrupts */
1171:/opt/XMClib/XMC_Peripheral_Library_v2.1.16/XMCLib/src/xmc_usbd.c ****   /* clear interrupt status bits prior to unmasking */
1172:/opt/XMClib/XMC_Peripheral_Library_v2.1.16/XMCLib/src/xmc_usbd.c ****   xmc_device.global_register->gintmsk = 0U; /* disable all interrupts */
1173:/opt/XMClib/XMC_Peripheral_Library_v2.1.16/XMCLib/src/xmc_usbd.c ****   xmc_device.global_register->gintsts = 0xFFFFFFFFU; /* clear all interrupts */
1174:/opt/XMClib/XMC_Peripheral_Library_v2.1.16/XMCLib/src/xmc_usbd.c ****  
1175:/opt/XMClib/XMC_Peripheral_Library_v2.1.16/XMCLib/src/xmc_usbd.c ****   gintmsk.d32 = 0U;
1176:/opt/XMClib/XMC_Peripheral_Library_v2.1.16/XMCLib/src/xmc_usbd.c ****   /* enable common interrupts */
1177:/opt/XMClib/XMC_Peripheral_Library_v2.1.16/XMCLib/src/xmc_usbd.c ****   gintmsk.b.modemismatch = 1U;
1178:/opt/XMClib/XMC_Peripheral_Library_v2.1.16/XMCLib/src/xmc_usbd.c ****   gintmsk.b.otgintr = 1U;
1179:/opt/XMClib/XMC_Peripheral_Library_v2.1.16/XMCLib/src/xmc_usbd.c ****   gintmsk.b.sessreqintr = 1U;
1180:/opt/XMClib/XMC_Peripheral_Library_v2.1.16/XMCLib/src/xmc_usbd.c ****   /* enable device interrupts */
1181:/opt/XMClib/XMC_Peripheral_Library_v2.1.16/XMCLib/src/xmc_usbd.c ****   gintmsk.b.usbreset = 1U;
1182:/opt/XMClib/XMC_Peripheral_Library_v2.1.16/XMCLib/src/xmc_usbd.c ****   gintmsk.b.enumdone = 1U;
1183:/opt/XMClib/XMC_Peripheral_Library_v2.1.16/XMCLib/src/xmc_usbd.c ****   gintmsk.b.erlysuspend = 1U;
1184:/opt/XMClib/XMC_Peripheral_Library_v2.1.16/XMCLib/src/xmc_usbd.c ****   gintmsk.b.usbsuspend = 1U;
1185:/opt/XMClib/XMC_Peripheral_Library_v2.1.16/XMCLib/src/xmc_usbd.c ****   gintmsk.b.wkupintr = 1U;
1186:/opt/XMClib/XMC_Peripheral_Library_v2.1.16/XMCLib/src/xmc_usbd.c ****   gintmsk.b.sofintr = 1U;
1187:/opt/XMClib/XMC_Peripheral_Library_v2.1.16/XMCLib/src/xmc_usbd.c ****   if(obj->usbd_transfer_mode == XMC_USBD_USE_FIFO)
1188:/opt/XMClib/XMC_Peripheral_Library_v2.1.16/XMCLib/src/xmc_usbd.c ****   {
1189:/opt/XMClib/XMC_Peripheral_Library_v2.1.16/XMCLib/src/xmc_usbd.c ****     gintmsk.b.rxstsqlvl = 1U;
1190:/opt/XMClib/XMC_Peripheral_Library_v2.1.16/XMCLib/src/xmc_usbd.c ****   }
1191:/opt/XMClib/XMC_Peripheral_Library_v2.1.16/XMCLib/src/xmc_usbd.c ****   gintmsk.b.outepintr = 1U;
1192:/opt/XMClib/XMC_Peripheral_Library_v2.1.16/XMCLib/src/xmc_usbd.c ****   gintmsk.b.inepintr = 1U;
1193:/opt/XMClib/XMC_Peripheral_Library_v2.1.16/XMCLib/src/xmc_usbd.c ****   xmc_device.global_register->gintmsk = gintmsk.d32;
1194:/opt/XMClib/XMC_Peripheral_Library_v2.1.16/XMCLib/src/xmc_usbd.c ****   return XMC_USBD_STATUS_OK;
1195:/opt/XMClib/XMC_Peripheral_Library_v2.1.16/XMCLib/src/xmc_usbd.c **** }
1196:/opt/XMClib/XMC_Peripheral_Library_v2.1.16/XMCLib/src/xmc_usbd.c **** 
1197:/opt/XMClib/XMC_Peripheral_Library_v2.1.16/XMCLib/src/xmc_usbd.c **** /**
1198:/opt/XMClib/XMC_Peripheral_Library_v2.1.16/XMCLib/src/xmc_usbd.c ****  * Uninitializes the USB device
1199:/opt/XMClib/XMC_Peripheral_Library_v2.1.16/XMCLib/src/xmc_usbd.c ****  **/
1200:/opt/XMClib/XMC_Peripheral_Library_v2.1.16/XMCLib/src/xmc_usbd.c **** XMC_USBD_STATUS_t XMC_USBD_Uninitialize() 
1201:/opt/XMClib/XMC_Peripheral_Library_v2.1.16/XMCLib/src/xmc_usbd.c **** {
1202:/opt/XMClib/XMC_Peripheral_Library_v2.1.16/XMCLib/src/xmc_usbd.c ****   /* Disconnect the device */
1203:/opt/XMClib/XMC_Peripheral_Library_v2.1.16/XMCLib/src/xmc_usbd.c ****   dctl_data_t dctl;
1204:/opt/XMClib/XMC_Peripheral_Library_v2.1.16/XMCLib/src/xmc_usbd.c **** 	dctl.d32 = xmc_device.device_register->dctl;
1205:/opt/XMClib/XMC_Peripheral_Library_v2.1.16/XMCLib/src/xmc_usbd.c ****   dctl.b.sftdiscon = 1U;
1206:/opt/XMClib/XMC_Peripheral_Library_v2.1.16/XMCLib/src/xmc_usbd.c ****   xmc_device.device_register->dctl = dctl.d32;
1207:/opt/XMClib/XMC_Peripheral_Library_v2.1.16/XMCLib/src/xmc_usbd.c ****   /* clean up */
1208:/opt/XMClib/XMC_Peripheral_Library_v2.1.16/XMCLib/src/xmc_usbd.c ****   memset((void*)&xmc_device,0U,sizeof(xmc_device));
1209:/opt/XMClib/XMC_Peripheral_Library_v2.1.16/XMCLib/src/xmc_usbd.c ****   return XMC_USBD_STATUS_OK;
1210:/opt/XMClib/XMC_Peripheral_Library_v2.1.16/XMCLib/src/xmc_usbd.c **** }
1211:/opt/XMClib/XMC_Peripheral_Library_v2.1.16/XMCLib/src/xmc_usbd.c **** 
1212:/opt/XMClib/XMC_Peripheral_Library_v2.1.16/XMCLib/src/xmc_usbd.c **** /**
1213:/opt/XMClib/XMC_Peripheral_Library_v2.1.16/XMCLib/src/xmc_usbd.c ****  * Connects the USB device to host
1214:/opt/XMClib/XMC_Peripheral_Library_v2.1.16/XMCLib/src/xmc_usbd.c ****  **/
1215:/opt/XMClib/XMC_Peripheral_Library_v2.1.16/XMCLib/src/xmc_usbd.c **** XMC_USBD_STATUS_t XMC_USBD_DeviceConnect() 
1216:/opt/XMClib/XMC_Peripheral_Library_v2.1.16/XMCLib/src/xmc_usbd.c **** {
 336              		.loc 1 1216 0
 337              		.cfi_startproc
 338              		@ args = 0, pretend = 0, frame = 0
 339              		@ frame_needed = 0, uses_anonymous_args = 0
 340              		@ link register save eliminated.
1217:/opt/XMClib/XMC_Peripheral_Library_v2.1.16/XMCLib/src/xmc_usbd.c ****   /* Just disable softdisconnect */
1218:/opt/XMClib/XMC_Peripheral_Library_v2.1.16/XMCLib/src/xmc_usbd.c ****   dctl_data_t dctl;
1219:/opt/XMClib/XMC_Peripheral_Library_v2.1.16/XMCLib/src/xmc_usbd.c **** 	dctl.d32 = xmc_device.device_register->dctl;
 341              		.loc 1 1219 0
 342 0000 044B     		ldr	r3, .L29
 343 0002 D3F8A421 		ldr	r2, [r3, #420]
 344 0006 5368     		ldr	r3, [r2, #4]
1220:/opt/XMClib/XMC_Peripheral_Library_v2.1.16/XMCLib/src/xmc_usbd.c ****   dctl.b.sftdiscon = 0U;
 345              		.loc 1 1220 0
 346 0008 6FF34103 		bfc	r3, #1, #1
 347              	.LVL29:
1221:/opt/XMClib/XMC_Peripheral_Library_v2.1.16/XMCLib/src/xmc_usbd.c ****   xmc_device.device_register->dctl = dctl.d32;
 348              		.loc 1 1221 0
 349 000c 5360     		str	r3, [r2, #4]
1222:/opt/XMClib/XMC_Peripheral_Library_v2.1.16/XMCLib/src/xmc_usbd.c ****   return XMC_USBD_STATUS_OK;
1223:/opt/XMClib/XMC_Peripheral_Library_v2.1.16/XMCLib/src/xmc_usbd.c **** }
 350              		.loc 1 1223 0
 351 000e 0020     		movs	r0, #0
 352 0010 7047     		bx	lr
 353              	.L30:
 354 0012 00BF     		.align	2
 355              	.L29:
 356 0014 00000000 		.word	xmc_device
 357              		.cfi_endproc
 358              	.LFE189:
 360              		.section	.text.XMC_USBD_DeviceDisconnect,"ax",%progbits
 361              		.align	1
 362              		.p2align 2,,3
 363              		.global	XMC_USBD_DeviceDisconnect
 364              		.syntax unified
 365              		.thumb
 366              		.thumb_func
 367              		.fpu fpv4-sp-d16
 369              	XMC_USBD_DeviceDisconnect:
 370              	.LFB190:
1224:/opt/XMClib/XMC_Peripheral_Library_v2.1.16/XMCLib/src/xmc_usbd.c **** 
1225:/opt/XMClib/XMC_Peripheral_Library_v2.1.16/XMCLib/src/xmc_usbd.c **** /**
1226:/opt/XMClib/XMC_Peripheral_Library_v2.1.16/XMCLib/src/xmc_usbd.c ****  * Disconnects the USB device from host
1227:/opt/XMClib/XMC_Peripheral_Library_v2.1.16/XMCLib/src/xmc_usbd.c ****  **/
1228:/opt/XMClib/XMC_Peripheral_Library_v2.1.16/XMCLib/src/xmc_usbd.c **** XMC_USBD_STATUS_t XMC_USBD_DeviceDisconnect() 
1229:/opt/XMClib/XMC_Peripheral_Library_v2.1.16/XMCLib/src/xmc_usbd.c **** {
 371              		.loc 1 1229 0
 372              		.cfi_startproc
 373              		@ args = 0, pretend = 0, frame = 0
 374              		@ frame_needed = 0, uses_anonymous_args = 0
 375              		@ link register save eliminated.
1230:/opt/XMClib/XMC_Peripheral_Library_v2.1.16/XMCLib/src/xmc_usbd.c ****   dctl_data_t dctl;
1231:/opt/XMClib/XMC_Peripheral_Library_v2.1.16/XMCLib/src/xmc_usbd.c **** 	dctl.d32 = xmc_device.device_register->dctl;
 376              		.loc 1 1231 0
 377 0000 044B     		ldr	r3, .L32
 378 0002 D3F8A421 		ldr	r2, [r3, #420]
 379 0006 5368     		ldr	r3, [r2, #4]
1232:/opt/XMClib/XMC_Peripheral_Library_v2.1.16/XMCLib/src/xmc_usbd.c ****   dctl.b.sftdiscon = 1U;
 380              		.loc 1 1232 0
 381 0008 43F00203 		orr	r3, r3, #2
 382              	.LVL30:
1233:/opt/XMClib/XMC_Peripheral_Library_v2.1.16/XMCLib/src/xmc_usbd.c ****   xmc_device.device_register->dctl = dctl.d32;
 383              		.loc 1 1233 0
 384 000c 5360     		str	r3, [r2, #4]
1234:/opt/XMClib/XMC_Peripheral_Library_v2.1.16/XMCLib/src/xmc_usbd.c ****   return XMC_USBD_STATUS_OK;
1235:/opt/XMClib/XMC_Peripheral_Library_v2.1.16/XMCLib/src/xmc_usbd.c **** }
 385              		.loc 1 1235 0
 386 000e 0020     		movs	r0, #0
 387 0010 7047     		bx	lr
 388              	.L33:
 389 0012 00BF     		.align	2
 390              	.L32:
 391 0014 00000000 		.word	xmc_device
 392              		.cfi_endproc
 393              	.LFE190:
 395              		.section	.text.XMC_USBD_DeviceGetState,"ax",%progbits
 396              		.align	1
 397              		.p2align 2,,3
 398              		.global	XMC_USBD_DeviceGetState
 399              		.syntax unified
 400              		.thumb
 401              		.thumb_func
 402              		.fpu fpv4-sp-d16
 404              	XMC_USBD_DeviceGetState:
 405              	.LFB191:
1236:/opt/XMClib/XMC_Peripheral_Library_v2.1.16/XMCLib/src/xmc_usbd.c **** 
1237:/opt/XMClib/XMC_Peripheral_Library_v2.1.16/XMCLib/src/xmc_usbd.c **** /**
1238:/opt/XMClib/XMC_Peripheral_Library_v2.1.16/XMCLib/src/xmc_usbd.c ****  * Gets the USB device state.
1239:/opt/XMClib/XMC_Peripheral_Library_v2.1.16/XMCLib/src/xmc_usbd.c ****  **/
1240:/opt/XMClib/XMC_Peripheral_Library_v2.1.16/XMCLib/src/xmc_usbd.c **** XMC_USBD_STATE_t XMC_USBD_DeviceGetState(const XMC_USBD_t *const obj) 
1241:/opt/XMClib/XMC_Peripheral_Library_v2.1.16/XMCLib/src/xmc_usbd.c **** {
 406              		.loc 1 1241 0
 407              		.cfi_startproc
 408              		@ args = 0, pretend = 0, frame = 0
 409              		@ frame_needed = 0, uses_anonymous_args = 0
 410              		@ link register save eliminated.
 411              	.LVL31:
 412 0000 F0B4     		push	{r4, r5, r6, r7}
 413              	.LCFI4:
 414              		.cfi_def_cfa_offset 16
 415              		.cfi_offset 4, -16
 416              		.cfi_offset 5, -12
 417              		.cfi_offset 6, -8
 418              		.cfi_offset 7, -4
1242:/opt/XMClib/XMC_Peripheral_Library_v2.1.16/XMCLib/src/xmc_usbd.c ****   XMC_USBD_STATE_t state={0U};
1243:/opt/XMClib/XMC_Peripheral_Library_v2.1.16/XMCLib/src/xmc_usbd.c ****   state.speed = XMC_USBD_SPEED_FULL;
1244:/opt/XMClib/XMC_Peripheral_Library_v2.1.16/XMCLib/src/xmc_usbd.c ****   state.connected = xmc_device.IsConnected;
 419              		.loc 1 1244 0
 420 0002 194D     		ldr	r5, .L45
 421              	.LBB85:
 422              	.LBB86:
 184:/opt/XMClib/XMC_Peripheral_Library_v2.1.16/XMCLib/src/xmc_usbd.c ****   {
 423              		.loc 1 184 0
 424 0004 067B     		ldrb	r6, [r0, #12]	@ zero_extendqisi2
 425              	.LBE86:
 426              	.LBE85:
 427              		.loc 1 1244 0
 428 0006 95F8FEC1 		ldrb	ip, [r5, #510]	@ zero_extendqisi2
1242:/opt/XMClib/XMC_Peripheral_Library_v2.1.16/XMCLib/src/xmc_usbd.c ****   XMC_USBD_STATE_t state={0U};
 429              		.loc 1 1242 0
 430 000a 0020     		movs	r0, #0
 431              	.LVL32:
 432              		.loc 1 1244 0
 433 000c 0CF0010C 		and	ip, ip, #1
 434              	.LVL33:
 435              	.LBB89:
 436              	.LBB87:
 184:/opt/XMClib/XMC_Peripheral_Library_v2.1.16/XMCLib/src/xmc_usbd.c ****   {
 437              		.loc 1 184 0
 438 0010 46B3     		cbz	r6, .L38
 439              	.LVL34:
 440 0012 0346     		mov	r3, r0
 183:/opt/XMClib/XMC_Peripheral_Library_v2.1.16/XMCLib/src/xmc_usbd.c ****   for (i = 0U; i < (uint8_t)obj->usbd_max_num_eps; i++)
 441              		.loc 1 183 0
 442 0014 0146     		mov	r1, r0
 186:/opt/XMClib/XMC_Peripheral_Library_v2.1.16/XMCLib/src/xmc_usbd.c ****     {
 443              		.loc 1 186 0
 444 0016 3427     		movs	r7, #52
 445 0018 08E0     		b	.L37
 446              	.LVL35:
 447              	.L44:
 448 001a 5268     		ldr	r2, [r2, #4]
 449 001c 0133     		adds	r3, r3, #1
 450              	.LVL36:
 188:/opt/XMClib/XMC_Peripheral_Library_v2.1.16/XMCLib/src/xmc_usbd.c ****     }
 451              		.loc 1 188 0
 452 001e 12F0100F 		tst	r2, #16
 184:/opt/XMClib/XMC_Peripheral_Library_v2.1.16/XMCLib/src/xmc_usbd.c ****   {
 453              		.loc 1 184 0
 454 0022 DAB2     		uxtb	r2, r3
 188:/opt/XMClib/XMC_Peripheral_Library_v2.1.16/XMCLib/src/xmc_usbd.c ****     }
 455              		.loc 1 188 0
 456 0024 18BF     		it	ne
 457 0026 0121     		movne	r1, #1
 458              	.LVL37:
 184:/opt/XMClib/XMC_Peripheral_Library_v2.1.16/XMCLib/src/xmc_usbd.c ****   {
 459              		.loc 1 184 0
 460 0028 B242     		cmp	r2, r6
 461 002a 0AD2     		bcs	.L43
 462              	.LVL38:
 463              	.L37:
 186:/opt/XMClib/XMC_Peripheral_Library_v2.1.16/XMCLib/src/xmc_usbd.c ****     {
 464              		.loc 1 186 0
 465 002c 07FB0352 		mla	r2, r7, r3, r5
 466 0030 5468     		ldr	r4, [r2, #4]
 467 0032 2407     		lsls	r4, r4, #28
 468 0034 F1D5     		bpl	.L44
 469 0036 0133     		adds	r3, r3, #1
 470              	.LVL39:
 184:/opt/XMClib/XMC_Peripheral_Library_v2.1.16/XMCLib/src/xmc_usbd.c ****   {
 471              		.loc 1 184 0
 472 0038 DAB2     		uxtb	r2, r3
 473 003a B242     		cmp	r2, r6
 188:/opt/XMClib/XMC_Peripheral_Library_v2.1.16/XMCLib/src/xmc_usbd.c ****     }
 474              		.loc 1 188 0
 475 003c 4FF00101 		mov	r1, #1
 476              	.LVL40:
 184:/opt/XMClib/XMC_Peripheral_Library_v2.1.16/XMCLib/src/xmc_usbd.c ****   {
 477              		.loc 1 184 0
 478 0040 F4D3     		bcc	.L37
 479              	.L43:
 480 0042 01F00101 		and	r1, r1, #1
 481              	.LVL41:
 482              	.L35:
 483              	.LBE87:
 484              	.LBE89:
1245:/opt/XMClib/XMC_Peripheral_Library_v2.1.16/XMCLib/src/xmc_usbd.c ****   state.active = XMC_USBD_lDeviceActive(obj);
1246:/opt/XMClib/XMC_Peripheral_Library_v2.1.16/XMCLib/src/xmc_usbd.c ****   state.powered = xmc_device.IsPowered;
 485              		.loc 1 1246 0
 486 0046 95F8FE31 		ldrb	r3, [r5, #510]	@ zero_extendqisi2
 487 004a C3F38003 		ubfx	r3, r3, #2, #1
1247:/opt/XMClib/XMC_Peripheral_Library_v2.1.16/XMCLib/src/xmc_usbd.c ****   return state;
 488              		.loc 1 1247 0
 489 004e 63F30000 		bfi	r0, r3, #0, #1
 490 0052 6CF34100 		bfi	r0, ip, #1, #1
 491 0056 61F38200 		bfi	r0, r1, #2, #1
 492 005a 0123     		movs	r3, #1
 493 005c 63F3C400 		bfi	r0, r3, #3, #2
 494              	.LVL42:
1248:/opt/XMClib/XMC_Peripheral_Library_v2.1.16/XMCLib/src/xmc_usbd.c **** }
 495              		.loc 1 1248 0
 496 0060 F0BC     		pop	{r4, r5, r6, r7}
 497              	.LCFI5:
 498              		.cfi_remember_state
 499              		.cfi_restore 7
 500              		.cfi_restore 6
 501              		.cfi_restore 5
 502              		.cfi_restore 4
 503              		.cfi_def_cfa_offset 0
 504              	.LVL43:
 505 0062 7047     		bx	lr
 506              	.LVL44:
 507              	.L38:
 508              	.LCFI6:
 509              		.cfi_restore_state
 510              	.LBB90:
 511              	.LBB88:
 184:/opt/XMClib/XMC_Peripheral_Library_v2.1.16/XMCLib/src/xmc_usbd.c ****   {
 512              		.loc 1 184 0
 513 0064 0146     		mov	r1, r0
 514 0066 EEE7     		b	.L35
 515              	.L46:
 516              		.align	2
 517              	.L45:
 518 0068 00000000 		.word	xmc_device
 519              	.LBE88:
 520              	.LBE90:
 521              		.cfi_endproc
 522              	.LFE191:
 524              		.section	.text.XMC_USBD_EndpointReadStart,"ax",%progbits
 525              		.align	1
 526              		.p2align 2,,3
 527              		.global	XMC_USBD_EndpointReadStart
 528              		.syntax unified
 529              		.thumb
 530              		.thumb_func
 531              		.fpu fpv4-sp-d16
 533              	XMC_USBD_EndpointReadStart:
 534              	.LFB192:
1249:/opt/XMClib/XMC_Peripheral_Library_v2.1.16/XMCLib/src/xmc_usbd.c **** 
1250:/opt/XMClib/XMC_Peripheral_Library_v2.1.16/XMCLib/src/xmc_usbd.c **** /**
1251:/opt/XMClib/XMC_Peripheral_Library_v2.1.16/XMCLib/src/xmc_usbd.c ****  * Prepares the endpoint to read next OUT packet
1252:/opt/XMClib/XMC_Peripheral_Library_v2.1.16/XMCLib/src/xmc_usbd.c ****  **/
1253:/opt/XMClib/XMC_Peripheral_Library_v2.1.16/XMCLib/src/xmc_usbd.c **** XMC_USBD_STATUS_t XMC_USBD_EndpointReadStart(const uint8_t ep_addr, uint32_t size) 
1254:/opt/XMClib/XMC_Peripheral_Library_v2.1.16/XMCLib/src/xmc_usbd.c **** {
 535              		.loc 1 1254 0
 536              		.cfi_startproc
 537              		@ args = 0, pretend = 0, frame = 0
 538              		@ frame_needed = 0, uses_anonymous_args = 0
 539              	.LVL45:
 540 0000 70B5     		push	{r4, r5, r6, lr}
 541              	.LCFI7:
 542              		.cfi_def_cfa_offset 16
 543              		.cfi_offset 4, -16
 544              		.cfi_offset 5, -12
 545              		.cfi_offset 6, -8
 546              		.cfi_offset 14, -4
1255:/opt/XMClib/XMC_Peripheral_Library_v2.1.16/XMCLib/src/xmc_usbd.c ****   XMC_USBD_EP_t *ep = &xmc_device.ep[ep_addr & (uint8_t)XMC_USBD_EP_NUM_MASK];
1256:/opt/XMClib/XMC_Peripheral_Library_v2.1.16/XMCLib/src/xmc_usbd.c ****   XMC_USBD_STATUS_t result;
1257:/opt/XMClib/XMC_Peripheral_Library_v2.1.16/XMCLib/src/xmc_usbd.c **** 	
1258:/opt/XMClib/XMC_Peripheral_Library_v2.1.16/XMCLib/src/xmc_usbd.c ****   if (ep->outInUse || !ep->isConfigured)
 547              		.loc 1 1258 0
 548 0002 114A     		ldr	r2, .L52
 549 0004 00F00F00 		and	r0, r0, #15
 550              	.LVL46:
 551 0008 3423     		movs	r3, #52
 552 000a 03FB0023 		mla	r3, r3, r0, r2
 553 000e 5C68     		ldr	r4, [r3, #4]
 554 0010 C4F30014 		ubfx	r4, r4, #4, #1
 555 0014 B4B9     		cbnz	r4, .L50
 556              		.loc 1 1258 0 is_stmt 0 discriminator 1
 557 0016 1D79     		ldrb	r5, [r3, #4]	@ zero_extendqisi2
 558 0018 6D07     		lsls	r5, r5, #29
 559 001a 13D5     		bpl	.L50
 560              	.LVL47:
1259:/opt/XMClib/XMC_Peripheral_Library_v2.1.16/XMCLib/src/xmc_usbd.c ****   {
1260:/opt/XMClib/XMC_Peripheral_Library_v2.1.16/XMCLib/src/xmc_usbd.c ****     result = XMC_USBD_STATUS_ERROR;
1261:/opt/XMClib/XMC_Peripheral_Library_v2.1.16/XMCLib/src/xmc_usbd.c ****   }
1262:/opt/XMClib/XMC_Peripheral_Library_v2.1.16/XMCLib/src/xmc_usbd.c ****   else
1263:/opt/XMClib/XMC_Peripheral_Library_v2.1.16/XMCLib/src/xmc_usbd.c ****   {
1264:/opt/XMClib/XMC_Peripheral_Library_v2.1.16/XMCLib/src/xmc_usbd.c ****     /* short the length to buffer size if needed */
1265:/opt/XMClib/XMC_Peripheral_Library_v2.1.16/XMCLib/src/xmc_usbd.c ****     if (size > ep->outBufferSize)
1266:/opt/XMClib/XMC_Peripheral_Library_v2.1.16/XMCLib/src/xmc_usbd.c ****     {
1267:/opt/XMClib/XMC_Peripheral_Library_v2.1.16/XMCLib/src/xmc_usbd.c ****       size = ep->outBufferSize;
1268:/opt/XMClib/XMC_Peripheral_Library_v2.1.16/XMCLib/src/xmc_usbd.c ****     }
1269:/opt/XMClib/XMC_Peripheral_Library_v2.1.16/XMCLib/src/xmc_usbd.c ****     /* set ep values */
1270:/opt/XMClib/XMC_Peripheral_Library_v2.1.16/XMCLib/src/xmc_usbd.c ****     ep->xferTotal = size;
 561              		.loc 1 1270 0 is_stmt 1
 562 001c 5E69     		ldr	r6, [r3, #20]
1271:/opt/XMClib/XMC_Peripheral_Library_v2.1.16/XMCLib/src/xmc_usbd.c ****     ep->xferCount = 0U;
1272:/opt/XMClib/XMC_Peripheral_Library_v2.1.16/XMCLib/src/xmc_usbd.c ****     ep->xferLength = 0U;
1273:/opt/XMClib/XMC_Peripheral_Library_v2.1.16/XMCLib/src/xmc_usbd.c ****     ep->xferBuffer = ep->outBuffer;
 563              		.loc 1 1273 0
 564 001e DD68     		ldr	r5, [r3, #12]
1271:/opt/XMClib/XMC_Peripheral_Library_v2.1.16/XMCLib/src/xmc_usbd.c ****     ep->xferCount = 0U;
 565              		.loc 1 1271 0
 566 0020 DC62     		str	r4, [r3, #44]
1270:/opt/XMClib/XMC_Peripheral_Library_v2.1.16/XMCLib/src/xmc_usbd.c ****     ep->xferCount = 0U;
 567              		.loc 1 1270 0
 568 0022 B142     		cmp	r1, r6
 569 0024 28BF     		it	cs
 570 0026 3146     		movcs	r1, r6
 571              	.LVL48:
1255:/opt/XMClib/XMC_Peripheral_Library_v2.1.16/XMCLib/src/xmc_usbd.c ****   XMC_USBD_STATUS_t result;
 572              		.loc 1 1255 0
 573 0028 00EB4006 		add	r6, r0, r0, lsl #1
 574 002c 00EB8600 		add	r0, r0, r6, lsl #2
 575              	.LVL49:
1274:/opt/XMClib/XMC_Peripheral_Library_v2.1.16/XMCLib/src/xmc_usbd.c ****     ep->outBytesAvailable = 0U;
1275:/opt/XMClib/XMC_Peripheral_Library_v2.1.16/XMCLib/src/xmc_usbd.c ****     XMC_USBD_lStartReadXfer(ep);
 576              		.loc 1 1275 0
 577 0030 02EB8000 		add	r0, r2, r0, lsl #2
1272:/opt/XMClib/XMC_Peripheral_Library_v2.1.16/XMCLib/src/xmc_usbd.c ****     ep->xferBuffer = ep->outBuffer;
 578              		.loc 1 1272 0
 579 0034 9C62     		str	r4, [r3, #40]
1274:/opt/XMClib/XMC_Peripheral_Library_v2.1.16/XMCLib/src/xmc_usbd.c ****     ep->outBytesAvailable = 0U;
 580              		.loc 1 1274 0
 581 0036 1C61     		str	r4, [r3, #16]
1270:/opt/XMClib/XMC_Peripheral_Library_v2.1.16/XMCLib/src/xmc_usbd.c ****     ep->xferCount = 0U;
 582              		.loc 1 1270 0
 583 0038 1963     		str	r1, [r3, #48]
1273:/opt/XMClib/XMC_Peripheral_Library_v2.1.16/XMCLib/src/xmc_usbd.c ****     ep->outBytesAvailable = 0U;
 584              		.loc 1 1273 0
 585 003a 5D62     		str	r5, [r3, #36]
 586              		.loc 1 1275 0
 587 003c FFF7FEFF 		bl	XMC_USBD_lStartReadXfer
 588              	.LVL50:
1276:/opt/XMClib/XMC_Peripheral_Library_v2.1.16/XMCLib/src/xmc_usbd.c ****     result= XMC_USBD_STATUS_OK;
 589              		.loc 1 1276 0
 590 0040 2046     		mov	r0, r4
 591              	.LVL51:
1277:/opt/XMClib/XMC_Peripheral_Library_v2.1.16/XMCLib/src/xmc_usbd.c ****   }
1278:/opt/XMClib/XMC_Peripheral_Library_v2.1.16/XMCLib/src/xmc_usbd.c ****   return result;
1279:/opt/XMClib/XMC_Peripheral_Library_v2.1.16/XMCLib/src/xmc_usbd.c **** }
 592              		.loc 1 1279 0
 593 0042 70BD     		pop	{r4, r5, r6, pc}
 594              	.LVL52:
 595              	.L50:
1260:/opt/XMClib/XMC_Peripheral_Library_v2.1.16/XMCLib/src/xmc_usbd.c ****   }
 596              		.loc 1 1260 0
 597 0044 0120     		movs	r0, #1
 598              	.LVL53:
 599              		.loc 1 1279 0
 600 0046 70BD     		pop	{r4, r5, r6, pc}
 601              	.L53:
 602              		.align	2
 603              	.L52:
 604 0048 00000000 		.word	xmc_device
 605              		.cfi_endproc
 606              	.LFE192:
 608              		.section	.text.XMC_USBD_DeviceSetAddress,"ax",%progbits
 609              		.align	1
 610              		.p2align 2,,3
 611              		.global	XMC_USBD_DeviceSetAddress
 612              		.syntax unified
 613              		.thumb
 614              		.thumb_func
 615              		.fpu fpv4-sp-d16
 617              	XMC_USBD_DeviceSetAddress:
 618              	.LFB195:
1280:/opt/XMClib/XMC_Peripheral_Library_v2.1.16/XMCLib/src/xmc_usbd.c **** 
1281:/opt/XMClib/XMC_Peripheral_Library_v2.1.16/XMCLib/src/xmc_usbd.c **** /**
1282:/opt/XMClib/XMC_Peripheral_Library_v2.1.16/XMCLib/src/xmc_usbd.c ****  * Reads the number of bytes from the USB OUT endpoint
1283:/opt/XMClib/XMC_Peripheral_Library_v2.1.16/XMCLib/src/xmc_usbd.c ****  **/
1284:/opt/XMClib/XMC_Peripheral_Library_v2.1.16/XMCLib/src/xmc_usbd.c **** int32_t XMC_USBD_EndpointRead(const uint8_t ep_num,uint8_t * buffer,uint32_t length) 
1285:/opt/XMClib/XMC_Peripheral_Library_v2.1.16/XMCLib/src/xmc_usbd.c **** {
1286:/opt/XMClib/XMC_Peripheral_Library_v2.1.16/XMCLib/src/xmc_usbd.c ****   XMC_USBD_EP_t *ep = &xmc_device.ep[ep_num];
1287:/opt/XMClib/XMC_Peripheral_Library_v2.1.16/XMCLib/src/xmc_usbd.c ****   if (length > ep->outBytesAvailable)
1288:/opt/XMClib/XMC_Peripheral_Library_v2.1.16/XMCLib/src/xmc_usbd.c ****   {
1289:/opt/XMClib/XMC_Peripheral_Library_v2.1.16/XMCLib/src/xmc_usbd.c ****     length = ep->outBytesAvailable;
1290:/opt/XMClib/XMC_Peripheral_Library_v2.1.16/XMCLib/src/xmc_usbd.c ****   }
1291:/opt/XMClib/XMC_Peripheral_Library_v2.1.16/XMCLib/src/xmc_usbd.c ****   memcpy(buffer,&ep->outBuffer[ep->outOffset],length);
1292:/opt/XMClib/XMC_Peripheral_Library_v2.1.16/XMCLib/src/xmc_usbd.c ****   ep->outBytesAvailable -= length;
1293:/opt/XMClib/XMC_Peripheral_Library_v2.1.16/XMCLib/src/xmc_usbd.c ****   if (ep->outBytesAvailable)
1294:/opt/XMClib/XMC_Peripheral_Library_v2.1.16/XMCLib/src/xmc_usbd.c ****   {
1295:/opt/XMClib/XMC_Peripheral_Library_v2.1.16/XMCLib/src/xmc_usbd.c ****     ep->outOffset += length;
1296:/opt/XMClib/XMC_Peripheral_Library_v2.1.16/XMCLib/src/xmc_usbd.c ****   }
1297:/opt/XMClib/XMC_Peripheral_Library_v2.1.16/XMCLib/src/xmc_usbd.c ****   else
1298:/opt/XMClib/XMC_Peripheral_Library_v2.1.16/XMCLib/src/xmc_usbd.c ****   {
1299:/opt/XMClib/XMC_Peripheral_Library_v2.1.16/XMCLib/src/xmc_usbd.c ****     ep->outOffset = 0U;
1300:/opt/XMClib/XMC_Peripheral_Library_v2.1.16/XMCLib/src/xmc_usbd.c ****   }
1301:/opt/XMClib/XMC_Peripheral_Library_v2.1.16/XMCLib/src/xmc_usbd.c ****   return (int32_t)length;
1302:/opt/XMClib/XMC_Peripheral_Library_v2.1.16/XMCLib/src/xmc_usbd.c **** }
1303:/opt/XMClib/XMC_Peripheral_Library_v2.1.16/XMCLib/src/xmc_usbd.c **** 
1304:/opt/XMClib/XMC_Peripheral_Library_v2.1.16/XMCLib/src/xmc_usbd.c **** /**
1305:/opt/XMClib/XMC_Peripheral_Library_v2.1.16/XMCLib/src/xmc_usbd.c ****  * Writes number of bytes in to the USB IN endpoint.
1306:/opt/XMClib/XMC_Peripheral_Library_v2.1.16/XMCLib/src/xmc_usbd.c ****  **/
1307:/opt/XMClib/XMC_Peripheral_Library_v2.1.16/XMCLib/src/xmc_usbd.c **** int32_t XMC_USBD_EndpointWrite(const uint8_t ep_num,const uint8_t * buffer,uint32_t length) 
1308:/opt/XMClib/XMC_Peripheral_Library_v2.1.16/XMCLib/src/xmc_usbd.c **** {
1309:/opt/XMClib/XMC_Peripheral_Library_v2.1.16/XMCLib/src/xmc_usbd.c ****   XMC_USBD_EP_t * ep = &xmc_device.ep[ep_num & (uint8_t)XMC_USBD_EP_NUM_MASK];
1310:/opt/XMClib/XMC_Peripheral_Library_v2.1.16/XMCLib/src/xmc_usbd.c ****   int32_t result;
1311:/opt/XMClib/XMC_Peripheral_Library_v2.1.16/XMCLib/src/xmc_usbd.c ****   if (!ep->isConfigured)
1312:/opt/XMClib/XMC_Peripheral_Library_v2.1.16/XMCLib/src/xmc_usbd.c ****   {
1313:/opt/XMClib/XMC_Peripheral_Library_v2.1.16/XMCLib/src/xmc_usbd.c ****     result = (int32_t)XMC_USBD_STATUS_ERROR;
1314:/opt/XMClib/XMC_Peripheral_Library_v2.1.16/XMCLib/src/xmc_usbd.c ****   }
1315:/opt/XMClib/XMC_Peripheral_Library_v2.1.16/XMCLib/src/xmc_usbd.c ****   else if (ep->inInUse == 1U)
1316:/opt/XMClib/XMC_Peripheral_Library_v2.1.16/XMCLib/src/xmc_usbd.c ****   {
1317:/opt/XMClib/XMC_Peripheral_Library_v2.1.16/XMCLib/src/xmc_usbd.c ****     result=(int32_t)0;
1318:/opt/XMClib/XMC_Peripheral_Library_v2.1.16/XMCLib/src/xmc_usbd.c ****   }
1319:/opt/XMClib/XMC_Peripheral_Library_v2.1.16/XMCLib/src/xmc_usbd.c ****   else
1320:/opt/XMClib/XMC_Peripheral_Library_v2.1.16/XMCLib/src/xmc_usbd.c ****   {
1321:/opt/XMClib/XMC_Peripheral_Library_v2.1.16/XMCLib/src/xmc_usbd.c ****     if (length > ep->inBufferSize)
1322:/opt/XMClib/XMC_Peripheral_Library_v2.1.16/XMCLib/src/xmc_usbd.c ****     {
1323:/opt/XMClib/XMC_Peripheral_Library_v2.1.16/XMCLib/src/xmc_usbd.c ****       length = ep->inBufferSize;
1324:/opt/XMClib/XMC_Peripheral_Library_v2.1.16/XMCLib/src/xmc_usbd.c ****     }
1325:/opt/XMClib/XMC_Peripheral_Library_v2.1.16/XMCLib/src/xmc_usbd.c ****     /* copy data into input buffer for DMA and FIFO mode */
1326:/opt/XMClib/XMC_Peripheral_Library_v2.1.16/XMCLib/src/xmc_usbd.c **** 		memcpy(ep->inBuffer,(const void *)buffer,length);
1327:/opt/XMClib/XMC_Peripheral_Library_v2.1.16/XMCLib/src/xmc_usbd.c **** 		ep->xferBuffer = ep->inBuffer;
1328:/opt/XMClib/XMC_Peripheral_Library_v2.1.16/XMCLib/src/xmc_usbd.c ****     ep->xferTotal = length;
1329:/opt/XMClib/XMC_Peripheral_Library_v2.1.16/XMCLib/src/xmc_usbd.c ****     /* set transfer values */
1330:/opt/XMClib/XMC_Peripheral_Library_v2.1.16/XMCLib/src/xmc_usbd.c ****     ep->xferLength = 0U;
1331:/opt/XMClib/XMC_Peripheral_Library_v2.1.16/XMCLib/src/xmc_usbd.c ****     ep->xferCount = 0U;
1332:/opt/XMClib/XMC_Peripheral_Library_v2.1.16/XMCLib/src/xmc_usbd.c ****     ep->inInUse = 1U;
1333:/opt/XMClib/XMC_Peripheral_Library_v2.1.16/XMCLib/src/xmc_usbd.c ****     /* start the transfer */
1334:/opt/XMClib/XMC_Peripheral_Library_v2.1.16/XMCLib/src/xmc_usbd.c ****     XMC_USBD_lStartWriteXfer(ep);
1335:/opt/XMClib/XMC_Peripheral_Library_v2.1.16/XMCLib/src/xmc_usbd.c ****     result=(int32_t)ep->xferTotal;
1336:/opt/XMClib/XMC_Peripheral_Library_v2.1.16/XMCLib/src/xmc_usbd.c ****   }
1337:/opt/XMClib/XMC_Peripheral_Library_v2.1.16/XMCLib/src/xmc_usbd.c ****   return result;
1338:/opt/XMClib/XMC_Peripheral_Library_v2.1.16/XMCLib/src/xmc_usbd.c **** }
1339:/opt/XMClib/XMC_Peripheral_Library_v2.1.16/XMCLib/src/xmc_usbd.c **** 
1340:/opt/XMClib/XMC_Peripheral_Library_v2.1.16/XMCLib/src/xmc_usbd.c **** /**
1341:/opt/XMClib/XMC_Peripheral_Library_v2.1.16/XMCLib/src/xmc_usbd.c ****  * Sets the USB device address.
1342:/opt/XMClib/XMC_Peripheral_Library_v2.1.16/XMCLib/src/xmc_usbd.c ****  **/
1343:/opt/XMClib/XMC_Peripheral_Library_v2.1.16/XMCLib/src/xmc_usbd.c **** XMC_USBD_STATUS_t XMC_USBD_DeviceSetAddress(const uint8_t address,const XMC_USBD_SET_ADDRESS_STAGE_
1344:/opt/XMClib/XMC_Peripheral_Library_v2.1.16/XMCLib/src/xmc_usbd.c **** {
 619              		.loc 1 1344 0
 620              		.cfi_startproc
 621              		@ args = 0, pretend = 0, frame = 0
 622              		@ frame_needed = 0, uses_anonymous_args = 0
 623              		@ link register save eliminated.
 624              	.LVL54:
1345:/opt/XMClib/XMC_Peripheral_Library_v2.1.16/XMCLib/src/xmc_usbd.c ****   dcfg_data_t data;
1346:/opt/XMClib/XMC_Peripheral_Library_v2.1.16/XMCLib/src/xmc_usbd.c ****   data.d32 = xmc_device.device_register->dcfg;
 625              		.loc 1 1346 0
 626 0000 044B     		ldr	r3, .L56
 627 0002 D3F8A431 		ldr	r3, [r3, #420]
 628 0006 1A68     		ldr	r2, [r3]
 629              	.LVL55:
1347:/opt/XMClib/XMC_Peripheral_Library_v2.1.16/XMCLib/src/xmc_usbd.c ****   if (stage == XMC_USBD_SET_ADDRESS_STAGE_SETUP)
 630              		.loc 1 1347 0
 631 0008 11B9     		cbnz	r1, .L55
1348:/opt/XMClib/XMC_Peripheral_Library_v2.1.16/XMCLib/src/xmc_usbd.c ****   {
1349:/opt/XMClib/XMC_Peripheral_Library_v2.1.16/XMCLib/src/xmc_usbd.c ****     data.b.devaddr = address;
 632              		.loc 1 1349 0
 633 000a 60F30A12 		bfi	r2, r0, #4, #7
1350:/opt/XMClib/XMC_Peripheral_Library_v2.1.16/XMCLib/src/xmc_usbd.c ****     xmc_device.device_register->dcfg = data.d32;
 634              		.loc 1 1350 0
 635 000e 1A60     		str	r2, [r3]
 636              	.L55:
1351:/opt/XMClib/XMC_Peripheral_Library_v2.1.16/XMCLib/src/xmc_usbd.c ****   }
1352:/opt/XMClib/XMC_Peripheral_Library_v2.1.16/XMCLib/src/xmc_usbd.c **** 	return XMC_USBD_STATUS_OK;
1353:/opt/XMClib/XMC_Peripheral_Library_v2.1.16/XMCLib/src/xmc_usbd.c **** }
 637              		.loc 1 1353 0
 638 0010 0020     		movs	r0, #0
 639              	.LVL56:
 640 0012 7047     		bx	lr
 641              	.L57:
 642              		.align	2
 643              	.L56:
 644 0014 00000000 		.word	xmc_device
 645              		.cfi_endproc
 646              	.LFE195:
 648              		.section	.text.XMC_USBD_EndpointStall,"ax",%progbits
 649              		.align	1
 650              		.p2align 2,,3
 651              		.global	XMC_USBD_EndpointStall
 652              		.syntax unified
 653              		.thumb
 654              		.thumb_func
 655              		.fpu fpv4-sp-d16
 657              	XMC_USBD_EndpointStall:
 658              	.LFB196:
1354:/opt/XMClib/XMC_Peripheral_Library_v2.1.16/XMCLib/src/xmc_usbd.c **** 
1355:/opt/XMClib/XMC_Peripheral_Library_v2.1.16/XMCLib/src/xmc_usbd.c **** /**
1356:/opt/XMClib/XMC_Peripheral_Library_v2.1.16/XMCLib/src/xmc_usbd.c ****  * Set/clear stall on the selected endpoint.
1357:/opt/XMClib/XMC_Peripheral_Library_v2.1.16/XMCLib/src/xmc_usbd.c ****  **/
1358:/opt/XMClib/XMC_Peripheral_Library_v2.1.16/XMCLib/src/xmc_usbd.c **** XMC_USBD_STATUS_t XMC_USBD_EndpointStall(const uint8_t ep_addr, const bool stall) 
1359:/opt/XMClib/XMC_Peripheral_Library_v2.1.16/XMCLib/src/xmc_usbd.c **** {
 659              		.loc 1 1359 0
 660              		.cfi_startproc
 661              		@ args = 0, pretend = 0, frame = 0
 662              		@ frame_needed = 0, uses_anonymous_args = 0
 663              		@ link register save eliminated.
 664              	.LVL57:
1360:/opt/XMClib/XMC_Peripheral_Library_v2.1.16/XMCLib/src/xmc_usbd.c ****   depctl_data_t data;
1361:/opt/XMClib/XMC_Peripheral_Library_v2.1.16/XMCLib/src/xmc_usbd.c ****   XMC_USBD_EP_t *ep = &xmc_device.ep[(ep_addr & (uint8_t)XMC_USBD_EP_NUM_MASK)];
 665              		.loc 1 1361 0
 666 0000 00F00F02 		and	r2, r0, #15
 667              	.LVL58:
 668 0004 3423     		movs	r3, #52
1359:/opt/XMClib/XMC_Peripheral_Library_v2.1.16/XMCLib/src/xmc_usbd.c ****   depctl_data_t data;
 669              		.loc 1 1359 0
 670 0006 10B4     		push	{r4}
 671              	.LCFI8:
 672              		.cfi_def_cfa_offset 4
 673              		.cfi_offset 4, -4
 674 0008 03FB02F3 		mul	r3, r3, r2
 675 000c 1B4C     		ldr	r4, .L66
 676 000e E35C     		ldrb	r3, [r4, r3]	@ zero_extendqisi2
 677 0010 40B2     		sxtb	r0, r0
 678 0012 03F00F03 		and	r3, r3, #15
1362:/opt/XMClib/XMC_Peripheral_Library_v2.1.16/XMCLib/src/xmc_usbd.c ****   if (stall)
 679              		.loc 1 1362 0
 680 0016 B9B1     		cbz	r1, .L59
1363:/opt/XMClib/XMC_Peripheral_Library_v2.1.16/XMCLib/src/xmc_usbd.c ****   {
1364:/opt/XMClib/XMC_Peripheral_Library_v2.1.16/XMCLib/src/xmc_usbd.c ****     if (ep_addr & (uint8_t)XMC_USBD_ENDPOINT_DIRECTION_MASK)
 681              		.loc 1 1364 0
 682 0018 0028     		cmp	r0, #0
1365:/opt/XMClib/XMC_Peripheral_Library_v2.1.16/XMCLib/src/xmc_usbd.c ****     {
1366:/opt/XMClib/XMC_Peripheral_Library_v2.1.16/XMCLib/src/xmc_usbd.c ****       /*set stall bit */
1367:/opt/XMClib/XMC_Peripheral_Library_v2.1.16/XMCLib/src/xmc_usbd.c ****       data.d32 = xmc_device.endpoint_in_register[ep->address_u.address_st.number]->diepctl;
1368:/opt/XMClib/XMC_Peripheral_Library_v2.1.16/XMCLib/src/xmc_usbd.c ****       data.b.stall = 1U;
1369:/opt/XMClib/XMC_Peripheral_Library_v2.1.16/XMCLib/src/xmc_usbd.c ****       xmc_device.endpoint_in_register[ep->address_u.address_st.number]->diepctl = data.d32;
1370:/opt/XMClib/XMC_Peripheral_Library_v2.1.16/XMCLib/src/xmc_usbd.c ****     }
1371:/opt/XMClib/XMC_Peripheral_Library_v2.1.16/XMCLib/src/xmc_usbd.c ****     else
1372:/opt/XMClib/XMC_Peripheral_Library_v2.1.16/XMCLib/src/xmc_usbd.c ****     {
1373:/opt/XMClib/XMC_Peripheral_Library_v2.1.16/XMCLib/src/xmc_usbd.c ****       /*set stall bit */
1374:/opt/XMClib/XMC_Peripheral_Library_v2.1.16/XMCLib/src/xmc_usbd.c ****       data.d32 = xmc_device.endpoint_out_register[ep->address_u.address_st.number]->doepctl;
 683              		.loc 1 1374 0
 684 001a ABBF     		itete	ge
 685 001c 04EB8303 		addge	r3, r4, r3, lsl #2
1367:/opt/XMClib/XMC_Peripheral_Library_v2.1.16/XMCLib/src/xmc_usbd.c ****       data.b.stall = 1U;
 686              		.loc 1 1367 0
 687 0020 6A33     		addlt	r3, r3, #106
 688              		.loc 1 1374 0
 689 0022 D3F8C411 		ldrge	r1, [r3, #452]
 690              	.LVL59:
1367:/opt/XMClib/XMC_Peripheral_Library_v2.1.16/XMCLib/src/xmc_usbd.c ****       data.b.stall = 1U;
 691              		.loc 1 1367 0
 692 0026 54F82310 		ldrlt	r1, [r4, r3, lsl #2]
 693              		.loc 1 1374 0
 694 002a 0B68     		ldr	r3, [r1]
1375:/opt/XMClib/XMC_Peripheral_Library_v2.1.16/XMCLib/src/xmc_usbd.c ****       data.b.stall = 1U;
 695              		.loc 1 1375 0
 696 002c 43F40013 		orr	r3, r3, #2097152
 697              	.LVL60:
1376:/opt/XMClib/XMC_Peripheral_Library_v2.1.16/XMCLib/src/xmc_usbd.c ****       xmc_device.endpoint_out_register[ep->address_u.address_st.number]->doepctl = data.d32;
 698              		.loc 1 1376 0
 699 0030 0B60     		str	r3, [r1]
1377:/opt/XMClib/XMC_Peripheral_Library_v2.1.16/XMCLib/src/xmc_usbd.c ****     }
1378:/opt/XMClib/XMC_Peripheral_Library_v2.1.16/XMCLib/src/xmc_usbd.c ****     ep->isStalled = 1U;
 700              		.loc 1 1378 0
 701 0032 3423     		movs	r3, #52
 702              	.LVL61:
 703 0034 03FB0242 		mla	r2, r3, r2, r4
 704              	.LVL62:
1379:/opt/XMClib/XMC_Peripheral_Library_v2.1.16/XMCLib/src/xmc_usbd.c ****   }
1380:/opt/XMClib/XMC_Peripheral_Library_v2.1.16/XMCLib/src/xmc_usbd.c ****   else
1381:/opt/XMClib/XMC_Peripheral_Library_v2.1.16/XMCLib/src/xmc_usbd.c ****   {
1382:/opt/XMClib/XMC_Peripheral_Library_v2.1.16/XMCLib/src/xmc_usbd.c ****     /* just clear stall bit */
1383:/opt/XMClib/XMC_Peripheral_Library_v2.1.16/XMCLib/src/xmc_usbd.c **** 		if (ep_addr & (uint8_t)XMC_USBD_ENDPOINT_DIRECTION_MASK)
1384:/opt/XMClib/XMC_Peripheral_Library_v2.1.16/XMCLib/src/xmc_usbd.c **** 		{
1385:/opt/XMClib/XMC_Peripheral_Library_v2.1.16/XMCLib/src/xmc_usbd.c **** 			data.d32 = xmc_device.endpoint_in_register[ep->address_u.address_st.number]->diepctl;
1386:/opt/XMClib/XMC_Peripheral_Library_v2.1.16/XMCLib/src/xmc_usbd.c **** 			data.b.stall = 0U;
1387:/opt/XMClib/XMC_Peripheral_Library_v2.1.16/XMCLib/src/xmc_usbd.c **** 			data.b.setd0pid = 1U; /* reset pid to 0 */
1388:/opt/XMClib/XMC_Peripheral_Library_v2.1.16/XMCLib/src/xmc_usbd.c **** 			xmc_device.endpoint_in_register[ep->address_u.address_st.number]->diepctl = data.d32;
1389:/opt/XMClib/XMC_Peripheral_Library_v2.1.16/XMCLib/src/xmc_usbd.c **** 		}
1390:/opt/XMClib/XMC_Peripheral_Library_v2.1.16/XMCLib/src/xmc_usbd.c **** 		else
1391:/opt/XMClib/XMC_Peripheral_Library_v2.1.16/XMCLib/src/xmc_usbd.c **** 		{
1392:/opt/XMClib/XMC_Peripheral_Library_v2.1.16/XMCLib/src/xmc_usbd.c **** 			data.d32 = xmc_device.endpoint_out_register[ep->address_u.address_st.number]->doepctl;
1393:/opt/XMClib/XMC_Peripheral_Library_v2.1.16/XMCLib/src/xmc_usbd.c **** 			data.b.stall = 0U;
1394:/opt/XMClib/XMC_Peripheral_Library_v2.1.16/XMCLib/src/xmc_usbd.c **** 			data.b.setd0pid = 1U; /* reset pid to 0 */
1395:/opt/XMClib/XMC_Peripheral_Library_v2.1.16/XMCLib/src/xmc_usbd.c **** 			xmc_device.endpoint_out_register[ep->address_u.address_st.number]->doepctl = data.d32;
1396:/opt/XMClib/XMC_Peripheral_Library_v2.1.16/XMCLib/src/xmc_usbd.c **** 		}
1397:/opt/XMClib/XMC_Peripheral_Library_v2.1.16/XMCLib/src/xmc_usbd.c **** 		ep->isStalled = 0U;
1398:/opt/XMClib/XMC_Peripheral_Library_v2.1.16/XMCLib/src/xmc_usbd.c **** 	}
1399:/opt/XMClib/XMC_Peripheral_Library_v2.1.16/XMCLib/src/xmc_usbd.c **** 	return XMC_USBD_STATUS_OK;
1400:/opt/XMClib/XMC_Peripheral_Library_v2.1.16/XMCLib/src/xmc_usbd.c **** }
 705              		.loc 1 1400 0
 706 0038 0020     		movs	r0, #0
 707              	.LVL63:
1378:/opt/XMClib/XMC_Peripheral_Library_v2.1.16/XMCLib/src/xmc_usbd.c ****   }
 708              		.loc 1 1378 0
 709 003a 1379     		ldrb	r3, [r2, #4]	@ zero_extendqisi2
 710              		.loc 1 1400 0
 711 003c 5DF8044B 		ldr	r4, [sp], #4
 712              	.LCFI9:
 713              		.cfi_remember_state
 714              		.cfi_restore 4
 715              		.cfi_def_cfa_offset 0
1378:/opt/XMClib/XMC_Peripheral_Library_v2.1.16/XMCLib/src/xmc_usbd.c ****   }
 716              		.loc 1 1378 0
 717 0040 43F02003 		orr	r3, r3, #32
 718 0044 1371     		strb	r3, [r2, #4]
 719              		.loc 1 1400 0
 720 0046 7047     		bx	lr
 721              	.LVL64:
 722              	.L59:
 723              	.LCFI10:
 724              		.cfi_restore_state
1383:/opt/XMClib/XMC_Peripheral_Library_v2.1.16/XMCLib/src/xmc_usbd.c **** 		{
 725              		.loc 1 1383 0
 726 0048 0028     		cmp	r0, #0
1392:/opt/XMClib/XMC_Peripheral_Library_v2.1.16/XMCLib/src/xmc_usbd.c **** 			data.b.stall = 0U;
 727              		.loc 1 1392 0
 728 004a ABBF     		itete	ge
 729 004c 04EB8303 		addge	r3, r4, r3, lsl #2
1385:/opt/XMClib/XMC_Peripheral_Library_v2.1.16/XMCLib/src/xmc_usbd.c **** 			data.b.stall = 0U;
 730              		.loc 1 1385 0
 731 0050 6A33     		addlt	r3, r3, #106
1392:/opt/XMClib/XMC_Peripheral_Library_v2.1.16/XMCLib/src/xmc_usbd.c **** 			data.b.stall = 0U;
 732              		.loc 1 1392 0
 733 0052 D3F8C401 		ldrge	r0, [r3, #452]
1385:/opt/XMClib/XMC_Peripheral_Library_v2.1.16/XMCLib/src/xmc_usbd.c **** 			data.b.stall = 0U;
 734              		.loc 1 1385 0
 735 0056 54F82300 		ldrlt	r0, [r4, r3, lsl #2]
1392:/opt/XMClib/XMC_Peripheral_Library_v2.1.16/XMCLib/src/xmc_usbd.c **** 			data.b.stall = 0U;
 736              		.loc 1 1392 0
 737 005a 0368     		ldr	r3, [r0]
1393:/opt/XMClib/XMC_Peripheral_Library_v2.1.16/XMCLib/src/xmc_usbd.c **** 			data.b.setd0pid = 1U; /* reset pid to 0 */
 738              		.loc 1 1393 0
 739 005c 61F35553 		bfi	r3, r1, #21, #1
 740              	.LVL65:
1394:/opt/XMClib/XMC_Peripheral_Library_v2.1.16/XMCLib/src/xmc_usbd.c **** 			xmc_device.endpoint_out_register[ep->address_u.address_st.number]->doepctl = data.d32;
 741              		.loc 1 1394 0
 742 0060 43F08053 		orr	r3, r3, #268435456
 743              	.LVL66:
1395:/opt/XMClib/XMC_Peripheral_Library_v2.1.16/XMCLib/src/xmc_usbd.c **** 		}
 744              		.loc 1 1395 0
 745 0064 0360     		str	r3, [r0]
1397:/opt/XMClib/XMC_Peripheral_Library_v2.1.16/XMCLib/src/xmc_usbd.c **** 	}
 746              		.loc 1 1397 0
 747 0066 3423     		movs	r3, #52
 748              	.LVL67:
 749 0068 03FB0242 		mla	r2, r3, r2, r4
 750              	.LVL68:
 751              		.loc 1 1400 0
 752 006c 0020     		movs	r0, #0
1397:/opt/XMClib/XMC_Peripheral_Library_v2.1.16/XMCLib/src/xmc_usbd.c **** 	}
 753              		.loc 1 1397 0
 754 006e 1379     		ldrb	r3, [r2, #4]	@ zero_extendqisi2
 755              		.loc 1 1400 0
 756 0070 5DF8044B 		ldr	r4, [sp], #4
 757              	.LCFI11:
 758              		.cfi_restore 4
 759              		.cfi_def_cfa_offset 0
1397:/opt/XMClib/XMC_Peripheral_Library_v2.1.16/XMCLib/src/xmc_usbd.c **** 	}
 760              		.loc 1 1397 0
 761 0074 6FF34513 		bfc	r3, #5, #1
 762 0078 1371     		strb	r3, [r2, #4]
 763              		.loc 1 1400 0
 764 007a 7047     		bx	lr
 765              	.L67:
 766              		.align	2
 767              	.L66:
 768 007c 00000000 		.word	xmc_device
 769              		.cfi_endproc
 770              	.LFE196:
 772              		.section	.text.XMC_USBD_EndpointAbort,"ax",%progbits
 773              		.align	1
 774              		.p2align 2,,3
 775              		.global	XMC_USBD_EndpointAbort
 776              		.syntax unified
 777              		.thumb
 778              		.thumb_func
 779              		.fpu fpv4-sp-d16
 781              	XMC_USBD_EndpointAbort:
 782              	.LFB197:
1401:/opt/XMClib/XMC_Peripheral_Library_v2.1.16/XMCLib/src/xmc_usbd.c **** 
1402:/opt/XMClib/XMC_Peripheral_Library_v2.1.16/XMCLib/src/xmc_usbd.c **** /**
1403:/opt/XMClib/XMC_Peripheral_Library_v2.1.16/XMCLib/src/xmc_usbd.c ****  * Aborts the data transfer on the selected endpoint
1404:/opt/XMClib/XMC_Peripheral_Library_v2.1.16/XMCLib/src/xmc_usbd.c ****  **/
1405:/opt/XMClib/XMC_Peripheral_Library_v2.1.16/XMCLib/src/xmc_usbd.c **** XMC_USBD_STATUS_t XMC_USBD_EndpointAbort(const uint8_t ep_addr) {
 783              		.loc 1 1405 0
 784              		.cfi_startproc
 785              		@ args = 0, pretend = 0, frame = 0
 786              		@ frame_needed = 0, uses_anonymous_args = 0
 787              		@ link register save eliminated.
 788              	.LVL69:
1406:/opt/XMClib/XMC_Peripheral_Library_v2.1.16/XMCLib/src/xmc_usbd.c ****   XMC_USBD_EP_t *ep = &xmc_device.ep[ep_addr & (uint8_t)XMC_USBD_ENDPOINT_NUMBER_MASK];
 789              		.loc 1 1406 0
 790 0000 00F00F00 		and	r0, r0, #15
 791              	.LVL70:
1407:/opt/XMClib/XMC_Peripheral_Library_v2.1.16/XMCLib/src/xmc_usbd.c ****   if (ep->address_u.address_st.direction)
 792              		.loc 1 1407 0
 793 0004 3422     		movs	r2, #52
 794 0006 02FB00F2 		mul	r2, r2, r0
 795 000a 0C4B     		ldr	r3, .L72
 796 000c 9956     		ldrsb	r1, [r3, r2]
 797 000e 1A44     		add	r2, r2, r3
 798              	.LVL71:
 799 0010 0029     		cmp	r1, #0
1408:/opt/XMClib/XMC_Peripheral_Library_v2.1.16/XMCLib/src/xmc_usbd.c ****   {
1409:/opt/XMClib/XMC_Peripheral_Library_v2.1.16/XMCLib/src/xmc_usbd.c ****     ep->inInUse = 0U;
 800              		.loc 1 1409 0
 801 0012 5168     		ldr	r1, [r2, #4]
 802 0014 B4BF     		ite	lt
 803 0016 6FF3C301 		bfclt	r1, #3, #1
1410:/opt/XMClib/XMC_Peripheral_Library_v2.1.16/XMCLib/src/xmc_usbd.c ****   }
1411:/opt/XMClib/XMC_Peripheral_Library_v2.1.16/XMCLib/src/xmc_usbd.c ****   if (!ep->address_u.address_st.direction)
1412:/opt/XMClib/XMC_Peripheral_Library_v2.1.16/XMCLib/src/xmc_usbd.c ****   {
1413:/opt/XMClib/XMC_Peripheral_Library_v2.1.16/XMCLib/src/xmc_usbd.c ****     ep->outInUse = 0U;
 804              		.loc 1 1413 0
 805 001a 6FF30411 		bfcge	r1, #4, #1
 806 001e 5160     		str	r1, [r2, #4]
1414:/opt/XMClib/XMC_Peripheral_Library_v2.1.16/XMCLib/src/xmc_usbd.c ****   }
1415:/opt/XMClib/XMC_Peripheral_Library_v2.1.16/XMCLib/src/xmc_usbd.c ****   ep->isStalled = 0U;
 807              		.loc 1 1415 0
 808 0020 3422     		movs	r2, #52
 809              	.LVL72:
 810 0022 02FB0033 		mla	r3, r2, r0, r3
 811              	.LVL73:
1416:/opt/XMClib/XMC_Peripheral_Library_v2.1.16/XMCLib/src/xmc_usbd.c ****   ep->outBytesAvailable = 0U;
 812              		.loc 1 1416 0
 813 0026 0020     		movs	r0, #0
1415:/opt/XMClib/XMC_Peripheral_Library_v2.1.16/XMCLib/src/xmc_usbd.c ****   ep->outBytesAvailable = 0U;
 814              		.loc 1 1415 0
 815 0028 1A79     		ldrb	r2, [r3, #4]	@ zero_extendqisi2
 816              		.loc 1 1416 0
 817 002a 1861     		str	r0, [r3, #16]
1415:/opt/XMClib/XMC_Peripheral_Library_v2.1.16/XMCLib/src/xmc_usbd.c ****   ep->outBytesAvailable = 0U;
 818              		.loc 1 1415 0
 819 002c 6FF34512 		bfc	r2, #5, #1
 820 0030 1A71     		strb	r2, [r3, #4]
1417:/opt/XMClib/XMC_Peripheral_Library_v2.1.16/XMCLib/src/xmc_usbd.c ****   ep->outOffset = 0U;
 821              		.loc 1 1417 0
 822 0032 9861     		str	r0, [r3, #24]
1418:/opt/XMClib/XMC_Peripheral_Library_v2.1.16/XMCLib/src/xmc_usbd.c ****   ep->xferLength = 0U;
1419:/opt/XMClib/XMC_Peripheral_Library_v2.1.16/XMCLib/src/xmc_usbd.c ****   ep->xferCount = 0U;
 823              		.loc 1 1419 0
 824 0034 C3E90A00 		strd	r0, r0, [r3, #40]
1420:/opt/XMClib/XMC_Peripheral_Library_v2.1.16/XMCLib/src/xmc_usbd.c ****   ep->xferTotal = 0U;
 825              		.loc 1 1420 0
 826 0038 1863     		str	r0, [r3, #48]
1421:/opt/XMClib/XMC_Peripheral_Library_v2.1.16/XMCLib/src/xmc_usbd.c **** 
1422:/opt/XMClib/XMC_Peripheral_Library_v2.1.16/XMCLib/src/xmc_usbd.c ****   return XMC_USBD_STATUS_OK;
1423:/opt/XMClib/XMC_Peripheral_Library_v2.1.16/XMCLib/src/xmc_usbd.c **** }
 827              		.loc 1 1423 0
 828 003a 7047     		bx	lr
 829              	.L73:
 830              		.align	2
 831              	.L72:
 832 003c 00000000 		.word	xmc_device
 833              		.cfi_endproc
 834              	.LFE197:
 836              		.section	.text.XMC_USBD_EndpointUnconfigure,"ax",%progbits
 837              		.align	1
 838              		.p2align 2,,3
 839              		.global	XMC_USBD_EndpointUnconfigure
 840              		.syntax unified
 841              		.thumb
 842              		.thumb_func
 843              		.fpu fpv4-sp-d16
 845              	XMC_USBD_EndpointUnconfigure:
 846              	.LFB199:
1424:/opt/XMClib/XMC_Peripheral_Library_v2.1.16/XMCLib/src/xmc_usbd.c **** 
1425:/opt/XMClib/XMC_Peripheral_Library_v2.1.16/XMCLib/src/xmc_usbd.c **** /**
1426:/opt/XMClib/XMC_Peripheral_Library_v2.1.16/XMCLib/src/xmc_usbd.c ****  * Configures the given endpoint
1427:/opt/XMClib/XMC_Peripheral_Library_v2.1.16/XMCLib/src/xmc_usbd.c ****  **/
1428:/opt/XMClib/XMC_Peripheral_Library_v2.1.16/XMCLib/src/xmc_usbd.c **** XMC_USBD_STATUS_t XMC_USBD_EndpointConfigure(const uint8_t ep_addr,
1429:/opt/XMClib/XMC_Peripheral_Library_v2.1.16/XMCLib/src/xmc_usbd.c **** 		                                     const XMC_USBD_ENDPOINT_TYPE_t ep_type,
1430:/opt/XMClib/XMC_Peripheral_Library_v2.1.16/XMCLib/src/xmc_usbd.c **** 		                                     const uint16_t ep_max_packet_size) 
1431:/opt/XMClib/XMC_Peripheral_Library_v2.1.16/XMCLib/src/xmc_usbd.c **** {
1432:/opt/XMClib/XMC_Peripheral_Library_v2.1.16/XMCLib/src/xmc_usbd.c ****   daint_data_t daintmsk;
1433:/opt/XMClib/XMC_Peripheral_Library_v2.1.16/XMCLib/src/xmc_usbd.c ****   XMC_USBD_EP_t *ep;
1434:/opt/XMClib/XMC_Peripheral_Library_v2.1.16/XMCLib/src/xmc_usbd.c ****   daintmsk.d32 = xmc_device.device_register->daintmsk;  
1435:/opt/XMClib/XMC_Peripheral_Library_v2.1.16/XMCLib/src/xmc_usbd.c ****   ep =&xmc_device.ep[ep_addr & (uint32_t)XMC_USBD_ENDPOINT_NUMBER_MASK];
1436:/opt/XMClib/XMC_Peripheral_Library_v2.1.16/XMCLib/src/xmc_usbd.c ****   memset((void*)ep,0x0U,sizeof(XMC_USBD_EP_t)); /* clear endpoint structure */
1437:/opt/XMClib/XMC_Peripheral_Library_v2.1.16/XMCLib/src/xmc_usbd.c ****   /* do ep configuration */
1438:/opt/XMClib/XMC_Peripheral_Library_v2.1.16/XMCLib/src/xmc_usbd.c ****   ep->address_u.address = ep_addr;
1439:/opt/XMClib/XMC_Peripheral_Library_v2.1.16/XMCLib/src/xmc_usbd.c ****   ep->isConfigured = 1U;
1440:/opt/XMClib/XMC_Peripheral_Library_v2.1.16/XMCLib/src/xmc_usbd.c ****   ep->maxPacketSize = (uint8_t)ep_max_packet_size;
1441:/opt/XMClib/XMC_Peripheral_Library_v2.1.16/XMCLib/src/xmc_usbd.c ****   if (ep->address_u.address != 0U)
1442:/opt/XMClib/XMC_Peripheral_Library_v2.1.16/XMCLib/src/xmc_usbd.c ****   {
1443:/opt/XMClib/XMC_Peripheral_Library_v2.1.16/XMCLib/src/xmc_usbd.c ****     ep->maxTransferSize = (uint32_t)XMC_USBD_MAX_TRANSFER_SIZE;
1444:/opt/XMClib/XMC_Peripheral_Library_v2.1.16/XMCLib/src/xmc_usbd.c ****   }
1445:/opt/XMClib/XMC_Peripheral_Library_v2.1.16/XMCLib/src/xmc_usbd.c ****   else
1446:/opt/XMClib/XMC_Peripheral_Library_v2.1.16/XMCLib/src/xmc_usbd.c ****   {
1447:/opt/XMClib/XMC_Peripheral_Library_v2.1.16/XMCLib/src/xmc_usbd.c ****     ep->maxTransferSize = (uint32_t)XMC_USBD_MAX_TRANSFER_SIZE_EP0;
1448:/opt/XMClib/XMC_Peripheral_Library_v2.1.16/XMCLib/src/xmc_usbd.c ****   }
1449:/opt/XMClib/XMC_Peripheral_Library_v2.1.16/XMCLib/src/xmc_usbd.c ****   /* transfer buffer */
1450:/opt/XMClib/XMC_Peripheral_Library_v2.1.16/XMCLib/src/xmc_usbd.c ****   ep->inBuffer = XMC_USBD_EP_IN_BUFFER[ep->address_u.address_st.number];
1451:/opt/XMClib/XMC_Peripheral_Library_v2.1.16/XMCLib/src/xmc_usbd.c ****   ep->outBuffer = XMC_USBD_EP_OUT_BUFFER[ep->address_u.address_st.number];
1452:/opt/XMClib/XMC_Peripheral_Library_v2.1.16/XMCLib/src/xmc_usbd.c ****   /* buffer size*/
1453:/opt/XMClib/XMC_Peripheral_Library_v2.1.16/XMCLib/src/xmc_usbd.c ****   ep->inBufferSize = XMC_USBD_EP_IN_BUFFERSIZE[ep->address_u.address_st.number];
1454:/opt/XMClib/XMC_Peripheral_Library_v2.1.16/XMCLib/src/xmc_usbd.c ****   ep->outBufferSize = XMC_USBD_EP_OUT_BUFFERSIZE[ep->address_u.address_st.number];
1455:/opt/XMClib/XMC_Peripheral_Library_v2.1.16/XMCLib/src/xmc_usbd.c ****   /* is in */
1456:/opt/XMClib/XMC_Peripheral_Library_v2.1.16/XMCLib/src/xmc_usbd.c ****   if ((ep->address_u.address_st.direction == 1U) || (ep_type == XMC_USBD_ENDPOINT_TYPE_CONTROL))
1457:/opt/XMClib/XMC_Peripheral_Library_v2.1.16/XMCLib/src/xmc_usbd.c ****   {
1458:/opt/XMClib/XMC_Peripheral_Library_v2.1.16/XMCLib/src/xmc_usbd.c ****     depctl_data_t data;
1459:/opt/XMClib/XMC_Peripheral_Library_v2.1.16/XMCLib/src/xmc_usbd.c ****     data.d32 = xmc_device.endpoint_in_register[ep->address_u.address_st.number]->diepctl;
1460:/opt/XMClib/XMC_Peripheral_Library_v2.1.16/XMCLib/src/xmc_usbd.c **** 		/*enable endpoint */
1461:/opt/XMClib/XMC_Peripheral_Library_v2.1.16/XMCLib/src/xmc_usbd.c **** 		data.b.usbactep = 1U;
1462:/opt/XMClib/XMC_Peripheral_Library_v2.1.16/XMCLib/src/xmc_usbd.c **** 		/* set ep type */
1463:/opt/XMClib/XMC_Peripheral_Library_v2.1.16/XMCLib/src/xmc_usbd.c **** 		data.b.eptype = (uint8_t)ep_type;
1464:/opt/XMClib/XMC_Peripheral_Library_v2.1.16/XMCLib/src/xmc_usbd.c **** 		/* set mps */
1465:/opt/XMClib/XMC_Peripheral_Library_v2.1.16/XMCLib/src/xmc_usbd.c ****     if (ep_type == XMC_USBD_ENDPOINT_TYPE_CONTROL)
1466:/opt/XMClib/XMC_Peripheral_Library_v2.1.16/XMCLib/src/xmc_usbd.c ****     {
1467:/opt/XMClib/XMC_Peripheral_Library_v2.1.16/XMCLib/src/xmc_usbd.c **** 			switch(ep_max_packet_size)
1468:/opt/XMClib/XMC_Peripheral_Library_v2.1.16/XMCLib/src/xmc_usbd.c **** 			{
1469:/opt/XMClib/XMC_Peripheral_Library_v2.1.16/XMCLib/src/xmc_usbd.c **** 				case (64U):
1470:/opt/XMClib/XMC_Peripheral_Library_v2.1.16/XMCLib/src/xmc_usbd.c **** 				data.b.mps = 0x0U;
1471:/opt/XMClib/XMC_Peripheral_Library_v2.1.16/XMCLib/src/xmc_usbd.c **** 				break;
1472:/opt/XMClib/XMC_Peripheral_Library_v2.1.16/XMCLib/src/xmc_usbd.c **** 				case (32U):
1473:/opt/XMClib/XMC_Peripheral_Library_v2.1.16/XMCLib/src/xmc_usbd.c **** 				data.b.mps = 0x1U;
1474:/opt/XMClib/XMC_Peripheral_Library_v2.1.16/XMCLib/src/xmc_usbd.c **** 				break;
1475:/opt/XMClib/XMC_Peripheral_Library_v2.1.16/XMCLib/src/xmc_usbd.c **** 				case (16U):
1476:/opt/XMClib/XMC_Peripheral_Library_v2.1.16/XMCLib/src/xmc_usbd.c **** 				data.b.mps = 0x2U;
1477:/opt/XMClib/XMC_Peripheral_Library_v2.1.16/XMCLib/src/xmc_usbd.c **** 				break;
1478:/opt/XMClib/XMC_Peripheral_Library_v2.1.16/XMCLib/src/xmc_usbd.c **** 				case (8U):
1479:/opt/XMClib/XMC_Peripheral_Library_v2.1.16/XMCLib/src/xmc_usbd.c **** 				data.b.mps = 0x3U;
1480:/opt/XMClib/XMC_Peripheral_Library_v2.1.16/XMCLib/src/xmc_usbd.c **** 				break;
1481:/opt/XMClib/XMC_Peripheral_Library_v2.1.16/XMCLib/src/xmc_usbd.c **** 				default:
1482:/opt/XMClib/XMC_Peripheral_Library_v2.1.16/XMCLib/src/xmc_usbd.c **** 				break;
1483:/opt/XMClib/XMC_Peripheral_Library_v2.1.16/XMCLib/src/xmc_usbd.c **** 			}
1484:/opt/XMClib/XMC_Peripheral_Library_v2.1.16/XMCLib/src/xmc_usbd.c **** 		}
1485:/opt/XMClib/XMC_Peripheral_Library_v2.1.16/XMCLib/src/xmc_usbd.c **** 		else
1486:/opt/XMClib/XMC_Peripheral_Library_v2.1.16/XMCLib/src/xmc_usbd.c **** 		{
1487:/opt/XMClib/XMC_Peripheral_Library_v2.1.16/XMCLib/src/xmc_usbd.c **** 			data.b.mps = ep_max_packet_size;
1488:/opt/XMClib/XMC_Peripheral_Library_v2.1.16/XMCLib/src/xmc_usbd.c **** 		}
1489:/opt/XMClib/XMC_Peripheral_Library_v2.1.16/XMCLib/src/xmc_usbd.c **** 		/* set first data0 pid */
1490:/opt/XMClib/XMC_Peripheral_Library_v2.1.16/XMCLib/src/xmc_usbd.c **** 		data.b.setd0pid = 1U;
1491:/opt/XMClib/XMC_Peripheral_Library_v2.1.16/XMCLib/src/xmc_usbd.c **** 		/* clear stall */
1492:/opt/XMClib/XMC_Peripheral_Library_v2.1.16/XMCLib/src/xmc_usbd.c **** 		data.b.stall = 0U;
1493:/opt/XMClib/XMC_Peripheral_Library_v2.1.16/XMCLib/src/xmc_usbd.c **** 		/* set tx fifo */
1494:/opt/XMClib/XMC_Peripheral_Library_v2.1.16/XMCLib/src/xmc_usbd.c **** 		ep->txFifoNum = XMC_USBD_lAssignTXFifo(); /* get tx fifo */
1495:/opt/XMClib/XMC_Peripheral_Library_v2.1.16/XMCLib/src/xmc_usbd.c **** 		data.b.txfnum = ep->txFifoNum;
1496:/opt/XMClib/XMC_Peripheral_Library_v2.1.16/XMCLib/src/xmc_usbd.c **** 		xmc_device.endpoint_in_register[ep->address_u.address_st.number]->diepctl = data.d32; /* configur
1497:/opt/XMClib/XMC_Peripheral_Library_v2.1.16/XMCLib/src/xmc_usbd.c **** 		daintmsk.ep.in |= (uint16_t)((uint16_t)1U << (uint8_t)ep->address_u.address_st.number); /* enable
1498:/opt/XMClib/XMC_Peripheral_Library_v2.1.16/XMCLib/src/xmc_usbd.c ****   }
1499:/opt/XMClib/XMC_Peripheral_Library_v2.1.16/XMCLib/src/xmc_usbd.c ****   if ((ep->address_u.address_st.direction == 0U) || (ep_type == XMC_USBD_ENDPOINT_TYPE_CONTROL))
1500:/opt/XMClib/XMC_Peripheral_Library_v2.1.16/XMCLib/src/xmc_usbd.c ****   {
1501:/opt/XMClib/XMC_Peripheral_Library_v2.1.16/XMCLib/src/xmc_usbd.c ****     /* is out */
1502:/opt/XMClib/XMC_Peripheral_Library_v2.1.16/XMCLib/src/xmc_usbd.c **** 		depctl_data_t data;
1503:/opt/XMClib/XMC_Peripheral_Library_v2.1.16/XMCLib/src/xmc_usbd.c **** 		data.d32 = xmc_device.endpoint_out_register[ep->address_u.address_st.number]->doepctl;
1504:/opt/XMClib/XMC_Peripheral_Library_v2.1.16/XMCLib/src/xmc_usbd.c **** 		/*enable endpoint */
1505:/opt/XMClib/XMC_Peripheral_Library_v2.1.16/XMCLib/src/xmc_usbd.c **** 		data.b.usbactep = 1U;
1506:/opt/XMClib/XMC_Peripheral_Library_v2.1.16/XMCLib/src/xmc_usbd.c **** 		/* set ep type */
1507:/opt/XMClib/XMC_Peripheral_Library_v2.1.16/XMCLib/src/xmc_usbd.c **** 		data.b.eptype = (uint8_t)ep_type;
1508:/opt/XMClib/XMC_Peripheral_Library_v2.1.16/XMCLib/src/xmc_usbd.c ****     /* set mps */
1509:/opt/XMClib/XMC_Peripheral_Library_v2.1.16/XMCLib/src/xmc_usbd.c ****     if (ep_type == XMC_USBD_ENDPOINT_TYPE_CONTROL)
1510:/opt/XMClib/XMC_Peripheral_Library_v2.1.16/XMCLib/src/xmc_usbd.c **** 		{
1511:/opt/XMClib/XMC_Peripheral_Library_v2.1.16/XMCLib/src/xmc_usbd.c **** 			switch(ep_max_packet_size)
1512:/opt/XMClib/XMC_Peripheral_Library_v2.1.16/XMCLib/src/xmc_usbd.c **** 			{
1513:/opt/XMClib/XMC_Peripheral_Library_v2.1.16/XMCLib/src/xmc_usbd.c **** 				case (64U):
1514:/opt/XMClib/XMC_Peripheral_Library_v2.1.16/XMCLib/src/xmc_usbd.c **** 					data.b.mps = 0x0U;
1515:/opt/XMClib/XMC_Peripheral_Library_v2.1.16/XMCLib/src/xmc_usbd.c **** 					break;
1516:/opt/XMClib/XMC_Peripheral_Library_v2.1.16/XMCLib/src/xmc_usbd.c **** 				case (32U):
1517:/opt/XMClib/XMC_Peripheral_Library_v2.1.16/XMCLib/src/xmc_usbd.c **** 					data.b.mps = 0x1U;
1518:/opt/XMClib/XMC_Peripheral_Library_v2.1.16/XMCLib/src/xmc_usbd.c **** 					break;
1519:/opt/XMClib/XMC_Peripheral_Library_v2.1.16/XMCLib/src/xmc_usbd.c **** 				case (16U):
1520:/opt/XMClib/XMC_Peripheral_Library_v2.1.16/XMCLib/src/xmc_usbd.c **** 					data.b.mps = 0x2U;
1521:/opt/XMClib/XMC_Peripheral_Library_v2.1.16/XMCLib/src/xmc_usbd.c **** 					break;
1522:/opt/XMClib/XMC_Peripheral_Library_v2.1.16/XMCLib/src/xmc_usbd.c **** 				case (8U):
1523:/opt/XMClib/XMC_Peripheral_Library_v2.1.16/XMCLib/src/xmc_usbd.c **** 					data.b.mps = 0x3U;
1524:/opt/XMClib/XMC_Peripheral_Library_v2.1.16/XMCLib/src/xmc_usbd.c **** 					break;
1525:/opt/XMClib/XMC_Peripheral_Library_v2.1.16/XMCLib/src/xmc_usbd.c **** 				default:
1526:/opt/XMClib/XMC_Peripheral_Library_v2.1.16/XMCLib/src/xmc_usbd.c **** 					break;
1527:/opt/XMClib/XMC_Peripheral_Library_v2.1.16/XMCLib/src/xmc_usbd.c **** 			}
1528:/opt/XMClib/XMC_Peripheral_Library_v2.1.16/XMCLib/src/xmc_usbd.c **** 		}
1529:/opt/XMClib/XMC_Peripheral_Library_v2.1.16/XMCLib/src/xmc_usbd.c **** 		else
1530:/opt/XMClib/XMC_Peripheral_Library_v2.1.16/XMCLib/src/xmc_usbd.c **** 		{
1531:/opt/XMClib/XMC_Peripheral_Library_v2.1.16/XMCLib/src/xmc_usbd.c **** 			data.b.mps = ep_max_packet_size;
1532:/opt/XMClib/XMC_Peripheral_Library_v2.1.16/XMCLib/src/xmc_usbd.c **** 		}
1533:/opt/XMClib/XMC_Peripheral_Library_v2.1.16/XMCLib/src/xmc_usbd.c **** 		/* set first data0 pid */
1534:/opt/XMClib/XMC_Peripheral_Library_v2.1.16/XMCLib/src/xmc_usbd.c **** 		data.b.setd0pid = 1U;
1535:/opt/XMClib/XMC_Peripheral_Library_v2.1.16/XMCLib/src/xmc_usbd.c **** 		/* clear stall */
1536:/opt/XMClib/XMC_Peripheral_Library_v2.1.16/XMCLib/src/xmc_usbd.c **** 		data.b.stall =(uint8_t) 0U;
1537:/opt/XMClib/XMC_Peripheral_Library_v2.1.16/XMCLib/src/xmc_usbd.c **** 		xmc_device.endpoint_out_register[ep->address_u.address_st.number]->doepctl = data.d32; /* configu
1538:/opt/XMClib/XMC_Peripheral_Library_v2.1.16/XMCLib/src/xmc_usbd.c **** 		daintmsk.ep.out |=(uint16_t) ((uint16_t)1U << (uint8_t)ep->address_u.address_st.number); /* enabl
1539:/opt/XMClib/XMC_Peripheral_Library_v2.1.16/XMCLib/src/xmc_usbd.c ****   }
1540:/opt/XMClib/XMC_Peripheral_Library_v2.1.16/XMCLib/src/xmc_usbd.c ****   xmc_device.device_register->daintmsk = daintmsk.d32;
1541:/opt/XMClib/XMC_Peripheral_Library_v2.1.16/XMCLib/src/xmc_usbd.c ****   return XMC_USBD_STATUS_OK;
1542:/opt/XMClib/XMC_Peripheral_Library_v2.1.16/XMCLib/src/xmc_usbd.c **** }
1543:/opt/XMClib/XMC_Peripheral_Library_v2.1.16/XMCLib/src/xmc_usbd.c **** 
1544:/opt/XMClib/XMC_Peripheral_Library_v2.1.16/XMCLib/src/xmc_usbd.c **** /**
1545:/opt/XMClib/XMC_Peripheral_Library_v2.1.16/XMCLib/src/xmc_usbd.c ****  * Unconfigure the selected endpoint.
1546:/opt/XMClib/XMC_Peripheral_Library_v2.1.16/XMCLib/src/xmc_usbd.c ****  **/
1547:/opt/XMClib/XMC_Peripheral_Library_v2.1.16/XMCLib/src/xmc_usbd.c **** XMC_USBD_STATUS_t XMC_USBD_EndpointUnconfigure(const uint8_t ep_addr) 
1548:/opt/XMClib/XMC_Peripheral_Library_v2.1.16/XMCLib/src/xmc_usbd.c **** {
 847              		.loc 1 1548 0
 848              		.cfi_startproc
 849              		@ args = 0, pretend = 0, frame = 0
 850              		@ frame_needed = 0, uses_anonymous_args = 0
 851              	.LVL74:
 852 0000 2DE9F043 		push	{r4, r5, r6, r7, r8, r9, lr}
 853              	.LCFI12:
 854              		.cfi_def_cfa_offset 28
 855              		.cfi_offset 4, -28
 856              		.cfi_offset 5, -24
 857              		.cfi_offset 6, -20
 858              		.cfi_offset 7, -16
 859              		.cfi_offset 8, -12
 860              		.cfi_offset 9, -8
 861              		.cfi_offset 14, -4
1549:/opt/XMClib/XMC_Peripheral_Library_v2.1.16/XMCLib/src/xmc_usbd.c ****   XMC_USBD_EP_t *ep = &xmc_device.ep[ep_addr & (uint8_t)XMC_USBD_ENDPOINT_NUMBER_MASK];
1550:/opt/XMClib/XMC_Peripheral_Library_v2.1.16/XMCLib/src/xmc_usbd.c ****   depctl_data_t data;
1551:/opt/XMClib/XMC_Peripheral_Library_v2.1.16/XMCLib/src/xmc_usbd.c **** 	daint_data_t daintmsk;
1552:/opt/XMClib/XMC_Peripheral_Library_v2.1.16/XMCLib/src/xmc_usbd.c **** 	XMC_USBD_STATUS_t result;
1553:/opt/XMClib/XMC_Peripheral_Library_v2.1.16/XMCLib/src/xmc_usbd.c **** 	uint32_t number_temp;
1554:/opt/XMClib/XMC_Peripheral_Library_v2.1.16/XMCLib/src/xmc_usbd.c ****   data.d32 = 0U;  
1555:/opt/XMClib/XMC_Peripheral_Library_v2.1.16/XMCLib/src/xmc_usbd.c ****   daintmsk.d32 = xmc_device.device_register->daintmsk;  
 862              		.loc 1 1555 0
 863 0004 3B4B     		ldr	r3, .L88
1549:/opt/XMClib/XMC_Peripheral_Library_v2.1.16/XMCLib/src/xmc_usbd.c ****   XMC_USBD_EP_t *ep = &xmc_device.ep[ep_addr & (uint8_t)XMC_USBD_ENDPOINT_NUMBER_MASK];
 864              		.loc 1 1549 0
 865 0006 00F00F00 		and	r0, r0, #15
 866              	.LVL75:
1556:/opt/XMClib/XMC_Peripheral_Library_v2.1.16/XMCLib/src/xmc_usbd.c ****   number_temp = (uint32_t)((uint32_t)1U << (uint8_t)ep->address_u.address_st.number);
1557:/opt/XMClib/XMC_Peripheral_Library_v2.1.16/XMCLib/src/xmc_usbd.c ****   /* if not configured return an error */
1558:/opt/XMClib/XMC_Peripheral_Library_v2.1.16/XMCLib/src/xmc_usbd.c ****   if (!ep->isConfigured)
 867              		.loc 1 1558 0
 868 000a 3421     		movs	r1, #52
 869 000c 01FB00F1 		mul	r1, r1, r0
 870 0010 5A18     		adds	r2, r3, r1
 871              	.LVL76:
1555:/opt/XMClib/XMC_Peripheral_Library_v2.1.16/XMCLib/src/xmc_usbd.c ****   number_temp = (uint32_t)((uint32_t)1U << (uint8_t)ep->address_u.address_st.number);
 872              		.loc 1 1555 0
 873 0012 D3F8A461 		ldr	r6, [r3, #420]
 874              		.loc 1 1558 0
 875 0016 1479     		ldrb	r4, [r2, #4]	@ zero_extendqisi2
1555:/opt/XMClib/XMC_Peripheral_Library_v2.1.16/XMCLib/src/xmc_usbd.c ****   number_temp = (uint32_t)((uint32_t)1U << (uint8_t)ep->address_u.address_st.number);
 876              		.loc 1 1555 0
 877 0018 D6F81CE0 		ldr	lr, [r6, #28]
 878              	.LVL77:
 879              		.loc 1 1558 0
 880 001c 6507     		lsls	r5, r4, #29
 881 001e 4AD5     		bpl	.L82
1559:/opt/XMClib/XMC_Peripheral_Library_v2.1.16/XMCLib/src/xmc_usbd.c ****   {
1560:/opt/XMClib/XMC_Peripheral_Library_v2.1.16/XMCLib/src/xmc_usbd.c ****      result = XMC_USBD_STATUS_ERROR;
1561:/opt/XMClib/XMC_Peripheral_Library_v2.1.16/XMCLib/src/xmc_usbd.c ****   }
1562:/opt/XMClib/XMC_Peripheral_Library_v2.1.16/XMCLib/src/xmc_usbd.c ****   else
1563:/opt/XMClib/XMC_Peripheral_Library_v2.1.16/XMCLib/src/xmc_usbd.c ****   {
1564:/opt/XMClib/XMC_Peripheral_Library_v2.1.16/XMCLib/src/xmc_usbd.c ****     /* disable the endpoint, deactivate it and only send naks */
1565:/opt/XMClib/XMC_Peripheral_Library_v2.1.16/XMCLib/src/xmc_usbd.c ****     data.b.usbactep = 0U;
1566:/opt/XMClib/XMC_Peripheral_Library_v2.1.16/XMCLib/src/xmc_usbd.c ****     data.b.epdis =  1U;
1567:/opt/XMClib/XMC_Peripheral_Library_v2.1.16/XMCLib/src/xmc_usbd.c ****     data.b.snak =  1U;
1568:/opt/XMClib/XMC_Peripheral_Library_v2.1.16/XMCLib/src/xmc_usbd.c ****     data.b.stall =  0U;
1569:/opt/XMClib/XMC_Peripheral_Library_v2.1.16/XMCLib/src/xmc_usbd.c ****     ep->isConfigured =  0U;
1570:/opt/XMClib/XMC_Peripheral_Library_v2.1.16/XMCLib/src/xmc_usbd.c ****     ep->isStalled =  0U;
 882              		.loc 1 1570 0
 883 0020 04F0FB04 		and	r4, r4, #251
 884 0024 6FF34514 		bfc	r4, #5, #1
1556:/opt/XMClib/XMC_Peripheral_Library_v2.1.16/XMCLib/src/xmc_usbd.c ****   /* if not configured return an error */
 885              		.loc 1 1556 0
 886 0028 13F80180 		ldrb	r8, [r3, r1]	@ zero_extendqisi2
 887              		.loc 1 1570 0
 888 002c 1471     		strb	r4, [r2, #4]
1571:/opt/XMClib/XMC_Peripheral_Library_v2.1.16/XMCLib/src/xmc_usbd.c ****     ep->outInUse =  0U;
 889              		.loc 1 1571 0
 890 002e 5468     		ldr	r4, [r2, #4]
 891 0030 6FF30414 		bfc	r4, #4, #1
 892 0034 5460     		str	r4, [r2, #4]
1572:/opt/XMClib/XMC_Peripheral_Library_v2.1.16/XMCLib/src/xmc_usbd.c ****     ep->inInUse =  0U;
 893              		.loc 1 1572 0
 894 0036 5468     		ldr	r4, [r2, #4]
 895 0038 6FF3C304 		bfc	r4, #3, #1
 896 003c 5460     		str	r4, [r2, #4]
1573:/opt/XMClib/XMC_Peripheral_Library_v2.1.16/XMCLib/src/xmc_usbd.c ****     /* chose register based on the direction. Control Endpoint need both */
1574:/opt/XMClib/XMC_Peripheral_Library_v2.1.16/XMCLib/src/xmc_usbd.c ****     if ((ep->address_u.address_st.direction == 1U) || (ep->type == (uint8_t)XMC_USBD_ENDPOINT_TYPE_
 897              		.loc 1 1574 0
 898 003e 13F90190 		ldrsb	r9, [r3, r1]
 899 0042 4FF0000C 		mov	ip, #0
 900              	.LVL78:
1556:/opt/XMClib/XMC_Peripheral_Library_v2.1.16/XMCLib/src/xmc_usbd.c ****   /* if not configured return an error */
 901              		.loc 1 1556 0
 902 0046 08F00F08 		and	r8, r8, #15
 903 004a 0125     		movs	r5, #1
 904              	.LVL79:
1565:/opt/XMClib/XMC_Peripheral_Library_v2.1.16/XMCLib/src/xmc_usbd.c ****     data.b.epdis =  1U;
 905              		.loc 1 1565 0
 906 004c 6CF3CF3C 		bfi	ip, ip, #15, #1
1556:/opt/XMClib/XMC_Peripheral_Library_v2.1.16/XMCLib/src/xmc_usbd.c ****   /* if not configured return an error */
 907              		.loc 1 1556 0
 908 0050 05FA08F1 		lsl	r1, r5, r8
1567:/opt/XMClib/XMC_Peripheral_Library_v2.1.16/XMCLib/src/xmc_usbd.c ****     data.b.stall =  0U;
 909              		.loc 1 1567 0
 910 0054 4CF0904C 		orr	ip, ip, #1207959552
 911              	.LVL80:
 912 0058 C943     		mvns	r1, r1
 913              		.loc 1 1574 0
 914 005a B9F1000F 		cmp	r9, #0
 915 005e 7746     		mov	r7, lr
 916              	.LVL81:
1568:/opt/XMClib/XMC_Peripheral_Library_v2.1.16/XMCLib/src/xmc_usbd.c ****     ep->isConfigured =  0U;
 917              		.loc 1 1568 0
 918 0060 6FF3555C 		bfc	ip, #21, #1
 919              	.LVL82:
 920 0064 8CB2     		uxth	r4, r1
 921              		.loc 1 1574 0
 922 0066 29DB     		blt	.L76
 923              		.loc 1 1574 0 is_stmt 0 discriminator 1
 924 0068 1279     		ldrb	r2, [r2, #4]	@ zero_extendqisi2
 925              	.LVL83:
 926 006a 9207     		lsls	r2, r2, #30
 927 006c 36D0     		beq	.L77
 928              	.LVL84:
 929              	.L80:
1575:/opt/XMClib/XMC_Peripheral_Library_v2.1.16/XMCLib/src/xmc_usbd.c ****     {
1576:/opt/XMClib/XMC_Peripheral_Library_v2.1.16/XMCLib/src/xmc_usbd.c ****       /* disable endpoint configuration */
1577:/opt/XMClib/XMC_Peripheral_Library_v2.1.16/XMCLib/src/xmc_usbd.c ****       xmc_device.endpoint_in_register[ep->address_u.address_st.number]->diepctl = data.d32;
1578:/opt/XMClib/XMC_Peripheral_Library_v2.1.16/XMCLib/src/xmc_usbd.c ****       /* disable interrupts */
1579:/opt/XMClib/XMC_Peripheral_Library_v2.1.16/XMCLib/src/xmc_usbd.c ****       daintmsk.ep.in = (uint16_t)((uint32_t)daintmsk.ep.in & (~(uint32_t)number_temp));
1580:/opt/XMClib/XMC_Peripheral_Library_v2.1.16/XMCLib/src/xmc_usbd.c ****     }
1581:/opt/XMClib/XMC_Peripheral_Library_v2.1.16/XMCLib/src/xmc_usbd.c ****     if ((ep->address_u.address_st.direction == 0U) || (ep->type == (uint8_t)XMC_USBD_ENDPOINT_TYPE_
1582:/opt/XMClib/XMC_Peripheral_Library_v2.1.16/XMCLib/src/xmc_usbd.c ****     {
1583:/opt/XMClib/XMC_Peripheral_Library_v2.1.16/XMCLib/src/xmc_usbd.c ****       xmc_device.endpoint_out_register[ep->address_u.address_st.number]->doepctl = data.d32;
1584:/opt/XMClib/XMC_Peripheral_Library_v2.1.16/XMCLib/src/xmc_usbd.c ****       daintmsk.ep.out = (uint16_t)((uint32_t)daintmsk.ep.out & (~(uint32_t)number_temp));
1585:/opt/XMClib/XMC_Peripheral_Library_v2.1.16/XMCLib/src/xmc_usbd.c ****       if(usbd_init->usbd_transfer_mode == XMC_USBD_USE_FIFO)
 930              		.loc 1 1585 0 is_stmt 1
 931 006e 224A     		ldr	r2, .L88+4
 932 0070 1268     		ldr	r2, [r2]
1583:/opt/XMClib/XMC_Peripheral_Library_v2.1.16/XMCLib/src/xmc_usbd.c ****       daintmsk.ep.out = (uint16_t)((uint32_t)daintmsk.ep.out & (~(uint32_t)number_temp));
 933              		.loc 1 1583 0
 934 0072 03EB8808 		add	r8, r3, r8, lsl #2
 935              		.loc 1 1585 0
 936 0076 527B     		ldrb	r2, [r2, #13]	@ zero_extendqisi2
1583:/opt/XMClib/XMC_Peripheral_Library_v2.1.16/XMCLib/src/xmc_usbd.c ****       daintmsk.ep.out = (uint16_t)((uint32_t)daintmsk.ep.out & (~(uint32_t)number_temp));
 937              		.loc 1 1583 0
 938 0078 D8F8C451 		ldr	r5, [r8, #452]
1584:/opt/XMClib/XMC_Peripheral_Library_v2.1.16/XMCLib/src/xmc_usbd.c ****       if(usbd_init->usbd_transfer_mode == XMC_USBD_USE_FIFO)
 939              		.loc 1 1584 0
 940 007c 04EA1E44 		and	r4, r4, lr, lsr #16
 941              		.loc 1 1585 0
 942 0080 012A     		cmp	r2, #1
1583:/opt/XMClib/XMC_Peripheral_Library_v2.1.16/XMCLib/src/xmc_usbd.c ****       daintmsk.ep.out = (uint16_t)((uint32_t)daintmsk.ep.out & (~(uint32_t)number_temp));
 943              		.loc 1 1583 0
 944 0082 C5F800C0 		str	ip, [r5]
1584:/opt/XMClib/XMC_Peripheral_Library_v2.1.16/XMCLib/src/xmc_usbd.c ****       if(usbd_init->usbd_transfer_mode == XMC_USBD_USE_FIFO)
 945              		.loc 1 1584 0
 946 0086 64F31F47 		bfi	r7, r4, #16, #16
 947              		.loc 1 1585 0
 948 008a 02D1     		bne	.L79
1586:/opt/XMClib/XMC_Peripheral_Library_v2.1.16/XMCLib/src/xmc_usbd.c ****       {
1587:/opt/XMClib/XMC_Peripheral_Library_v2.1.16/XMCLib/src/xmc_usbd.c ****         xmc_device.device_register->dtknqr4_fifoemptymsk &= ~number_temp;
 949              		.loc 1 1587 0
 950 008c 726B     		ldr	r2, [r6, #52]
 951 008e 1140     		ands	r1, r1, r2
 952 0090 7163     		str	r1, [r6, #52]
 953              	.L79:
1588:/opt/XMClib/XMC_Peripheral_Library_v2.1.16/XMCLib/src/xmc_usbd.c ****       }
1589:/opt/XMClib/XMC_Peripheral_Library_v2.1.16/XMCLib/src/xmc_usbd.c ****     }
1590:/opt/XMClib/XMC_Peripheral_Library_v2.1.16/XMCLib/src/xmc_usbd.c ****     xmc_device.device_register->daintmsk = daintmsk.d32;
1591:/opt/XMClib/XMC_Peripheral_Library_v2.1.16/XMCLib/src/xmc_usbd.c ****     XMC_USBD_lUnassignFifo(ep->txFifoNum); /* free fifo */
 954              		.loc 1 1591 0
 955 0092 3422     		movs	r2, #52
 956 0094 02FB0030 		mla	r0, r2, r0, r3
 957              	.LVL85:
1590:/opt/XMClib/XMC_Peripheral_Library_v2.1.16/XMCLib/src/xmc_usbd.c ****     XMC_USBD_lUnassignFifo(ep->txFifoNum); /* free fifo */
 958              		.loc 1 1590 0
 959 0098 F761     		str	r7, [r6, #28]
 960              	.LVL86:
 961              		.loc 1 1591 0
 962 009a 8188     		ldrh	r1, [r0, #4]
 963              	.LBB91:
 964              	.LBB92:
 384:/opt/XMClib/XMC_Peripheral_Library_v2.1.16/XMCLib/src/xmc_usbd.c **** }
 965              		.loc 1 384 0
 966 009c B3F8FC21 		ldrh	r2, [r3, #508]
 967 00a0 C1F38310 		ubfx	r0, r1, #6, #4
 968 00a4 0121     		movs	r1, #1
 969 00a6 8140     		lsls	r1, r1, r0
 970 00a8 22EA0102 		bic	r2, r2, r1
 971 00ac A3F8FC21 		strh	r2, [r3, #508]	@ movhi
 972              	.LVL87:
 973              	.LBE92:
 974              	.LBE91:
1592:/opt/XMClib/XMC_Peripheral_Library_v2.1.16/XMCLib/src/xmc_usbd.c ****     result = XMC_USBD_STATUS_OK;
 975              		.loc 1 1592 0
 976 00b0 0020     		movs	r0, #0
1593:/opt/XMClib/XMC_Peripheral_Library_v2.1.16/XMCLib/src/xmc_usbd.c ****   }
1594:/opt/XMClib/XMC_Peripheral_Library_v2.1.16/XMCLib/src/xmc_usbd.c ****   return result;
1595:/opt/XMClib/XMC_Peripheral_Library_v2.1.16/XMCLib/src/xmc_usbd.c **** }
 977              		.loc 1 1595 0
 978 00b2 BDE8F083 		pop	{r4, r5, r6, r7, r8, r9, pc}
 979              	.LVL88:
 980              	.L82:
1560:/opt/XMClib/XMC_Peripheral_Library_v2.1.16/XMCLib/src/xmc_usbd.c ****   }
 981              		.loc 1 1560 0
 982 00b6 0120     		movs	r0, #1
 983              	.LVL89:
 984              		.loc 1 1595 0
 985 00b8 BDE8F083 		pop	{r4, r5, r6, r7, r8, r9, pc}
 986              	.LVL90:
 987              	.L76:
1577:/opt/XMClib/XMC_Peripheral_Library_v2.1.16/XMCLib/src/xmc_usbd.c ****       /* disable interrupts */
 988              		.loc 1 1577 0
 989 00bc 08F16A09 		add	r9, r8, #106
1579:/opt/XMClib/XMC_Peripheral_Library_v2.1.16/XMCLib/src/xmc_usbd.c ****     }
 990              		.loc 1 1579 0
 991 00c0 04EA0E05 		and	r5, r4, lr
1577:/opt/XMClib/XMC_Peripheral_Library_v2.1.16/XMCLib/src/xmc_usbd.c ****       /* disable interrupts */
 992              		.loc 1 1577 0
 993 00c4 53F82990 		ldr	r9, [r3, r9, lsl #2]
 994 00c8 C9F800C0 		str	ip, [r9]
 995              	.LVL91:
1581:/opt/XMClib/XMC_Peripheral_Library_v2.1.16/XMCLib/src/xmc_usbd.c ****     {
 996              		.loc 1 1581 0
 997 00cc 92F80490 		ldrb	r9, [r2, #4]	@ zero_extendqisi2
 998 00d0 19F0030F 		tst	r9, #3
1579:/opt/XMClib/XMC_Peripheral_Library_v2.1.16/XMCLib/src/xmc_usbd.c ****     }
 999              		.loc 1 1579 0
 1000 00d4 65F30F07 		bfi	r7, r5, #0, #16
 1001              	.LVL92:
1581:/opt/XMClib/XMC_Peripheral_Library_v2.1.16/XMCLib/src/xmc_usbd.c ****     {
 1002              		.loc 1 1581 0
 1003 00d8 C9D0     		beq	.L80
 1004 00da DAE7     		b	.L79
 1005              	.LVL93:
 1006              	.L77:
1577:/opt/XMClib/XMC_Peripheral_Library_v2.1.16/XMCLib/src/xmc_usbd.c ****       /* disable interrupts */
 1007              		.loc 1 1577 0
 1008 00dc 08F16A05 		add	r5, r8, #106
1579:/opt/XMClib/XMC_Peripheral_Library_v2.1.16/XMCLib/src/xmc_usbd.c ****     }
 1009              		.loc 1 1579 0
 1010 00e0 04EA0E02 		and	r2, r4, lr
1577:/opt/XMClib/XMC_Peripheral_Library_v2.1.16/XMCLib/src/xmc_usbd.c ****       /* disable interrupts */
 1011              		.loc 1 1577 0
 1012 00e4 53F82550 		ldr	r5, [r3, r5, lsl #2]
1579:/opt/XMClib/XMC_Peripheral_Library_v2.1.16/XMCLib/src/xmc_usbd.c ****     }
 1013              		.loc 1 1579 0
 1014 00e8 62F30F07 		bfi	r7, r2, #0, #16
 1015              	.LVL94:
1577:/opt/XMClib/XMC_Peripheral_Library_v2.1.16/XMCLib/src/xmc_usbd.c ****       /* disable interrupts */
 1016              		.loc 1 1577 0
 1017 00ec C5F800C0 		str	ip, [r5]
 1018              	.LVL95:
 1019 00f0 BDE7     		b	.L80
 1020              	.L89:
 1021 00f2 00BF     		.align	2
 1022              	.L88:
 1023 00f4 00000000 		.word	xmc_device
 1024 00f8 00000000 		.word	usbd_init
 1025              		.cfi_endproc
 1026              	.LFE199:
 1028              		.section	.text.XMC_USBD_GetFrameNumber,"ax",%progbits
 1029              		.align	1
 1030              		.p2align 2,,3
 1031              		.global	XMC_USBD_GetFrameNumber
 1032              		.syntax unified
 1033              		.thumb
 1034              		.thumb_func
 1035              		.fpu fpv4-sp-d16
 1037              	XMC_USBD_GetFrameNumber:
 1038              	.LFB200:
1596:/opt/XMClib/XMC_Peripheral_Library_v2.1.16/XMCLib/src/xmc_usbd.c **** 
1597:/opt/XMClib/XMC_Peripheral_Library_v2.1.16/XMCLib/src/xmc_usbd.c **** /**
1598:/opt/XMClib/XMC_Peripheral_Library_v2.1.16/XMCLib/src/xmc_usbd.c ****  * Gets the current USB frame number
1599:/opt/XMClib/XMC_Peripheral_Library_v2.1.16/XMCLib/src/xmc_usbd.c ****  **/
1600:/opt/XMClib/XMC_Peripheral_Library_v2.1.16/XMCLib/src/xmc_usbd.c **** uint16_t XMC_USBD_GetFrameNumber(void) 
1601:/opt/XMClib/XMC_Peripheral_Library_v2.1.16/XMCLib/src/xmc_usbd.c **** {
 1039              		.loc 1 1601 0
 1040              		.cfi_startproc
 1041              		@ args = 0, pretend = 0, frame = 0
 1042              		@ frame_needed = 0, uses_anonymous_args = 0
 1043              		@ link register save eliminated.
1602:/opt/XMClib/XMC_Peripheral_Library_v2.1.16/XMCLib/src/xmc_usbd.c ****   uint16_t result;
1603:/opt/XMClib/XMC_Peripheral_Library_v2.1.16/XMCLib/src/xmc_usbd.c ****   dsts_data_t dsts;
1604:/opt/XMClib/XMC_Peripheral_Library_v2.1.16/XMCLib/src/xmc_usbd.c ****   dsts.d32 = xmc_device.device_register->dsts;
 1044              		.loc 1 1604 0
 1045 0000 034B     		ldr	r3, .L91
 1046 0002 D3F8A431 		ldr	r3, [r3, #420]
 1047 0006 9868     		ldr	r0, [r3, #8]
 1048              	.LVL96:
1605:/opt/XMClib/XMC_Peripheral_Library_v2.1.16/XMCLib/src/xmc_usbd.c ****   result = (uint16_t)dsts.b.soffn;
1606:/opt/XMClib/XMC_Peripheral_Library_v2.1.16/XMCLib/src/xmc_usbd.c ****   return result;
1607:/opt/XMClib/XMC_Peripheral_Library_v2.1.16/XMCLib/src/xmc_usbd.c **** }
 1049              		.loc 1 1607 0
 1050 0008 C0F30D20 		ubfx	r0, r0, #8, #14
 1051              	.LVL97:
 1052 000c 7047     		bx	lr
 1053              	.L92:
 1054 000e 00BF     		.align	2
 1055              	.L91:
 1056 0010 00000000 		.word	xmc_device
 1057              		.cfi_endproc
 1058              	.LFE200:
 1060              		.section	.text.XMC_USBD_IsEnumDone,"ax",%progbits
 1061              		.align	1
 1062              		.p2align 2,,3
 1063              		.global	XMC_USBD_IsEnumDone
 1064              		.syntax unified
 1065              		.thumb
 1066              		.thumb_func
 1067              		.fpu fpv4-sp-d16
 1069              	XMC_USBD_IsEnumDone:
 1070              	.LFB201:
1608:/opt/XMClib/XMC_Peripheral_Library_v2.1.16/XMCLib/src/xmc_usbd.c **** 
1609:/opt/XMClib/XMC_Peripheral_Library_v2.1.16/XMCLib/src/xmc_usbd.c **** /**
1610:/opt/XMClib/XMC_Peripheral_Library_v2.1.16/XMCLib/src/xmc_usbd.c ****  * Gets the USB speed enumeration completion status.
1611:/opt/XMClib/XMC_Peripheral_Library_v2.1.16/XMCLib/src/xmc_usbd.c ****  * This should not be used for the actual USB enumeration completion status. For the actual USB enu
1612:/opt/XMClib/XMC_Peripheral_Library_v2.1.16/XMCLib/src/xmc_usbd.c ****  * the application layer should check for the completion of USB standard request Set configuration.
1613:/opt/XMClib/XMC_Peripheral_Library_v2.1.16/XMCLib/src/xmc_usbd.c ****  **/
1614:/opt/XMClib/XMC_Peripheral_Library_v2.1.16/XMCLib/src/xmc_usbd.c **** uint32_t XMC_USBD_IsEnumDone(void)
1615:/opt/XMClib/XMC_Peripheral_Library_v2.1.16/XMCLib/src/xmc_usbd.c **** {
 1071              		.loc 1 1615 0
 1072              		.cfi_startproc
 1073              		@ args = 0, pretend = 0, frame = 0
 1074              		@ frame_needed = 0, uses_anonymous_args = 0
 1075              		@ link register save eliminated.
1616:/opt/XMClib/XMC_Peripheral_Library_v2.1.16/XMCLib/src/xmc_usbd.c ****   return (uint32_t)((uint8_t)xmc_device.IsConnected && (uint8_t)xmc_device.IsPowered);
 1076              		.loc 1 1616 0
 1077 0000 054B     		ldr	r3, .L94
 1078 0002 93F8FE01 		ldrb	r0, [r3, #510]	@ zero_extendqisi2
 1079 0006 00F00500 		and	r0, r0, #5
1617:/opt/XMClib/XMC_Peripheral_Library_v2.1.16/XMCLib/src/xmc_usbd.c **** }
 1080              		.loc 1 1617 0
 1081 000a A0F10500 		sub	r0, #5
 1082 000e B0FA80F0 		clz	r0, r0
 1083 0012 4009     		lsrs	r0, r0, #5
 1084 0014 7047     		bx	lr
 1085              	.L95:
 1086 0016 00BF     		.align	2
 1087              	.L94:
 1088 0018 00000000 		.word	xmc_device
 1089              		.cfi_endproc
 1090              	.LFE201:
 1092              		.section	.text.XMC_USBD_Uninitialize,"ax",%progbits
 1093              		.align	1
 1094              		.p2align 2,,3
 1095              		.global	XMC_USBD_Uninitialize
 1096              		.syntax unified
 1097              		.thumb
 1098              		.thumb_func
 1099              		.fpu fpv4-sp-d16
 1101              	XMC_USBD_Uninitialize:
 1102              	.LFB188:
1201:/opt/XMClib/XMC_Peripheral_Library_v2.1.16/XMCLib/src/xmc_usbd.c ****   /* Disconnect the device */
 1103              		.loc 1 1201 0
 1104              		.cfi_startproc
 1105              		@ args = 0, pretend = 0, frame = 0
 1106              		@ frame_needed = 0, uses_anonymous_args = 0
1204:/opt/XMClib/XMC_Peripheral_Library_v2.1.16/XMCLib/src/xmc_usbd.c ****   dctl.b.sftdiscon = 1U;
 1107              		.loc 1 1204 0
 1108 0000 0748     		ldr	r0, .L98
 1109 0002 D0F8A421 		ldr	r2, [r0, #420]
1201:/opt/XMClib/XMC_Peripheral_Library_v2.1.16/XMCLib/src/xmc_usbd.c ****   /* Disconnect the device */
 1110              		.loc 1 1201 0
 1111 0006 08B5     		push	{r3, lr}
 1112              	.LCFI13:
 1113              		.cfi_def_cfa_offset 8
 1114              		.cfi_offset 3, -8
 1115              		.cfi_offset 14, -4
1204:/opt/XMClib/XMC_Peripheral_Library_v2.1.16/XMCLib/src/xmc_usbd.c ****   dctl.b.sftdiscon = 1U;
 1116              		.loc 1 1204 0
 1117 0008 5368     		ldr	r3, [r2, #4]
1205:/opt/XMClib/XMC_Peripheral_Library_v2.1.16/XMCLib/src/xmc_usbd.c ****   xmc_device.device_register->dctl = dctl.d32;
 1118              		.loc 1 1205 0
 1119 000a 43F00203 		orr	r3, r3, #2
 1120              	.LVL98:
1206:/opt/XMClib/XMC_Peripheral_Library_v2.1.16/XMCLib/src/xmc_usbd.c ****   /* clean up */
 1121              		.loc 1 1206 0
 1122 000e 5360     		str	r3, [r2, #4]
1208:/opt/XMClib/XMC_Peripheral_Library_v2.1.16/XMCLib/src/xmc_usbd.c ****   return XMC_USBD_STATUS_OK;
 1123              		.loc 1 1208 0
 1124 0010 0021     		movs	r1, #0
 1125 0012 4FF40272 		mov	r2, #520
 1126 0016 FFF7FEFF 		bl	memset
 1127              	.LVL99:
1210:/opt/XMClib/XMC_Peripheral_Library_v2.1.16/XMCLib/src/xmc_usbd.c **** 
 1128              		.loc 1 1210 0
 1129 001a 0020     		movs	r0, #0
 1130 001c 08BD     		pop	{r3, pc}
 1131              	.L99:
 1132 001e 00BF     		.align	2
 1133              	.L98:
 1134 0020 00000000 		.word	xmc_device
 1135              		.cfi_endproc
 1136              	.LFE188:
 1138              		.section	.text.XMC_USBD_EndpointConfigure,"ax",%progbits
 1139              		.align	1
 1140              		.p2align 2,,3
 1141              		.global	XMC_USBD_EndpointConfigure
 1142              		.syntax unified
 1143              		.thumb
 1144              		.thumb_func
 1145              		.fpu fpv4-sp-d16
 1147              	XMC_USBD_EndpointConfigure:
 1148              	.LFB198:
1431:/opt/XMClib/XMC_Peripheral_Library_v2.1.16/XMCLib/src/xmc_usbd.c ****   daint_data_t daintmsk;
 1149              		.loc 1 1431 0
 1150              		.cfi_startproc
 1151              		@ args = 0, pretend = 0, frame = 8
 1152              		@ frame_needed = 0, uses_anonymous_args = 0
 1153              	.LVL100:
 1154 0000 2DE9F04F 		push	{r4, r5, r6, r7, r8, r9, r10, fp, lr}
 1155              	.LCFI14:
 1156              		.cfi_def_cfa_offset 36
 1157              		.cfi_offset 4, -36
 1158              		.cfi_offset 5, -32
 1159              		.cfi_offset 6, -28
 1160              		.cfi_offset 7, -24
 1161              		.cfi_offset 8, -20
 1162              		.cfi_offset 9, -16
 1163              		.cfi_offset 10, -12
 1164              		.cfi_offset 11, -8
 1165              		.cfi_offset 14, -4
1434:/opt/XMClib/XMC_Peripheral_Library_v2.1.16/XMCLib/src/xmc_usbd.c ****   ep =&xmc_device.ep[ep_addr & (uint32_t)XMC_USBD_ENDPOINT_NUMBER_MASK];
 1166              		.loc 1 1434 0
 1167 0004 964C     		ldr	r4, .L138
 1168 0006 00F00F05 		and	r5, r0, #15
 1169              	.LVL101:
1431:/opt/XMClib/XMC_Peripheral_Library_v2.1.16/XMCLib/src/xmc_usbd.c ****   daint_data_t daintmsk;
 1170              		.loc 1 1431 0
 1171 000a 8146     		mov	r9, r0
1435:/opt/XMClib/XMC_Peripheral_Library_v2.1.16/XMCLib/src/xmc_usbd.c ****   memset((void*)ep,0x0U,sizeof(XMC_USBD_EP_t)); /* clear endpoint structure */
 1172              		.loc 1 1435 0
 1173 000c 05EB4500 		add	r0, r5, r5, lsl #1
 1174              	.LVL102:
1434:/opt/XMClib/XMC_Peripheral_Library_v2.1.16/XMCLib/src/xmc_usbd.c ****   ep =&xmc_device.ep[ep_addr & (uint32_t)XMC_USBD_ENDPOINT_NUMBER_MASK];
 1175              		.loc 1 1434 0
 1176 0010 D4F8A431 		ldr	r3, [r4, #420]
1436:/opt/XMClib/XMC_Peripheral_Library_v2.1.16/XMCLib/src/xmc_usbd.c ****   /* do ep configuration */
 1177              		.loc 1 1436 0
 1178 0014 4FF0340A 		mov	r10, #52
1435:/opt/XMClib/XMC_Peripheral_Library_v2.1.16/XMCLib/src/xmc_usbd.c ****   memset((void*)ep,0x0U,sizeof(XMC_USBD_EP_t)); /* clear endpoint structure */
 1179              		.loc 1 1435 0
 1180 0018 05EB8000 		add	r0, r5, r0, lsl #2
1431:/opt/XMClib/XMC_Peripheral_Library_v2.1.16/XMCLib/src/xmc_usbd.c ****   daint_data_t daintmsk;
 1181              		.loc 1 1431 0
 1182 001c 1646     		mov	r6, r2
 1183 001e 83B0     		sub	sp, sp, #12
 1184              	.LCFI15:
 1185              		.cfi_def_cfa_offset 48
1436:/opt/XMClib/XMC_Peripheral_Library_v2.1.16/XMCLib/src/xmc_usbd.c ****   /* do ep configuration */
 1186              		.loc 1 1436 0
 1187 0020 5246     		mov	r2, r10
 1188              	.LVL103:
1431:/opt/XMClib/XMC_Peripheral_Library_v2.1.16/XMCLib/src/xmc_usbd.c ****   daint_data_t daintmsk;
 1189              		.loc 1 1431 0
 1190 0022 0F46     		mov	r7, r1
1436:/opt/XMClib/XMC_Peripheral_Library_v2.1.16/XMCLib/src/xmc_usbd.c ****   /* do ep configuration */
 1191              		.loc 1 1436 0
 1192 0024 04EB8000 		add	r0, r4, r0, lsl #2
 1193 0028 0021     		movs	r1, #0
 1194              	.LVL104:
1434:/opt/XMClib/XMC_Peripheral_Library_v2.1.16/XMCLib/src/xmc_usbd.c ****   ep =&xmc_device.ep[ep_addr & (uint32_t)XMC_USBD_ENDPOINT_NUMBER_MASK];
 1195              		.loc 1 1434 0
 1196 002a D3F81C80 		ldr	r8, [r3, #28]
1436:/opt/XMClib/XMC_Peripheral_Library_v2.1.16/XMCLib/src/xmc_usbd.c ****   /* do ep configuration */
 1197              		.loc 1 1436 0
 1198 002e FFF7FEFF 		bl	memset
 1199              	.LVL105:
1438:/opt/XMClib/XMC_Peripheral_Library_v2.1.16/XMCLib/src/xmc_usbd.c ****   ep->isConfigured = 1U;
 1200              		.loc 1 1438 0
 1201 0032 0AFB05F2 		mul	r2, r10, r5
 1202 0036 04EB020C 		add	ip, r4, r2
 1203 003a 04F80290 		strb	r9, [r4, r2]
1439:/opt/XMClib/XMC_Peripheral_Library_v2.1.16/XMCLib/src/xmc_usbd.c ****   ep->maxPacketSize = (uint8_t)ep_max_packet_size;
 1204              		.loc 1 1439 0
 1205 003e 9CF80430 		ldrb	r3, [ip, #4]	@ zero_extendqisi2
 1206 0042 43F00403 		orr	r3, r3, #4
 1207 0046 8CF80430 		strb	r3, [ip, #4]
1440:/opt/XMClib/XMC_Peripheral_Library_v2.1.16/XMCLib/src/xmc_usbd.c ****   if (ep->address_u.address != 0U)
 1208              		.loc 1 1440 0
 1209 004a DCF80430 		ldr	r3, [ip, #4]
 1210 004e 66F3D123 		bfi	r3, r6, #11, #7
 1211 0052 CCF80430 		str	r3, [ip, #4]
1434:/opt/XMClib/XMC_Peripheral_Library_v2.1.16/XMCLib/src/xmc_usbd.c ****   ep =&xmc_device.ep[ep_addr & (uint32_t)XMC_USBD_ENDPOINT_NUMBER_MASK];
 1212              		.loc 1 1434 0
 1213 0056 C246     		mov	r10, r8
 1214              	.LVL106:
 1215 0058 4FFA89FB 		sxtb	fp, r9
1441:/opt/XMClib/XMC_Peripheral_Library_v2.1.16/XMCLib/src/xmc_usbd.c ****   {
 1216              		.loc 1 1441 0
 1217 005c B9F1000F 		cmp	r9, #0
 1218 0060 6DD0     		beq	.L101
1443:/opt/XMClib/XMC_Peripheral_Library_v2.1.16/XMCLib/src/xmc_usbd.c ****   }
 1219              		.loc 1 1443 0
 1220 0062 DCF80810 		ldr	r1, [ip, #8]
1453:/opt/XMClib/XMC_Peripheral_Library_v2.1.16/XMCLib/src/xmc_usbd.c ****   ep->outBufferSize = XMC_USBD_EP_OUT_BUFFERSIZE[ep->address_u.address_st.number];
 1221              		.loc 1 1453 0
 1222 0066 DFF800E2 		ldr	lr, .L138+8
1443:/opt/XMClib/XMC_Peripheral_Library_v2.1.16/XMCLib/src/xmc_usbd.c ****   }
 1223              		.loc 1 1443 0
 1224 006a 4FF6C070 		movw	r0, #65472
 1225 006e 60F31201 		bfi	r1, r0, #0, #19
 1226 0072 CCF80810 		str	r1, [ip, #8]
1450:/opt/XMClib/XMC_Peripheral_Library_v2.1.16/XMCLib/src/xmc_usbd.c ****   ep->outBuffer = XMC_USBD_EP_OUT_BUFFER[ep->address_u.address_st.number];
 1227              		.loc 1 1450 0
 1228 0076 A15C     		ldrb	r1, [r4, r2]	@ zero_extendqisi2
 1229 0078 7A4A     		ldr	r2, .L138+4
 1230 007a 01F00F01 		and	r1, r1, #15
1454:/opt/XMClib/XMC_Peripheral_Library_v2.1.16/XMCLib/src/xmc_usbd.c ****   /* is in */
 1231              		.loc 1 1454 0
 1232 007e 0EEB8103 		add	r3, lr, r1, lsl #2
 1233 0082 0802     		lsls	r0, r1, #8
 1234 0084 DB69     		ldr	r3, [r3, #28]
 1235 0086 0193     		str	r3, [sp, #4]
1453:/opt/XMClib/XMC_Peripheral_Library_v2.1.16/XMCLib/src/xmc_usbd.c ****   ep->outBufferSize = XMC_USBD_EP_OUT_BUFFERSIZE[ep->address_u.address_st.number];
 1236              		.loc 1 1453 0
 1237 0088 5EF82130 		ldr	r3, [lr, r1, lsl #2]
 1238 008c CCF82030 		str	r3, [ip, #32]
1451:/opt/XMClib/XMC_Peripheral_Library_v2.1.16/XMCLib/src/xmc_usbd.c ****   /* buffer size*/
 1239              		.loc 1 1451 0
 1240 0090 02F5E06E 		add	lr, r2, #1792
1454:/opt/XMClib/XMC_Peripheral_Library_v2.1.16/XMCLib/src/xmc_usbd.c ****   /* is in */
 1241              		.loc 1 1454 0
 1242 0094 019B     		ldr	r3, [sp, #4]
 1243 0096 CCF81430 		str	r3, [ip, #20]
1450:/opt/XMClib/XMC_Peripheral_Library_v2.1.16/XMCLib/src/xmc_usbd.c ****   ep->outBuffer = XMC_USBD_EP_OUT_BUFFER[ep->address_u.address_st.number];
 1244              		.loc 1 1450 0
 1245 009a 1318     		adds	r3, r2, r0
1451:/opt/XMClib/XMC_Peripheral_Library_v2.1.16/XMCLib/src/xmc_usbd.c ****   /* buffer size*/
 1246              		.loc 1 1451 0
 1247 009c 0EEB0002 		add	r2, lr, r0
 1248 00a0 0120     		movs	r0, #1
 1249 00a2 8840     		lsls	r0, r0, r1
1456:/opt/XMClib/XMC_Peripheral_Library_v2.1.16/XMCLib/src/xmc_usbd.c ****   {
 1250              		.loc 1 1456 0
 1251 00a4 BBF1000F 		cmp	fp, #0
1450:/opt/XMClib/XMC_Peripheral_Library_v2.1.16/XMCLib/src/xmc_usbd.c ****   ep->outBuffer = XMC_USBD_EP_OUT_BUFFER[ep->address_u.address_st.number];
 1252              		.loc 1 1450 0
 1253 00a8 CCF81C30 		str	r3, [ip, #28]
1451:/opt/XMClib/XMC_Peripheral_Library_v2.1.16/XMCLib/src/xmc_usbd.c ****   /* buffer size*/
 1254              		.loc 1 1451 0
 1255 00ac CCF80C20 		str	r2, [ip, #12]
 1256 00b0 80B2     		uxth	r0, r0
1456:/opt/XMClib/XMC_Peripheral_Library_v2.1.16/XMCLib/src/xmc_usbd.c ****   {
 1257              		.loc 1 1456 0
 1258 00b2 69DA     		bge	.L103
 1259              	.LBB93:
1459:/opt/XMClib/XMC_Peripheral_Library_v2.1.16/XMCLib/src/xmc_usbd.c **** 		/*enable endpoint */
 1260              		.loc 1 1459 0
 1261 00b4 01F16A03 		add	r3, r1, #106
 1262 00b8 54F82330 		ldr	r3, [r4, r3, lsl #2]
 1263 00bc 0193     		str	r3, [sp, #4]
 1264 00be D3F800C0 		ldr	ip, [r3]
 1265              	.LVL107:
1461:/opt/XMClib/XMC_Peripheral_Library_v2.1.16/XMCLib/src/xmc_usbd.c **** 		/* set ep type */
 1266              		.loc 1 1461 0
 1267 00c2 4CF4004C 		orr	ip, ip, #32768
 1268              	.LVL108:
1463:/opt/XMClib/XMC_Peripheral_Library_v2.1.16/XMCLib/src/xmc_usbd.c **** 		/* set mps */
 1269              		.loc 1 1463 0
 1270 00c6 67F3934C 		bfi	ip, r7, #18, #2
 1271              	.LVL109:
1465:/opt/XMClib/XMC_Peripheral_Library_v2.1.16/XMCLib/src/xmc_usbd.c ****     {
 1272              		.loc 1 1465 0
 1273 00ca 002F     		cmp	r7, #0
 1274 00cc 00F08480 		beq	.L128
1487:/opt/XMClib/XMC_Peripheral_Library_v2.1.16/XMCLib/src/xmc_usbd.c **** 		}
 1275              		.loc 1 1487 0
 1276 00d0 66F30A0C 		bfi	ip, r6, #0, #11
 1277              	.L107:
1490:/opt/XMClib/XMC_Peripheral_Library_v2.1.16/XMCLib/src/xmc_usbd.c **** 		/* clear stall */
 1278              		.loc 1 1490 0
 1279 00d4 4CF0805C 		orr	ip, ip, #268435456
 1280              	.LVL110:
 1281              	.LBB94:
 1282              	.LBB95:
 363:/opt/XMClib/XMC_Peripheral_Library_v2.1.16/XMCLib/src/xmc_usbd.c ****   {
 1283              		.loc 1 363 0
 1284 00d8 B4F8FC91 		ldrh	r9, [r4, #508]
 1285              	.LBE95:
 1286              	.LBE94:
1492:/opt/XMClib/XMC_Peripheral_Library_v2.1.16/XMCLib/src/xmc_usbd.c **** 		/* set tx fifo */
 1287              		.loc 1 1492 0
 1288 00dc 6FF3555C 		bfc	ip, #21, #1
 1289              	.LVL111:
 1290              	.LBB98:
 1291              	.LBB96:
 363:/opt/XMClib/XMC_Peripheral_Library_v2.1.16/XMCLib/src/xmc_usbd.c ****   {
 1292              		.loc 1 363 0
 1293 00e0 0023     		movs	r3, #0
 360:/opt/XMClib/XMC_Peripheral_Library_v2.1.16/XMCLib/src/xmc_usbd.c ****   uint8_t i = 0U;
 1294              		.loc 1 360 0
 1295 00e2 0122     		movs	r2, #1
 1296              	.LVL112:
 1297              	.L113:
 363:/opt/XMClib/XMC_Peripheral_Library_v2.1.16/XMCLib/src/xmc_usbd.c ****   {
 1298              		.loc 1 363 0
 1299 00e4 19EA020F 		tst	r9, r2
 365:/opt/XMClib/XMC_Peripheral_Library_v2.1.16/XMCLib/src/xmc_usbd.c ****     i++;
 1300              		.loc 1 365 0
 1301 00e8 4FEA420E 		lsl	lr, r2, #1
 363:/opt/XMClib/XMC_Peripheral_Library_v2.1.16/XMCLib/src/xmc_usbd.c ****   {
 1302              		.loc 1 363 0
 1303 00ec 7FD0     		beq	.L135
 1304 00ee 0133     		adds	r3, r3, #1
 1305              	.LVL113:
 1306 00f0 072B     		cmp	r3, #7
 365:/opt/XMClib/XMC_Peripheral_Library_v2.1.16/XMCLib/src/xmc_usbd.c ****     i++;
 1307              		.loc 1 365 0
 1308 00f2 1FFA8EF2 		uxth	r2, lr
 1309              	.LVL114:
 363:/opt/XMClib/XMC_Peripheral_Library_v2.1.16/XMCLib/src/xmc_usbd.c ****   {
 1310              		.loc 1 363 0
 1311 00f6 F5D1     		bne	.L113
 368:/opt/XMClib/XMC_Peripheral_Library_v2.1.16/XMCLib/src/xmc_usbd.c ****   {
 1312              		.loc 1 368 0
 1313 00f8 12EA090F 		tst	r2, r9
 1314 00fc 79D0     		beq	.L116
 1315 00fe 0023     		movs	r3, #0
 1316              	.LVL115:
 1317              	.L117:
 1318              	.LBE96:
 1319              	.LBE98:
1494:/opt/XMClib/XMC_Peripheral_Library_v2.1.16/XMCLib/src/xmc_usbd.c **** 		data.b.txfnum = ep->txFifoNum;
 1320              		.loc 1 1494 0
 1321 0100 3422     		movs	r2, #52
 1322 0102 02FB0545 		mla	r5, r2, r5, r4
 1323              	.LVL116:
1495:/opt/XMClib/XMC_Peripheral_Library_v2.1.16/XMCLib/src/xmc_usbd.c **** 		xmc_device.endpoint_in_register[ep->address_u.address_st.number]->diepctl = data.d32; /* configur
 1324              		.loc 1 1495 0
 1325 0106 63F3995C 		bfi	ip, r3, #22, #4
1494:/opt/XMClib/XMC_Peripheral_Library_v2.1.16/XMCLib/src/xmc_usbd.c **** 		data.b.txfnum = ep->txFifoNum;
 1326              		.loc 1 1494 0
 1327 010a AA88     		ldrh	r2, [r5, #4]
 1328 010c 63F38912 		bfi	r2, r3, #6, #4
 1329 0110 AA80     		strh	r2, [r5, #4]	@ movhi
1497:/opt/XMClib/XMC_Peripheral_Library_v2.1.16/XMCLib/src/xmc_usbd.c ****   }
 1330              		.loc 1 1497 0
 1331 0112 40EA0803 		orr	r3, r0, r8
 1332 0116 63F30F0A 		bfi	r10, r3, #0, #16
 1333              	.LVL117:
1496:/opt/XMClib/XMC_Peripheral_Library_v2.1.16/XMCLib/src/xmc_usbd.c **** 		daintmsk.ep.in |= (uint16_t)((uint16_t)1U << (uint8_t)ep->address_u.address_st.number); /* enable
 1334              		.loc 1 1496 0
 1335 011a 019B     		ldr	r3, [sp, #4]
 1336              	.LBE93:
1499:/opt/XMClib/XMC_Peripheral_Library_v2.1.16/XMCLib/src/xmc_usbd.c ****   {
 1337              		.loc 1 1499 0
 1338 011c BBF1000F 		cmp	fp, #0
 1339              	.LBB100:
1496:/opt/XMClib/XMC_Peripheral_Library_v2.1.16/XMCLib/src/xmc_usbd.c **** 		daintmsk.ep.in |= (uint16_t)((uint16_t)1U << (uint8_t)ep->address_u.address_st.number); /* enable
 1340              		.loc 1 1496 0
 1341 0120 C3F800C0 		str	ip, [r3]
 1342              	.LBE100:
1499:/opt/XMClib/XMC_Peripheral_Library_v2.1.16/XMCLib/src/xmc_usbd.c ****   {
 1343              		.loc 1 1499 0
 1344 0124 6ADA     		bge	.L118
1499:/opt/XMClib/XMC_Peripheral_Library_v2.1.16/XMCLib/src/xmc_usbd.c ****   {
 1345              		.loc 1 1499 0 is_stmt 0 discriminator 1
 1346 0126 002F     		cmp	r7, #0
 1347 0128 43D1     		bne	.L120
 1348              	.LBB101:
1503:/opt/XMClib/XMC_Peripheral_Library_v2.1.16/XMCLib/src/xmc_usbd.c **** 		/*enable endpoint */
 1349              		.loc 1 1503 0 is_stmt 1
 1350 012a 04EB8101 		add	r1, r4, r1, lsl #2
 1351 012e D1F8C421 		ldr	r2, [r1, #452]
 1352 0132 1368     		ldr	r3, [r2]
 1353              	.LVL118:
1505:/opt/XMClib/XMC_Peripheral_Library_v2.1.16/XMCLib/src/xmc_usbd.c **** 		/* set ep type */
 1354              		.loc 1 1505 0
 1355 0134 43F40043 		orr	r3, r3, #32768
 1356              	.LVL119:
1507:/opt/XMClib/XMC_Peripheral_Library_v2.1.16/XMCLib/src/xmc_usbd.c ****     /* set mps */
 1357              		.loc 1 1507 0
 1358 0138 67F39343 		bfi	r3, r7, #18, #2
 1359              	.LVL120:
 1360 013c 69E0     		b	.L129
 1361              	.LVL121:
 1362              	.L101:
 1363              	.LBE101:
1447:/opt/XMClib/XMC_Peripheral_Library_v2.1.16/XMCLib/src/xmc_usbd.c ****   }
 1364              		.loc 1 1447 0
 1365 013e DCF80810 		ldr	r1, [ip, #8]
1453:/opt/XMClib/XMC_Peripheral_Library_v2.1.16/XMCLib/src/xmc_usbd.c ****   ep->outBufferSize = XMC_USBD_EP_OUT_BUFFERSIZE[ep->address_u.address_st.number];
 1366              		.loc 1 1453 0
 1367 0142 DFF824E1 		ldr	lr, .L138+8
1447:/opt/XMClib/XMC_Peripheral_Library_v2.1.16/XMCLib/src/xmc_usbd.c ****   }
 1368              		.loc 1 1447 0
 1369 0146 4020     		movs	r0, #64
 1370 0148 60F31201 		bfi	r1, r0, #0, #19
 1371 014c CCF80810 		str	r1, [ip, #8]
1450:/opt/XMClib/XMC_Peripheral_Library_v2.1.16/XMCLib/src/xmc_usbd.c ****   ep->outBuffer = XMC_USBD_EP_OUT_BUFFER[ep->address_u.address_st.number];
 1372              		.loc 1 1450 0
 1373 0150 A15C     		ldrb	r1, [r4, r2]	@ zero_extendqisi2
 1374 0152 444A     		ldr	r2, .L138+4
 1375 0154 01F00F01 		and	r1, r1, #15
1454:/opt/XMClib/XMC_Peripheral_Library_v2.1.16/XMCLib/src/xmc_usbd.c ****   /* is in */
 1376              		.loc 1 1454 0
 1377 0158 0EEB8103 		add	r3, lr, r1, lsl #2
 1378 015c 0802     		lsls	r0, r1, #8
 1379 015e DB69     		ldr	r3, [r3, #28]
 1380 0160 0193     		str	r3, [sp, #4]
1453:/opt/XMClib/XMC_Peripheral_Library_v2.1.16/XMCLib/src/xmc_usbd.c ****   ep->outBufferSize = XMC_USBD_EP_OUT_BUFFERSIZE[ep->address_u.address_st.number];
 1381              		.loc 1 1453 0
 1382 0162 5EF82130 		ldr	r3, [lr, r1, lsl #2]
 1383 0166 CCF82030 		str	r3, [ip, #32]
1451:/opt/XMClib/XMC_Peripheral_Library_v2.1.16/XMCLib/src/xmc_usbd.c ****   /* buffer size*/
 1384              		.loc 1 1451 0
 1385 016a 02F5E06E 		add	lr, r2, #1792
1454:/opt/XMClib/XMC_Peripheral_Library_v2.1.16/XMCLib/src/xmc_usbd.c ****   /* is in */
 1386              		.loc 1 1454 0
 1387 016e 019B     		ldr	r3, [sp, #4]
 1388 0170 CCF81430 		str	r3, [ip, #20]
1450:/opt/XMClib/XMC_Peripheral_Library_v2.1.16/XMCLib/src/xmc_usbd.c ****   ep->outBuffer = XMC_USBD_EP_OUT_BUFFER[ep->address_u.address_st.number];
 1389              		.loc 1 1450 0
 1390 0174 1318     		adds	r3, r2, r0
1451:/opt/XMClib/XMC_Peripheral_Library_v2.1.16/XMCLib/src/xmc_usbd.c ****   /* buffer size*/
 1391              		.loc 1 1451 0
 1392 0176 0EEB0002 		add	r2, lr, r0
 1393 017a 0120     		movs	r0, #1
 1394 017c 8840     		lsls	r0, r0, r1
1450:/opt/XMClib/XMC_Peripheral_Library_v2.1.16/XMCLib/src/xmc_usbd.c ****   ep->outBuffer = XMC_USBD_EP_OUT_BUFFER[ep->address_u.address_st.number];
 1395              		.loc 1 1450 0
 1396 017e CCF81C30 		str	r3, [ip, #28]
1451:/opt/XMClib/XMC_Peripheral_Library_v2.1.16/XMCLib/src/xmc_usbd.c ****   /* buffer size*/
 1397              		.loc 1 1451 0
 1398 0182 CCF80C20 		str	r2, [ip, #12]
 1399 0186 80B2     		uxth	r0, r0
 1400              	.L103:
1456:/opt/XMClib/XMC_Peripheral_Library_v2.1.16/XMCLib/src/xmc_usbd.c ****   {
 1401              		.loc 1 1456 0 discriminator 1
 1402 0188 DFB1     		cbz	r7, .L104
 1403              	.LBB102:
1503:/opt/XMClib/XMC_Peripheral_Library_v2.1.16/XMCLib/src/xmc_usbd.c **** 		/*enable endpoint */
 1404              		.loc 1 1503 0
 1405 018a 04EB8101 		add	r1, r4, r1, lsl #2
 1406 018e D1F8C421 		ldr	r2, [r1, #452]
 1407 0192 1368     		ldr	r3, [r2]
 1408              	.LVL122:
1505:/opt/XMClib/XMC_Peripheral_Library_v2.1.16/XMCLib/src/xmc_usbd.c **** 		/* set ep type */
 1409              		.loc 1 1505 0
 1410 0194 43F40043 		orr	r3, r3, #32768
 1411              	.LVL123:
1507:/opt/XMClib/XMC_Peripheral_Library_v2.1.16/XMCLib/src/xmc_usbd.c ****     /* set mps */
 1412              		.loc 1 1507 0
 1413 0198 67F39343 		bfi	r3, r7, #18, #2
 1414              	.LVL124:
 1415              	.L121:
1531:/opt/XMClib/XMC_Peripheral_Library_v2.1.16/XMCLib/src/xmc_usbd.c **** 		}
 1416              		.loc 1 1531 0
 1417 019c 66F30A03 		bfi	r3, r6, #0, #11
 1418              	.L122:
1534:/opt/XMClib/XMC_Peripheral_Library_v2.1.16/XMCLib/src/xmc_usbd.c **** 		/* clear stall */
 1419              		.loc 1 1534 0
 1420 01a0 43F08053 		orr	r3, r3, #268435456
 1421              	.LVL125:
1536:/opt/XMClib/XMC_Peripheral_Library_v2.1.16/XMCLib/src/xmc_usbd.c **** 		xmc_device.endpoint_out_register[ep->address_u.address_st.number]->doepctl = data.d32; /* configu
 1422              		.loc 1 1536 0
 1423 01a4 6FF35553 		bfc	r3, #21, #1
 1424              	.LVL126:
1538:/opt/XMClib/XMC_Peripheral_Library_v2.1.16/XMCLib/src/xmc_usbd.c ****   }
 1425              		.loc 1 1538 0
 1426 01a8 40EA1840 		orr	r0, r0, r8, lsr #16
1537:/opt/XMClib/XMC_Peripheral_Library_v2.1.16/XMCLib/src/xmc_usbd.c **** 		daintmsk.ep.out |=(uint16_t) ((uint16_t)1U << (uint8_t)ep->address_u.address_st.number); /* enabl
 1427              		.loc 1 1537 0
 1428 01ac 1360     		str	r3, [r2]
1538:/opt/XMClib/XMC_Peripheral_Library_v2.1.16/XMCLib/src/xmc_usbd.c ****   }
 1429              		.loc 1 1538 0
 1430 01ae 60F31F4A 		bfi	r10, r0, #16, #16
 1431              	.L120:
 1432              	.LBE102:
1540:/opt/XMClib/XMC_Peripheral_Library_v2.1.16/XMCLib/src/xmc_usbd.c ****   return XMC_USBD_STATUS_OK;
 1433              		.loc 1 1540 0
 1434 01b2 D4F8A431 		ldr	r3, [r4, #420]
 1435              	.LVL127:
1542:/opt/XMClib/XMC_Peripheral_Library_v2.1.16/XMCLib/src/xmc_usbd.c **** 
 1436              		.loc 1 1542 0
 1437 01b6 0020     		movs	r0, #0
1540:/opt/XMClib/XMC_Peripheral_Library_v2.1.16/XMCLib/src/xmc_usbd.c ****   return XMC_USBD_STATUS_OK;
 1438              		.loc 1 1540 0
 1439 01b8 C3F81CA0 		str	r10, [r3, #28]
1542:/opt/XMClib/XMC_Peripheral_Library_v2.1.16/XMCLib/src/xmc_usbd.c **** 
 1440              		.loc 1 1542 0
 1441 01bc 03B0     		add	sp, sp, #12
 1442              	.LCFI16:
 1443              		.cfi_remember_state
 1444              		.cfi_def_cfa_offset 36
 1445              		@ sp needed
 1446 01be BDE8F08F 		pop	{r4, r5, r6, r7, r8, r9, r10, fp, pc}
 1447              	.LVL128:
 1448              	.L104:
 1449              	.LCFI17:
 1450              		.cfi_restore_state
 1451              	.LBB103:
1459:/opt/XMClib/XMC_Peripheral_Library_v2.1.16/XMCLib/src/xmc_usbd.c **** 		/*enable endpoint */
 1452              		.loc 1 1459 0
 1453 01c2 01F16A03 		add	r3, r1, #106
 1454 01c6 54F82330 		ldr	r3, [r4, r3, lsl #2]
 1455 01ca 0193     		str	r3, [sp, #4]
 1456 01cc D3F800C0 		ldr	ip, [r3]
 1457              	.LVL129:
1461:/opt/XMClib/XMC_Peripheral_Library_v2.1.16/XMCLib/src/xmc_usbd.c **** 		/* set ep type */
 1458              		.loc 1 1461 0
 1459 01d0 4CF4004C 		orr	ip, ip, #32768
 1460              	.LVL130:
1463:/opt/XMClib/XMC_Peripheral_Library_v2.1.16/XMCLib/src/xmc_usbd.c **** 		/* set mps */
 1461              		.loc 1 1463 0
 1462 01d4 67F3934C 		bfi	ip, r7, #18, #2
 1463              	.LVL131:
 1464              	.L128:
1467:/opt/XMClib/XMC_Peripheral_Library_v2.1.16/XMCLib/src/xmc_usbd.c **** 			{
 1465              		.loc 1 1467 0
 1466 01d8 102E     		cmp	r6, #16
 1467 01da 39D0     		beq	.L108
 1468 01dc 23D9     		bls	.L136
 1469 01de 202E     		cmp	r6, #32
 1470 01e0 3AD0     		beq	.L111
 1471 01e2 402E     		cmp	r6, #64
 1472 01e4 7FF476AF 		bne	.L107
1470:/opt/XMClib/XMC_Peripheral_Library_v2.1.16/XMCLib/src/xmc_usbd.c **** 				break;
 1473              		.loc 1 1470 0
 1474 01e8 6FF30A0C 		bfc	ip, #0, #11
1471:/opt/XMClib/XMC_Peripheral_Library_v2.1.16/XMCLib/src/xmc_usbd.c **** 				case (32U):
 1475              		.loc 1 1471 0
 1476 01ec 72E7     		b	.L107
 1477              	.LVL132:
 1478              	.L135:
 1479 01ee 03F00F03 		and	r3, r3, #15
 1480              	.LVL133:
 1481              	.L116:
 1482              	.LBB99:
 1483              	.LBB97:
 370:/opt/XMClib/XMC_Peripheral_Library_v2.1.16/XMCLib/src/xmc_usbd.c ****     result=i;
 1484              		.loc 1 370 0
 1485 01f2 49EA0202 		orr	r2, r9, r2
 1486              	.LVL134:
 1487 01f6 A4F8FC21 		strh	r2, [r4, #508]	@ movhi
 1488              	.LVL135:
 1489 01fa 81E7     		b	.L117
 1490              	.LVL136:
 1491              	.L118:
 1492              	.LBE97:
 1493              	.LBE99:
 1494              	.LBE103:
 1495              	.LBB104:
1503:/opt/XMClib/XMC_Peripheral_Library_v2.1.16/XMCLib/src/xmc_usbd.c **** 		/*enable endpoint */
 1496              		.loc 1 1503 0
 1497 01fc 04EB8101 		add	r1, r4, r1, lsl #2
 1498 0200 D1F8C421 		ldr	r2, [r1, #452]
 1499 0204 1368     		ldr	r3, [r2]
 1500              	.LVL137:
1505:/opt/XMClib/XMC_Peripheral_Library_v2.1.16/XMCLib/src/xmc_usbd.c **** 		/* set ep type */
 1501              		.loc 1 1505 0
 1502 0206 43F40043 		orr	r3, r3, #32768
 1503              	.LVL138:
1507:/opt/XMClib/XMC_Peripheral_Library_v2.1.16/XMCLib/src/xmc_usbd.c ****     /* set mps */
 1504              		.loc 1 1507 0
 1505 020a 67F39343 		bfi	r3, r7, #18, #2
 1506              	.LVL139:
1509:/opt/XMClib/XMC_Peripheral_Library_v2.1.16/XMCLib/src/xmc_usbd.c **** 		{
 1507              		.loc 1 1509 0
 1508 020e 002F     		cmp	r7, #0
 1509 0210 C4D1     		bne	.L121
 1510              	.L129:
1511:/opt/XMClib/XMC_Peripheral_Library_v2.1.16/XMCLib/src/xmc_usbd.c **** 			{
 1511              		.loc 1 1511 0
 1512 0212 102E     		cmp	r6, #16
 1513 0214 18D0     		beq	.L123
 1514 0216 11D9     		bls	.L137
 1515 0218 202E     		cmp	r6, #32
 1516 021a 0BD0     		beq	.L126
 1517 021c 402E     		cmp	r6, #64
 1518 021e BFD1     		bne	.L122
1514:/opt/XMClib/XMC_Peripheral_Library_v2.1.16/XMCLib/src/xmc_usbd.c **** 					break;
 1519              		.loc 1 1514 0
 1520 0220 6FF30A03 		bfc	r3, #0, #11
1515:/opt/XMClib/XMC_Peripheral_Library_v2.1.16/XMCLib/src/xmc_usbd.c **** 				case (32U):
 1521              		.loc 1 1515 0
 1522 0224 BCE7     		b	.L122
 1523              	.LVL140:
 1524              	.L136:
 1525              	.LBE104:
 1526              	.LBB105:
1467:/opt/XMClib/XMC_Peripheral_Library_v2.1.16/XMCLib/src/xmc_usbd.c **** 			{
 1527              		.loc 1 1467 0
 1528 0226 082E     		cmp	r6, #8
 1529 0228 7FF454AF 		bne	.L107
1479:/opt/XMClib/XMC_Peripheral_Library_v2.1.16/XMCLib/src/xmc_usbd.c **** 				break;
 1530              		.loc 1 1479 0
 1531 022c 0323     		movs	r3, #3
 1532 022e 63F30A0C 		bfi	ip, r3, #0, #11
1480:/opt/XMClib/XMC_Peripheral_Library_v2.1.16/XMCLib/src/xmc_usbd.c **** 				default:
 1533              		.loc 1 1480 0
 1534 0232 4FE7     		b	.L107
 1535              	.LVL141:
 1536              	.L126:
 1537              	.LBE105:
 1538              	.LBB106:
1517:/opt/XMClib/XMC_Peripheral_Library_v2.1.16/XMCLib/src/xmc_usbd.c **** 					break;
 1539              		.loc 1 1517 0
 1540 0234 0121     		movs	r1, #1
 1541 0236 61F30A03 		bfi	r3, r1, #0, #11
1518:/opt/XMClib/XMC_Peripheral_Library_v2.1.16/XMCLib/src/xmc_usbd.c **** 				case (16U):
 1542              		.loc 1 1518 0
 1543 023a B1E7     		b	.L122
 1544              	.L137:
1511:/opt/XMClib/XMC_Peripheral_Library_v2.1.16/XMCLib/src/xmc_usbd.c **** 			{
 1545              		.loc 1 1511 0
 1546 023c 082E     		cmp	r6, #8
 1547 023e AFD1     		bne	.L122
1523:/opt/XMClib/XMC_Peripheral_Library_v2.1.16/XMCLib/src/xmc_usbd.c **** 					break;
 1548              		.loc 1 1523 0
 1549 0240 0321     		movs	r1, #3
 1550 0242 61F30A03 		bfi	r3, r1, #0, #11
1524:/opt/XMClib/XMC_Peripheral_Library_v2.1.16/XMCLib/src/xmc_usbd.c **** 				default:
 1551              		.loc 1 1524 0
 1552 0246 ABE7     		b	.L122
 1553              	.L123:
1520:/opt/XMClib/XMC_Peripheral_Library_v2.1.16/XMCLib/src/xmc_usbd.c **** 					break;
 1554              		.loc 1 1520 0
 1555 0248 0221     		movs	r1, #2
 1556 024a 61F30A03 		bfi	r3, r1, #0, #11
1521:/opt/XMClib/XMC_Peripheral_Library_v2.1.16/XMCLib/src/xmc_usbd.c **** 				case (8U):
 1557              		.loc 1 1521 0
 1558 024e A7E7     		b	.L122
 1559              	.LVL142:
 1560              	.L108:
 1561              	.LBE106:
 1562              	.LBB107:
1476:/opt/XMClib/XMC_Peripheral_Library_v2.1.16/XMCLib/src/xmc_usbd.c **** 				break;
 1563              		.loc 1 1476 0
 1564 0250 0223     		movs	r3, #2
 1565 0252 63F30A0C 		bfi	ip, r3, #0, #11
1477:/opt/XMClib/XMC_Peripheral_Library_v2.1.16/XMCLib/src/xmc_usbd.c **** 				case (8U):
 1566              		.loc 1 1477 0
 1567 0256 3DE7     		b	.L107
 1568              	.L111:
1473:/opt/XMClib/XMC_Peripheral_Library_v2.1.16/XMCLib/src/xmc_usbd.c **** 				break;
 1569              		.loc 1 1473 0
 1570 0258 0123     		movs	r3, #1
 1571 025a 63F30A0C 		bfi	ip, r3, #0, #11
1474:/opt/XMClib/XMC_Peripheral_Library_v2.1.16/XMCLib/src/xmc_usbd.c **** 				case (16U):
 1572              		.loc 1 1474 0
 1573 025e 39E7     		b	.L107
 1574              	.L139:
 1575              		.align	2
 1576              	.L138:
 1577 0260 00000000 		.word	xmc_device
 1578 0264 00000000 		.word	.LANCHOR0
 1579 0268 00000000 		.word	.LANCHOR1
 1580              	.LBE107:
 1581              		.cfi_endproc
 1582              	.LFE198:
 1584              		.section	.text.XMC_USBD_Init,"ax",%progbits
 1585              		.align	1
 1586              		.p2align 2,,3
 1587              		.global	XMC_USBD_Init
 1588              		.syntax unified
 1589              		.thumb
 1590              		.thumb_func
 1591              		.fpu fpv4-sp-d16
 1593              	XMC_USBD_Init:
 1594              	.LFB187:
1084:/opt/XMClib/XMC_Peripheral_Library_v2.1.16/XMCLib/src/xmc_usbd.c ****   uint8_t *XMC_USBD_BASE_ADDRESS;
 1595              		.loc 1 1084 0
 1596              		.cfi_startproc
 1597              		@ args = 0, pretend = 0, frame = 8
 1598              		@ frame_needed = 0, uses_anonymous_args = 0
 1599              	.LVL143:
 1600 0000 30B5     		push	{r4, r5, lr}
 1601              	.LCFI18:
 1602              		.cfi_def_cfa_offset 12
 1603              		.cfi_offset 4, -12
 1604              		.cfi_offset 5, -8
 1605              		.cfi_offset 14, -4
 1606 0002 0446     		mov	r4, r0
 1607 0004 83B0     		sub	sp, sp, #12
 1608              	.LCFI19:
 1609              		.cfi_def_cfa_offset 24
 1610              	.LBB108:
 1611              	.LBB109:
 947:/opt/XMClib/XMC_Peripheral_Library_v2.1.16/XMCLib/src/xmc_usbd.c ****   XMC_SCU_POWER_EnableUsb();
 1612              		.loc 1 947 0
 1613 0006 4C48     		ldr	r0, .L157
 1614              	.LVL144:
 1615 0008 FFF7FEFF 		bl	XMC_SCU_RESET_DeassertPeripheralReset
 1616              	.LVL145:
 948:/opt/XMClib/XMC_Peripheral_Library_v2.1.16/XMCLib/src/xmc_usbd.c **** }
 1617              		.loc 1 948 0
 1618 000c FFF7FEFF 		bl	XMC_SCU_POWER_EnableUsb
 1619              	.LVL146:
 1620              	.LBE109:
 1621              	.LBE108:
1098:/opt/XMClib/XMC_Peripheral_Library_v2.1.16/XMCLib/src/xmc_usbd.c **** 
 1622              		.loc 1 1098 0
 1623 0010 4A4A     		ldr	r2, .L157+4
 1624 0012 4B4B     		ldr	r3, .L157+8
 1625 0014 1460     		str	r4, [r2]
 1626              	.LVL147:
 1627 0016 A3F11C01 		sub	r1, r3, #28
 1628 001a 03F11C00 		add	r0, r3, #28
1103:/opt/XMClib/XMC_Peripheral_Library_v2.1.16/XMCLib/src/xmc_usbd.c **** 	  XMC_USBD_EP_IN_BUFFERSIZE[i] 	= XMC_USBD_EP0_BUFFER_SIZE;
 1629              		.loc 1 1103 0
 1630 001e 4022     		movs	r2, #64
 1631              	.LVL148:
 1632              	.L141:
1103:/opt/XMClib/XMC_Peripheral_Library_v2.1.16/XMCLib/src/xmc_usbd.c **** 	  XMC_USBD_EP_IN_BUFFERSIZE[i] 	= XMC_USBD_EP0_BUFFER_SIZE;
 1633              		.loc 1 1103 0 is_stmt 0 discriminator 3
 1634 0020 43F8042F 		str	r2, [r3, #4]!
1101:/opt/XMClib/XMC_Peripheral_Library_v2.1.16/XMCLib/src/xmc_usbd.c ****   {
 1635              		.loc 1 1101 0 is_stmt 1 discriminator 3
 1636 0024 8342     		cmp	r3, r0
1104:/opt/XMClib/XMC_Peripheral_Library_v2.1.16/XMCLib/src/xmc_usbd.c ****   }
 1637              		.loc 1 1104 0 discriminator 3
 1638 0026 41F8042F 		str	r2, [r1, #4]!
1101:/opt/XMClib/XMC_Peripheral_Library_v2.1.16/XMCLib/src/xmc_usbd.c ****   {
 1639              		.loc 1 1101 0 discriminator 3
 1640 002a F9D1     		bne	.L141
1108:/opt/XMClib/XMC_Peripheral_Library_v2.1.16/XMCLib/src/xmc_usbd.c **** 
 1641              		.loc 1 1108 0
 1642 002c 454D     		ldr	r5, .L157+12
 1643 002e 4FF40272 		mov	r2, #520
 1644 0032 2846     		mov	r0, r5
 1645 0034 0021     		movs	r1, #0
 1646 0036 FFF7FEFF 		bl	memset
 1647              	.LVL149:
1111:/opt/XMClib/XMC_Peripheral_Library_v2.1.16/XMCLib/src/xmc_usbd.c ****   xmc_device.EndpointEvent_cb = obj->cb_endpoint_event;
 1648              		.loc 1 1111 0
 1649 003a D4E90032 		ldrd	r3, r2, [r4]
