   1              		.cpu cortex-m4
   2              		.eabi_attribute 27, 1
   3              		.eabi_attribute 20, 1
   4              		.eabi_attribute 21, 1
   5              		.eabi_attribute 23, 3
   6              		.eabi_attribute 24, 1
   7              		.eabi_attribute 25, 1
   8              		.eabi_attribute 26, 1
   9              		.eabi_attribute 30, 2
  10              		.eabi_attribute 34, 1
  11              		.eabi_attribute 18, 4
  12              		.file	"xmc_usbd.c"
  13              		.text
  14              	.Ltext0:
  15              		.cfi_sections	.debug_frame
  16              		.section	.text.XMC_USBD_lStartReadXfer,"ax",%progbits
  17              		.align	1
  18              		.p2align 2,,3
  19              		.syntax unified
  20              		.thumb
  21              		.thumb_func
  22              		.fpu fpv4-sp-d16
  24              	XMC_USBD_lStartReadXfer:
  25              	.LFB169:
  26              		.file 1 "/opt/XMClib/XMC_Peripheral_Library_v2.1.16/XMCLib/src/xmc_usbd.c"
   1:/opt/XMClib/XMC_Peripheral_Library_v2.1.16/XMCLib/src/xmc_usbd.c **** /**
   2:/opt/XMClib/XMC_Peripheral_Library_v2.1.16/XMCLib/src/xmc_usbd.c ****  * @file xmc_usbd.c
   3:/opt/XMClib/XMC_Peripheral_Library_v2.1.16/XMCLib/src/xmc_usbd.c ****  * @date 2015-06-20
   4:/opt/XMClib/XMC_Peripheral_Library_v2.1.16/XMCLib/src/xmc_usbd.c ****  *
   5:/opt/XMClib/XMC_Peripheral_Library_v2.1.16/XMCLib/src/xmc_usbd.c ****  * @cond
   6:/opt/XMClib/XMC_Peripheral_Library_v2.1.16/XMCLib/src/xmc_usbd.c ****  **********************************************************************************
   7:/opt/XMClib/XMC_Peripheral_Library_v2.1.16/XMCLib/src/xmc_usbd.c ****  * XMClib v2.1.16 - XMC Peripheral Driver Library 
   8:/opt/XMClib/XMC_Peripheral_Library_v2.1.16/XMCLib/src/xmc_usbd.c ****  *
   9:/opt/XMClib/XMC_Peripheral_Library_v2.1.16/XMCLib/src/xmc_usbd.c ****  * Copyright (c) 2015-2017, Infineon Technologies AG
  10:/opt/XMClib/XMC_Peripheral_Library_v2.1.16/XMCLib/src/xmc_usbd.c ****  * All rights reserved.                        
  11:/opt/XMClib/XMC_Peripheral_Library_v2.1.16/XMCLib/src/xmc_usbd.c ****  *                                             
  12:/opt/XMClib/XMC_Peripheral_Library_v2.1.16/XMCLib/src/xmc_usbd.c ****  * Redistribution and use in source and binary forms, with or without           
  13:/opt/XMClib/XMC_Peripheral_Library_v2.1.16/XMCLib/src/xmc_usbd.c ****  * modification,are permitted provided that the following conditions are met:   
  14:/opt/XMClib/XMC_Peripheral_Library_v2.1.16/XMCLib/src/xmc_usbd.c ****  *                                                                              
  15:/opt/XMClib/XMC_Peripheral_Library_v2.1.16/XMCLib/src/xmc_usbd.c ****  *   Redistributions of source code must retain the above copyright notice,      
  16:/opt/XMClib/XMC_Peripheral_Library_v2.1.16/XMCLib/src/xmc_usbd.c ****  *   this list of conditions and the following disclaimer.                        
  17:/opt/XMClib/XMC_Peripheral_Library_v2.1.16/XMCLib/src/xmc_usbd.c ****  * 
  18:/opt/XMClib/XMC_Peripheral_Library_v2.1.16/XMCLib/src/xmc_usbd.c ****  *   Redistributions in binary form must reproduce the above copyright notice,   
  19:/opt/XMClib/XMC_Peripheral_Library_v2.1.16/XMCLib/src/xmc_usbd.c ****  *   this list of conditions and the following disclaimer in the documentation    
  20:/opt/XMClib/XMC_Peripheral_Library_v2.1.16/XMCLib/src/xmc_usbd.c ****  *   and/or other materials provided with the distribution.                       
  21:/opt/XMClib/XMC_Peripheral_Library_v2.1.16/XMCLib/src/xmc_usbd.c ****  * 
  22:/opt/XMClib/XMC_Peripheral_Library_v2.1.16/XMCLib/src/xmc_usbd.c ****  *   Neither the name of the copyright holders nor the names of its contributors 
  23:/opt/XMClib/XMC_Peripheral_Library_v2.1.16/XMCLib/src/xmc_usbd.c ****  *   may be used to endorse or promote products derived from this software without
  24:/opt/XMClib/XMC_Peripheral_Library_v2.1.16/XMCLib/src/xmc_usbd.c ****  *   specific prior written permission.                                           
  25:/opt/XMClib/XMC_Peripheral_Library_v2.1.16/XMCLib/src/xmc_usbd.c ****  *                                                                              
  26:/opt/XMClib/XMC_Peripheral_Library_v2.1.16/XMCLib/src/xmc_usbd.c ****  * THIS SOFTWARE IS PROVIDED BY THE COPYRIGHT HOLDERS AND CONTRIBUTORS "AS IS"  
  27:/opt/XMClib/XMC_Peripheral_Library_v2.1.16/XMCLib/src/xmc_usbd.c ****  * AND ANY EXPRESS OR IMPLIED WARRANTIES, INCLUDING, BUT NOT LIMITED TO, THE    
  28:/opt/XMClib/XMC_Peripheral_Library_v2.1.16/XMCLib/src/xmc_usbd.c ****  * IMPLIED WARRANTIES OF MERCHANTABILITY AND FITNESS FOR A PARTICULAR PURPOSE   
  29:/opt/XMClib/XMC_Peripheral_Library_v2.1.16/XMCLib/src/xmc_usbd.c ****  * ARE  DISCLAIMED. IN NO EVENT SHALL THE COPYRIGHT HOLDER OR CONTRIBUTORS BE   
  30:/opt/XMClib/XMC_Peripheral_Library_v2.1.16/XMCLib/src/xmc_usbd.c ****  * LIABLE  FOR ANY DIRECT, INDIRECT, INCIDENTAL, SPECIAL, EXEMPLARY, OR         
  31:/opt/XMClib/XMC_Peripheral_Library_v2.1.16/XMCLib/src/xmc_usbd.c ****  * CONSEQUENTIAL DAMAGES (INCLUDING, BUT NOT LIMITED TO, PROCUREMENT OF         
  32:/opt/XMClib/XMC_Peripheral_Library_v2.1.16/XMCLib/src/xmc_usbd.c ****  * SUBSTITUTE GOODS OR  SERVICES; LOSS OF USE, DATA, OR PROFITS; OR BUSINESS    
  33:/opt/XMClib/XMC_Peripheral_Library_v2.1.16/XMCLib/src/xmc_usbd.c ****  * INTERRUPTION) HOWEVER CAUSED AND ON ANY THEORY OF LIABILITY, WHETHER IN      
  34:/opt/XMClib/XMC_Peripheral_Library_v2.1.16/XMCLib/src/xmc_usbd.c ****  * CONTRACT, STRICT LIABILITY,OR TORT (INCLUDING NEGLIGENCE OR OTHERWISE)       
  35:/opt/XMClib/XMC_Peripheral_Library_v2.1.16/XMCLib/src/xmc_usbd.c ****  * ARISING IN ANY WAY OUT OF THE USE OF THIS SOFTWARE, EVEN IF ADVISED OF THE   
  36:/opt/XMClib/XMC_Peripheral_Library_v2.1.16/XMCLib/src/xmc_usbd.c ****  * POSSIBILITY OF SUCH DAMAGE.                                                  
  37:/opt/XMClib/XMC_Peripheral_Library_v2.1.16/XMCLib/src/xmc_usbd.c ****  *                                                                              
  38:/opt/XMClib/XMC_Peripheral_Library_v2.1.16/XMCLib/src/xmc_usbd.c ****  * To improve the quality of the software, users are encouraged to share        
  39:/opt/XMClib/XMC_Peripheral_Library_v2.1.16/XMCLib/src/xmc_usbd.c ****  * modifications, enhancements or bug fixes with Infineon Technologies AG       
  40:/opt/XMClib/XMC_Peripheral_Library_v2.1.16/XMCLib/src/xmc_usbd.c ****  * dave@infineon.com).                                                          
  41:/opt/XMClib/XMC_Peripheral_Library_v2.1.16/XMCLib/src/xmc_usbd.c ****  **********************************************************************************
  42:/opt/XMClib/XMC_Peripheral_Library_v2.1.16/XMCLib/src/xmc_usbd.c ****  *
  43:/opt/XMClib/XMC_Peripheral_Library_v2.1.16/XMCLib/src/xmc_usbd.c ****  * Change History
  44:/opt/XMClib/XMC_Peripheral_Library_v2.1.16/XMCLib/src/xmc_usbd.c ****  * --------------
  45:/opt/XMClib/XMC_Peripheral_Library_v2.1.16/XMCLib/src/xmc_usbd.c ****  *
  46:/opt/XMClib/XMC_Peripheral_Library_v2.1.16/XMCLib/src/xmc_usbd.c ****  * 2015-02-16:
  47:/opt/XMClib/XMC_Peripheral_Library_v2.1.16/XMCLib/src/xmc_usbd.c ****  *     - Initial Version.<br>           
  48:/opt/XMClib/XMC_Peripheral_Library_v2.1.16/XMCLib/src/xmc_usbd.c ****  * 2015-03-18:
  49:/opt/XMClib/XMC_Peripheral_Library_v2.1.16/XMCLib/src/xmc_usbd.c ****  *     - Updated the XMC_USBD_EndpointStall() to fix issue on USB clear stall. <br>
  50:/opt/XMClib/XMC_Peripheral_Library_v2.1.16/XMCLib/src/xmc_usbd.c ****  *     - Updated the XMC_USBD_EndpointConfigure() to fix issue in EP0 configuration.<br>
  51:/opt/XMClib/XMC_Peripheral_Library_v2.1.16/XMCLib/src/xmc_usbd.c ****  *     - Updated the XMC_USBD_IRQHandler()(Removed the DAVE_CE check on SOF event).<br>
  52:/opt/XMClib/XMC_Peripheral_Library_v2.1.16/XMCLib/src/xmc_usbd.c ****  * 2015-06-20:
  53:/opt/XMClib/XMC_Peripheral_Library_v2.1.16/XMCLib/src/xmc_usbd.c ****  *     - Removed GetDriverVersion API.<br>
  54:/opt/XMClib/XMC_Peripheral_Library_v2.1.16/XMCLib/src/xmc_usbd.c ****  *     - Updated the XMC_USBD_IsEnumDone() API.<br>
  55:/opt/XMClib/XMC_Peripheral_Library_v2.1.16/XMCLib/src/xmc_usbd.c ****  *     - Updated the copy right in the file header.<br>
  56:/opt/XMClib/XMC_Peripheral_Library_v2.1.16/XMCLib/src/xmc_usbd.c ****  *     - Updated the XMC_USBD_Disable() API to gate the clock after programming the SCU registers.<
  57:/opt/XMClib/XMC_Peripheral_Library_v2.1.16/XMCLib/src/xmc_usbd.c ****  *
  58:/opt/XMClib/XMC_Peripheral_Library_v2.1.16/XMCLib/src/xmc_usbd.c ****  * @endcond 
  59:/opt/XMClib/XMC_Peripheral_Library_v2.1.16/XMCLib/src/xmc_usbd.c ****  *
  60:/opt/XMClib/XMC_Peripheral_Library_v2.1.16/XMCLib/src/xmc_usbd.c ****  */
  61:/opt/XMClib/XMC_Peripheral_Library_v2.1.16/XMCLib/src/xmc_usbd.c **** 
  62:/opt/XMClib/XMC_Peripheral_Library_v2.1.16/XMCLib/src/xmc_usbd.c **** 
  63:/opt/XMClib/XMC_Peripheral_Library_v2.1.16/XMCLib/src/xmc_usbd.c **** /*******************************************************************************
  64:/opt/XMClib/XMC_Peripheral_Library_v2.1.16/XMCLib/src/xmc_usbd.c ****  * HEADER FILES
  65:/opt/XMClib/XMC_Peripheral_Library_v2.1.16/XMCLib/src/xmc_usbd.c ****  *******************************************************************************/
  66:/opt/XMClib/XMC_Peripheral_Library_v2.1.16/XMCLib/src/xmc_usbd.c **** #include <xmc_usbd.h>
  67:/opt/XMClib/XMC_Peripheral_Library_v2.1.16/XMCLib/src/xmc_usbd.c **** 
  68:/opt/XMClib/XMC_Peripheral_Library_v2.1.16/XMCLib/src/xmc_usbd.c **** #if defined(USB0)
  69:/opt/XMClib/XMC_Peripheral_Library_v2.1.16/XMCLib/src/xmc_usbd.c **** 	
  70:/opt/XMClib/XMC_Peripheral_Library_v2.1.16/XMCLib/src/xmc_usbd.c **** /**< macro to check the maximum number of endpoints used*/
  71:/opt/XMClib/XMC_Peripheral_Library_v2.1.16/XMCLib/src/xmc_usbd.c **** #define XMC_USBD_CHECK_INPUT_MAX_NUM_EPS(usbd_max_num_eps) \
  72:/opt/XMClib/XMC_Peripheral_Library_v2.1.16/XMCLib/src/xmc_usbd.c ****   ((usbd_max_num_eps ==  XMC_USBD_MAX_NUM_EPS_1 ) || \
  73:/opt/XMClib/XMC_Peripheral_Library_v2.1.16/XMCLib/src/xmc_usbd.c ****    (usbd_max_num_eps ==  XMC_USBD_MAX_NUM_EPS_2 ) || \
  74:/opt/XMClib/XMC_Peripheral_Library_v2.1.16/XMCLib/src/xmc_usbd.c ****    (usbd_max_num_eps ==  XMC_USBD_MAX_NUM_EPS_3 ) || \
  75:/opt/XMClib/XMC_Peripheral_Library_v2.1.16/XMCLib/src/xmc_usbd.c ****    (usbd_max_num_eps ==  XMC_USBD_MAX_NUM_EPS_4 ) || \
  76:/opt/XMClib/XMC_Peripheral_Library_v2.1.16/XMCLib/src/xmc_usbd.c ****    (usbd_max_num_eps ==  XMC_USBD_MAX_NUM_EPS_5 ) || \
  77:/opt/XMClib/XMC_Peripheral_Library_v2.1.16/XMCLib/src/xmc_usbd.c ****    (usbd_max_num_eps ==  XMC_USBD_MAX_NUM_EPS_6 ) || \
  78:/opt/XMClib/XMC_Peripheral_Library_v2.1.16/XMCLib/src/xmc_usbd.c ****    (usbd_max_num_eps == XMC_USBD_MAX_NUM_EPS_7 ))
  79:/opt/XMClib/XMC_Peripheral_Library_v2.1.16/XMCLib/src/xmc_usbd.c **** 
  80:/opt/XMClib/XMC_Peripheral_Library_v2.1.16/XMCLib/src/xmc_usbd.c **** /*******************************************************************************
  81:/opt/XMClib/XMC_Peripheral_Library_v2.1.16/XMCLib/src/xmc_usbd.c ****  *GLOBAL DATA
  82:/opt/XMClib/XMC_Peripheral_Library_v2.1.16/XMCLib/src/xmc_usbd.c ****  *******************************************************************************/
  83:/opt/XMClib/XMC_Peripheral_Library_v2.1.16/XMCLib/src/xmc_usbd.c **** /*
  84:/opt/XMClib/XMC_Peripheral_Library_v2.1.16/XMCLib/src/xmc_usbd.c ****  * Endpoint Out Fifo Size
  85:/opt/XMClib/XMC_Peripheral_Library_v2.1.16/XMCLib/src/xmc_usbd.c ****  */
  86:/opt/XMClib/XMC_Peripheral_Library_v2.1.16/XMCLib/src/xmc_usbd.c **** uint32_t XMC_USBD_EP_OUT_BUFFERSIZE[7] = {0U,0U,0U,0U,0U,0U,0U};
  87:/opt/XMClib/XMC_Peripheral_Library_v2.1.16/XMCLib/src/xmc_usbd.c **** /*
  88:/opt/XMClib/XMC_Peripheral_Library_v2.1.16/XMCLib/src/xmc_usbd.c ****  * Endpoint In Fifo Size
  89:/opt/XMClib/XMC_Peripheral_Library_v2.1.16/XMCLib/src/xmc_usbd.c ****  */
  90:/opt/XMClib/XMC_Peripheral_Library_v2.1.16/XMCLib/src/xmc_usbd.c **** uint32_t XMC_USBD_EP_IN_BUFFERSIZE[7] = {0U,0U,0U,0U,0U,0U,0U};
  91:/opt/XMClib/XMC_Peripheral_Library_v2.1.16/XMCLib/src/xmc_usbd.c **** /*
  92:/opt/XMClib/XMC_Peripheral_Library_v2.1.16/XMCLib/src/xmc_usbd.c ****  * Device definition
  93:/opt/XMClib/XMC_Peripheral_Library_v2.1.16/XMCLib/src/xmc_usbd.c ****  */
  94:/opt/XMClib/XMC_Peripheral_Library_v2.1.16/XMCLib/src/xmc_usbd.c ****  XMC_USBD_DEVICE_t xmc_device;
  95:/opt/XMClib/XMC_Peripheral_Library_v2.1.16/XMCLib/src/xmc_usbd.c **** #ifdef __GNUC__															  /*GCC*/
  96:/opt/XMClib/XMC_Peripheral_Library_v2.1.16/XMCLib/src/xmc_usbd.c **** /*
  97:/opt/XMClib/XMC_Peripheral_Library_v2.1.16/XMCLib/src/xmc_usbd.c ****  * Endpoint Out Fifo
  98:/opt/XMClib/XMC_Peripheral_Library_v2.1.16/XMCLib/src/xmc_usbd.c ****  */
  99:/opt/XMClib/XMC_Peripheral_Library_v2.1.16/XMCLib/src/xmc_usbd.c **** static __attribute__((aligned(4))) uint8_t XMC_USBD_EP_OUT_BUFFER[7][256] __attribute__((section("U
 100:/opt/XMClib/XMC_Peripheral_Library_v2.1.16/XMCLib/src/xmc_usbd.c **** /*
 101:/opt/XMClib/XMC_Peripheral_Library_v2.1.16/XMCLib/src/xmc_usbd.c ****  * Endpoint In Fifo
 102:/opt/XMClib/XMC_Peripheral_Library_v2.1.16/XMCLib/src/xmc_usbd.c ****  */
 103:/opt/XMClib/XMC_Peripheral_Library_v2.1.16/XMCLib/src/xmc_usbd.c **** static __attribute__((aligned(4))) uint8_t XMC_USBD_EP_IN_BUFFER[7][256] __attribute__((section("US
 104:/opt/XMClib/XMC_Peripheral_Library_v2.1.16/XMCLib/src/xmc_usbd.c **** #endif
 105:/opt/XMClib/XMC_Peripheral_Library_v2.1.16/XMCLib/src/xmc_usbd.c **** #if defined(__ICCARM__)
 106:/opt/XMClib/XMC_Peripheral_Library_v2.1.16/XMCLib/src/xmc_usbd.c **** #pragma data_alignment=4
 107:/opt/XMClib/XMC_Peripheral_Library_v2.1.16/XMCLib/src/xmc_usbd.c **** /*
 108:/opt/XMClib/XMC_Peripheral_Library_v2.1.16/XMCLib/src/xmc_usbd.c ****  * Endpoint Out Fifo
 109:/opt/XMClib/XMC_Peripheral_Library_v2.1.16/XMCLib/src/xmc_usbd.c ****  */
 110:/opt/XMClib/XMC_Peripheral_Library_v2.1.16/XMCLib/src/xmc_usbd.c **** static uint8_t XMC_USBD_EP_OUT_BUFFER[7][256] @ ".dram";
 111:/opt/XMClib/XMC_Peripheral_Library_v2.1.16/XMCLib/src/xmc_usbd.c **** /*
 112:/opt/XMClib/XMC_Peripheral_Library_v2.1.16/XMCLib/src/xmc_usbd.c ****  * Endpoint In Fifo
 113:/opt/XMClib/XMC_Peripheral_Library_v2.1.16/XMCLib/src/xmc_usbd.c ****  */
 114:/opt/XMClib/XMC_Peripheral_Library_v2.1.16/XMCLib/src/xmc_usbd.c **** #pragma data_alignment=4
 115:/opt/XMClib/XMC_Peripheral_Library_v2.1.16/XMCLib/src/xmc_usbd.c **** static uint8_t XMC_USBD_EP_IN_BUFFER[7][256] @ ".dram";
 116:/opt/XMClib/XMC_Peripheral_Library_v2.1.16/XMCLib/src/xmc_usbd.c **** #endif
 117:/opt/XMClib/XMC_Peripheral_Library_v2.1.16/XMCLib/src/xmc_usbd.c **** #if defined(__CC_ARM)
 118:/opt/XMClib/XMC_Peripheral_Library_v2.1.16/XMCLib/src/xmc_usbd.c **** /*
 119:/opt/XMClib/XMC_Peripheral_Library_v2.1.16/XMCLib/src/xmc_usbd.c ****  * Endpoint Out Fifo
 120:/opt/XMClib/XMC_Peripheral_Library_v2.1.16/XMCLib/src/xmc_usbd.c ****  */
 121:/opt/XMClib/XMC_Peripheral_Library_v2.1.16/XMCLib/src/xmc_usbd.c **** static __attribute__((aligned(4))) uint8_t XMC_USBD_EP_OUT_BUFFER[7][256] __attribute__((section ("
 122:/opt/XMClib/XMC_Peripheral_Library_v2.1.16/XMCLib/src/xmc_usbd.c **** /*
 123:/opt/XMClib/XMC_Peripheral_Library_v2.1.16/XMCLib/src/xmc_usbd.c ****  * Endpoint In Fifo
 124:/opt/XMClib/XMC_Peripheral_Library_v2.1.16/XMCLib/src/xmc_usbd.c ****  */
 125:/opt/XMClib/XMC_Peripheral_Library_v2.1.16/XMCLib/src/xmc_usbd.c **** static __attribute__((aligned(4))) uint8_t XMC_USBD_EP_IN_BUFFER[7][256] __attribute__((section ("R
 126:/opt/XMClib/XMC_Peripheral_Library_v2.1.16/XMCLib/src/xmc_usbd.c **** #endif
 127:/opt/XMClib/XMC_Peripheral_Library_v2.1.16/XMCLib/src/xmc_usbd.c **** XMC_USBD_t *usbd_init;
 128:/opt/XMClib/XMC_Peripheral_Library_v2.1.16/XMCLib/src/xmc_usbd.c **** 
 129:/opt/XMClib/XMC_Peripheral_Library_v2.1.16/XMCLib/src/xmc_usbd.c **** /*******************************************************************************
 130:/opt/XMClib/XMC_Peripheral_Library_v2.1.16/XMCLib/src/xmc_usbd.c ****  *LOCAL ROUTINES
 131:/opt/XMClib/XMC_Peripheral_Library_v2.1.16/XMCLib/src/xmc_usbd.c ****  *******************************************************************************/
 132:/opt/XMClib/XMC_Peripheral_Library_v2.1.16/XMCLib/src/xmc_usbd.c **** /*Local routines prototypes*/
 133:/opt/XMClib/XMC_Peripheral_Library_v2.1.16/XMCLib/src/xmc_usbd.c **** uint8_t XMC_USBD_lDeviceActive(const XMC_USBD_t *const obj);
 134:/opt/XMClib/XMC_Peripheral_Library_v2.1.16/XMCLib/src/xmc_usbd.c **** static void XMC_USBD_lReadFifo(const uint32_t ep_num,const uint32_t byte_count);
 135:/opt/XMClib/XMC_Peripheral_Library_v2.1.16/XMCLib/src/xmc_usbd.c **** static uint32_t XMC_USBD_lWriteFifo(XMC_USBD_EP_t *ep);
 136:/opt/XMClib/XMC_Peripheral_Library_v2.1.16/XMCLib/src/xmc_usbd.c **** static void XMC_USBD_lFlushTXFifo(const uint8_t fifo_num);
 137:/opt/XMClib/XMC_Peripheral_Library_v2.1.16/XMCLib/src/xmc_usbd.c **** static void XMC_USBD_lFlushRXFifo(void);
 138:/opt/XMClib/XMC_Peripheral_Library_v2.1.16/XMCLib/src/xmc_usbd.c **** static uint8_t XMC_USBD_lAssignTXFifo(void);
 139:/opt/XMClib/XMC_Peripheral_Library_v2.1.16/XMCLib/src/xmc_usbd.c **** static void XMC_USBD_lStartReadXfer(XMC_USBD_EP_t *const ep);
 140:/opt/XMClib/XMC_Peripheral_Library_v2.1.16/XMCLib/src/xmc_usbd.c **** static void XMC_USBD_lStartWriteXfer(XMC_USBD_EP_t *const ep);
 141:/opt/XMClib/XMC_Peripheral_Library_v2.1.16/XMCLib/src/xmc_usbd.c **** static void XMC_USBD_lHandleEnumDone(void);
 142:/opt/XMClib/XMC_Peripheral_Library_v2.1.16/XMCLib/src/xmc_usbd.c **** static void XMC_USBD_lHandleOEPInt(const XMC_USBD_t *const obj);
 143:/opt/XMClib/XMC_Peripheral_Library_v2.1.16/XMCLib/src/xmc_usbd.c **** static void XMC_USBD_lHandleRxFLvl(void);
 144:/opt/XMClib/XMC_Peripheral_Library_v2.1.16/XMCLib/src/xmc_usbd.c **** static void XMC_USBD_lHandleIEPInt(const XMC_USBD_t *const obj);
 145:/opt/XMClib/XMC_Peripheral_Library_v2.1.16/XMCLib/src/xmc_usbd.c **** static void XMC_USBD_lUnassignFifo(const uint8_t fifo_nr);
 146:/opt/XMClib/XMC_Peripheral_Library_v2.1.16/XMCLib/src/xmc_usbd.c **** static void XMC_USBD_lHandleUSBReset(const XMC_USBD_t *const obj);
 147:/opt/XMClib/XMC_Peripheral_Library_v2.1.16/XMCLib/src/xmc_usbd.c **** static void XMC_USBD_lHandleOTGInt(void);
 148:/opt/XMClib/XMC_Peripheral_Library_v2.1.16/XMCLib/src/xmc_usbd.c **** static void XMC_USBD_lClearEventOTG(uint32_t event);
 149:/opt/XMClib/XMC_Peripheral_Library_v2.1.16/XMCLib/src/xmc_usbd.c **** 
 150:/opt/XMClib/XMC_Peripheral_Library_v2.1.16/XMCLib/src/xmc_usbd.c **** /**
 151:/opt/XMClib/XMC_Peripheral_Library_v2.1.16/XMCLib/src/xmc_usbd.c ****  *  The device driver
 152:/opt/XMClib/XMC_Peripheral_Library_v2.1.16/XMCLib/src/xmc_usbd.c ****  */
 153:/opt/XMClib/XMC_Peripheral_Library_v2.1.16/XMCLib/src/xmc_usbd.c **** const XMC_USBD_DRIVER_t Driver_USBD0 =
 154:/opt/XMClib/XMC_Peripheral_Library_v2.1.16/XMCLib/src/xmc_usbd.c **** {
 155:/opt/XMClib/XMC_Peripheral_Library_v2.1.16/XMCLib/src/xmc_usbd.c ****   .GetCapabilities = XMC_USBD_GetCapabilities,
 156:/opt/XMClib/XMC_Peripheral_Library_v2.1.16/XMCLib/src/xmc_usbd.c ****   .Initialize = XMC_USBD_Init,
 157:/opt/XMClib/XMC_Peripheral_Library_v2.1.16/XMCLib/src/xmc_usbd.c ****   .Uninitialize = XMC_USBD_Uninitialize,
 158:/opt/XMClib/XMC_Peripheral_Library_v2.1.16/XMCLib/src/xmc_usbd.c ****   .DeviceConnect = XMC_USBD_DeviceConnect,
 159:/opt/XMClib/XMC_Peripheral_Library_v2.1.16/XMCLib/src/xmc_usbd.c ****   .DeviceDisconnect = XMC_USBD_DeviceDisconnect,
 160:/opt/XMClib/XMC_Peripheral_Library_v2.1.16/XMCLib/src/xmc_usbd.c ****   .DeviceGetState = XMC_USBD_DeviceGetState,
 161:/opt/XMClib/XMC_Peripheral_Library_v2.1.16/XMCLib/src/xmc_usbd.c ****   .DeviceSetAddress = XMC_USBD_DeviceSetAddress,
 162:/opt/XMClib/XMC_Peripheral_Library_v2.1.16/XMCLib/src/xmc_usbd.c ****   .EndpointConfigure = XMC_USBD_EndpointConfigure,
 163:/opt/XMClib/XMC_Peripheral_Library_v2.1.16/XMCLib/src/xmc_usbd.c ****   .EndpointUnconfigure = XMC_USBD_EndpointUnconfigure,
 164:/opt/XMClib/XMC_Peripheral_Library_v2.1.16/XMCLib/src/xmc_usbd.c ****   .EndpointStall = XMC_USBD_EndpointStall,
 165:/opt/XMClib/XMC_Peripheral_Library_v2.1.16/XMCLib/src/xmc_usbd.c ****   .EndpointReadStart = XMC_USBD_EndpointReadStart,
 166:/opt/XMClib/XMC_Peripheral_Library_v2.1.16/XMCLib/src/xmc_usbd.c ****   .EndpointRead = XMC_USBD_EndpointRead,
 167:/opt/XMClib/XMC_Peripheral_Library_v2.1.16/XMCLib/src/xmc_usbd.c ****   .EndpointWrite = XMC_USBD_EndpointWrite,
 168:/opt/XMClib/XMC_Peripheral_Library_v2.1.16/XMCLib/src/xmc_usbd.c ****   .EndpointAbort = XMC_USBD_EndpointAbort,
 169:/opt/XMClib/XMC_Peripheral_Library_v2.1.16/XMCLib/src/xmc_usbd.c ****   .GetFrameNumber = XMC_USBD_GetFrameNumber,
 170:/opt/XMClib/XMC_Peripheral_Library_v2.1.16/XMCLib/src/xmc_usbd.c ****   .IsEnumDone = XMC_USBD_IsEnumDone
 171:/opt/XMClib/XMC_Peripheral_Library_v2.1.16/XMCLib/src/xmc_usbd.c **** };
 172:/opt/XMClib/XMC_Peripheral_Library_v2.1.16/XMCLib/src/xmc_usbd.c **** 
 173:/opt/XMClib/XMC_Peripheral_Library_v2.1.16/XMCLib/src/xmc_usbd.c **** /**
 174:/opt/XMClib/XMC_Peripheral_Library_v2.1.16/XMCLib/src/xmc_usbd.c ****  * @brief Checks if device is active
 175:/opt/XMClib/XMC_Peripheral_Library_v2.1.16/XMCLib/src/xmc_usbd.c ****  *
 176:/opt/XMClib/XMC_Peripheral_Library_v2.1.16/XMCLib/src/xmc_usbd.c ****  * Therefore the endpoint inInUse flag are checked and if one endpoint is in use, 1 is returned,
 177:/opt/XMClib/XMC_Peripheral_Library_v2.1.16/XMCLib/src/xmc_usbd.c ****  * else 0 is returned.
 178:/opt/XMClib/XMC_Peripheral_Library_v2.1.16/XMCLib/src/xmc_usbd.c ****  * @return 1 if an endpoint is active else 0
 179:/opt/XMClib/XMC_Peripheral_Library_v2.1.16/XMCLib/src/xmc_usbd.c ****  */
 180:/opt/XMClib/XMC_Peripheral_Library_v2.1.16/XMCLib/src/xmc_usbd.c **** uint8_t XMC_USBD_lDeviceActive(const XMC_USBD_t *const obj) 
 181:/opt/XMClib/XMC_Peripheral_Library_v2.1.16/XMCLib/src/xmc_usbd.c **** {
 182:/opt/XMClib/XMC_Peripheral_Library_v2.1.16/XMCLib/src/xmc_usbd.c ****   uint8_t i;
 183:/opt/XMClib/XMC_Peripheral_Library_v2.1.16/XMCLib/src/xmc_usbd.c ****   uint8_t result = 0U;
 184:/opt/XMClib/XMC_Peripheral_Library_v2.1.16/XMCLib/src/xmc_usbd.c ****   for (i = 0U; i < (uint8_t)obj->usbd_max_num_eps; i++)
 185:/opt/XMClib/XMC_Peripheral_Library_v2.1.16/XMCLib/src/xmc_usbd.c ****   {
 186:/opt/XMClib/XMC_Peripheral_Library_v2.1.16/XMCLib/src/xmc_usbd.c ****     if (xmc_device.ep[i].inInUse || xmc_device.ep[i].outInUse)
 187:/opt/XMClib/XMC_Peripheral_Library_v2.1.16/XMCLib/src/xmc_usbd.c ****     {
 188:/opt/XMClib/XMC_Peripheral_Library_v2.1.16/XMCLib/src/xmc_usbd.c ****       result = 1U;
 189:/opt/XMClib/XMC_Peripheral_Library_v2.1.16/XMCLib/src/xmc_usbd.c ****     }
 190:/opt/XMClib/XMC_Peripheral_Library_v2.1.16/XMCLib/src/xmc_usbd.c ****   }
 191:/opt/XMClib/XMC_Peripheral_Library_v2.1.16/XMCLib/src/xmc_usbd.c ****   return result;
 192:/opt/XMClib/XMC_Peripheral_Library_v2.1.16/XMCLib/src/xmc_usbd.c **** }
 193:/opt/XMClib/XMC_Peripheral_Library_v2.1.16/XMCLib/src/xmc_usbd.c **** 
 194:/opt/XMClib/XMC_Peripheral_Library_v2.1.16/XMCLib/src/xmc_usbd.c **** 
 195:/opt/XMClib/XMC_Peripheral_Library_v2.1.16/XMCLib/src/xmc_usbd.c **** /**
 196:/opt/XMClib/XMC_Peripheral_Library_v2.1.16/XMCLib/src/xmc_usbd.c ****  * @brief Read data from the rx fifo
 197:/opt/XMClib/XMC_Peripheral_Library_v2.1.16/XMCLib/src/xmc_usbd.c ****  *
 198:/opt/XMClib/XMC_Peripheral_Library_v2.1.16/XMCLib/src/xmc_usbd.c ****  * The data from the fifo is copied in to the buffer specified by @ref xfer_buffer and
 199:/opt/XMClib/XMC_Peripheral_Library_v2.1.16/XMCLib/src/xmc_usbd.c ****  * the transfer values get updated. If the endpoint is disabled or the buffer not existent
 200:/opt/XMClib/XMC_Peripheral_Library_v2.1.16/XMCLib/src/xmc_usbd.c ****  * the function exits.
 201:/opt/XMClib/XMC_Peripheral_Library_v2.1.16/XMCLib/src/xmc_usbd.c ****  *
 202:/opt/XMClib/XMC_Peripheral_Library_v2.1.16/XMCLib/src/xmc_usbd.c ****  * @arg ep_num the endpoint to read for
 203:/opt/XMClib/XMC_Peripheral_Library_v2.1.16/XMCLib/src/xmc_usbd.c ****  * @arg byte_count the byte count to read
 204:/opt/XMClib/XMC_Peripheral_Library_v2.1.16/XMCLib/src/xmc_usbd.c ****  */
 205:/opt/XMClib/XMC_Peripheral_Library_v2.1.16/XMCLib/src/xmc_usbd.c **** static void XMC_USBD_lReadFifo(const uint32_t ep_num,const uint32_t byte_count) 
 206:/opt/XMClib/XMC_Peripheral_Library_v2.1.16/XMCLib/src/xmc_usbd.c **** {
 207:/opt/XMClib/XMC_Peripheral_Library_v2.1.16/XMCLib/src/xmc_usbd.c ****   XMC_USBD_EP_t * ep = &xmc_device.ep[ep_num];
 208:/opt/XMClib/XMC_Peripheral_Library_v2.1.16/XMCLib/src/xmc_usbd.c ****   uint32_t word_count;
 209:/opt/XMClib/XMC_Peripheral_Library_v2.1.16/XMCLib/src/xmc_usbd.c ****   uint32_t temp_data;
 210:/opt/XMClib/XMC_Peripheral_Library_v2.1.16/XMCLib/src/xmc_usbd.c ****   uint32_t temp_word_count;
 211:/opt/XMClib/XMC_Peripheral_Library_v2.1.16/XMCLib/src/xmc_usbd.c ****   volatile uint32_t *fifo = xmc_device.fifo[0U];
 212:/opt/XMClib/XMC_Peripheral_Library_v2.1.16/XMCLib/src/xmc_usbd.c ****   uint32_t i;
 213:/opt/XMClib/XMC_Peripheral_Library_v2.1.16/XMCLib/src/xmc_usbd.c ****   depctl_data_t data;
 214:/opt/XMClib/XMC_Peripheral_Library_v2.1.16/XMCLib/src/xmc_usbd.c ****   data.d32 = xmc_device.endpoint_out_register[ep_num]->doepctl;
 215:/opt/XMClib/XMC_Peripheral_Library_v2.1.16/XMCLib/src/xmc_usbd.c ****   word_count = (byte_count >> 2U );
 216:/opt/XMClib/XMC_Peripheral_Library_v2.1.16/XMCLib/src/xmc_usbd.c ****   temp_word_count = (word_count << 2U);
 217:/opt/XMClib/XMC_Peripheral_Library_v2.1.16/XMCLib/src/xmc_usbd.c ****   /* Check if ep is enabled and has buffer */
 218:/opt/XMClib/XMC_Peripheral_Library_v2.1.16/XMCLib/src/xmc_usbd.c ****   if (!data.b.usbactep)
 219:/opt/XMClib/XMC_Peripheral_Library_v2.1.16/XMCLib/src/xmc_usbd.c ****   {
 220:/opt/XMClib/XMC_Peripheral_Library_v2.1.16/XMCLib/src/xmc_usbd.c ****     /*Do Nothing*/
 221:/opt/XMClib/XMC_Peripheral_Library_v2.1.16/XMCLib/src/xmc_usbd.c ****   }
 222:/opt/XMClib/XMC_Peripheral_Library_v2.1.16/XMCLib/src/xmc_usbd.c ****   else if (ep->xferBuffer == NULL)
 223:/opt/XMClib/XMC_Peripheral_Library_v2.1.16/XMCLib/src/xmc_usbd.c ****   {
 224:/opt/XMClib/XMC_Peripheral_Library_v2.1.16/XMCLib/src/xmc_usbd.c **** 	/*Do Nothing*/
 225:/opt/XMClib/XMC_Peripheral_Library_v2.1.16/XMCLib/src/xmc_usbd.c ****   }
 226:/opt/XMClib/XMC_Peripheral_Library_v2.1.16/XMCLib/src/xmc_usbd.c ****   else
 227:/opt/XMClib/XMC_Peripheral_Library_v2.1.16/XMCLib/src/xmc_usbd.c ****   {
 228:/opt/XMClib/XMC_Peripheral_Library_v2.1.16/XMCLib/src/xmc_usbd.c ****     /* store the data */
 229:/opt/XMClib/XMC_Peripheral_Library_v2.1.16/XMCLib/src/xmc_usbd.c ****     for (i = 0U;i < word_count; i++)
 230:/opt/XMClib/XMC_Peripheral_Library_v2.1.16/XMCLib/src/xmc_usbd.c ****     {
 231:/opt/XMClib/XMC_Peripheral_Library_v2.1.16/XMCLib/src/xmc_usbd.c ****       *(((uint32_t*)ep->xferBuffer)+i) = *fifo;
 232:/opt/XMClib/XMC_Peripheral_Library_v2.1.16/XMCLib/src/xmc_usbd.c ****     }
 233:/opt/XMClib/XMC_Peripheral_Library_v2.1.16/XMCLib/src/xmc_usbd.c ****     /* space is not devidable by 4 */
 234:/opt/XMClib/XMC_Peripheral_Library_v2.1.16/XMCLib/src/xmc_usbd.c ****     if (byte_count!=temp_word_count)
 235:/opt/XMClib/XMC_Peripheral_Library_v2.1.16/XMCLib/src/xmc_usbd.c ****     {
 236:/opt/XMClib/XMC_Peripheral_Library_v2.1.16/XMCLib/src/xmc_usbd.c ****       temp_data = *fifo;
 237:/opt/XMClib/XMC_Peripheral_Library_v2.1.16/XMCLib/src/xmc_usbd.c ****       for (i = 0U;(temp_word_count + i) < byte_count;i++)
 238:/opt/XMClib/XMC_Peripheral_Library_v2.1.16/XMCLib/src/xmc_usbd.c ****       {
 239:/opt/XMClib/XMC_Peripheral_Library_v2.1.16/XMCLib/src/xmc_usbd.c ****         ep->xferBuffer[(word_count << 2)+i] = (uint8_t)((temp_data & ((uint32_t)0xFFU << (i * 8U)))
 240:/opt/XMClib/XMC_Peripheral_Library_v2.1.16/XMCLib/src/xmc_usbd.c ****       }
 241:/opt/XMClib/XMC_Peripheral_Library_v2.1.16/XMCLib/src/xmc_usbd.c ****     }
 242:/opt/XMClib/XMC_Peripheral_Library_v2.1.16/XMCLib/src/xmc_usbd.c **** 
 243:/opt/XMClib/XMC_Peripheral_Library_v2.1.16/XMCLib/src/xmc_usbd.c ****     /* save the amount of data */
 244:/opt/XMClib/XMC_Peripheral_Library_v2.1.16/XMCLib/src/xmc_usbd.c ****     ep->xferCount += byte_count;
 245:/opt/XMClib/XMC_Peripheral_Library_v2.1.16/XMCLib/src/xmc_usbd.c ****     ep->xferBuffer += byte_count;
 246:/opt/XMClib/XMC_Peripheral_Library_v2.1.16/XMCLib/src/xmc_usbd.c ****   }
 247:/opt/XMClib/XMC_Peripheral_Library_v2.1.16/XMCLib/src/xmc_usbd.c **** }
 248:/opt/XMClib/XMC_Peripheral_Library_v2.1.16/XMCLib/src/xmc_usbd.c **** 
 249:/opt/XMClib/XMC_Peripheral_Library_v2.1.16/XMCLib/src/xmc_usbd.c **** /**
 250:/opt/XMClib/XMC_Peripheral_Library_v2.1.16/XMCLib/src/xmc_usbd.c ****  * @brief Write data to an endpoint fifo
 251:/opt/XMClib/XMC_Peripheral_Library_v2.1.16/XMCLib/src/xmc_usbd.c ****  *
 252:/opt/XMClib/XMC_Peripheral_Library_v2.1.16/XMCLib/src/xmc_usbd.c ****  * The data from the @ref xfer_buffer gets copied in to the tx fifo of the endpoint until the buffe
 253:/opt/XMClib/XMC_Peripheral_Library_v2.1.16/XMCLib/src/xmc_usbd.c ****  *completely or the tx fifo is full. The transfer values are not updated.
 254:/opt/XMClib/XMC_Peripheral_Library_v2.1.16/XMCLib/src/xmc_usbd.c ****  *
 255:/opt/XMClib/XMC_Peripheral_Library_v2.1.16/XMCLib/src/xmc_usbd.c ****  * @arg[in] ep the endpoint to use
 256:/opt/XMClib/XMC_Peripheral_Library_v2.1.16/XMCLib/src/xmc_usbd.c ****  * @return the number of bytes written to the fifo
 257:/opt/XMClib/XMC_Peripheral_Library_v2.1.16/XMCLib/src/xmc_usbd.c ****  */
 258:/opt/XMClib/XMC_Peripheral_Library_v2.1.16/XMCLib/src/xmc_usbd.c **** static uint32_t XMC_USBD_lWriteFifo(XMC_USBD_EP_t *const ep) 
 259:/opt/XMClib/XMC_Peripheral_Library_v2.1.16/XMCLib/src/xmc_usbd.c **** {
 260:/opt/XMClib/XMC_Peripheral_Library_v2.1.16/XMCLib/src/xmc_usbd.c ****   dtxfsts_data_t freeSpace; 
 261:/opt/XMClib/XMC_Peripheral_Library_v2.1.16/XMCLib/src/xmc_usbd.c ****   volatile uint32_t *fifo;
 262:/opt/XMClib/XMC_Peripheral_Library_v2.1.16/XMCLib/src/xmc_usbd.c ****   uint32_t byte_count;
 263:/opt/XMClib/XMC_Peripheral_Library_v2.1.16/XMCLib/src/xmc_usbd.c ****   uint32_t word_count;
 264:/opt/XMClib/XMC_Peripheral_Library_v2.1.16/XMCLib/src/xmc_usbd.c ****   uint32_t result;
 265:/opt/XMClib/XMC_Peripheral_Library_v2.1.16/XMCLib/src/xmc_usbd.c ****   uint32_t i;
 266:/opt/XMClib/XMC_Peripheral_Library_v2.1.16/XMCLib/src/xmc_usbd.c ****   fifo = xmc_device.fifo[ep->address_u.address_st.number]; /* fifo */
 267:/opt/XMClib/XMC_Peripheral_Library_v2.1.16/XMCLib/src/xmc_usbd.c ****   freeSpace.d32 = xmc_device.endpoint_in_register[ep->address_u.address_st.number]->dtxfsts;
 268:/opt/XMClib/XMC_Peripheral_Library_v2.1.16/XMCLib/src/xmc_usbd.c ****   /* calculate the length and the amount of dwords to copy based on the fifo status */
 269:/opt/XMClib/XMC_Peripheral_Library_v2.1.16/XMCLib/src/xmc_usbd.c ****   byte_count = ep->xferLength - ep->xferCount;
 270:/opt/XMClib/XMC_Peripheral_Library_v2.1.16/XMCLib/src/xmc_usbd.c ****   if (!byte_count)
 271:/opt/XMClib/XMC_Peripheral_Library_v2.1.16/XMCLib/src/xmc_usbd.c ****   {
 272:/opt/XMClib/XMC_Peripheral_Library_v2.1.16/XMCLib/src/xmc_usbd.c ****     result = 0U;
 273:/opt/XMClib/XMC_Peripheral_Library_v2.1.16/XMCLib/src/xmc_usbd.c ****   }
 274:/opt/XMClib/XMC_Peripheral_Library_v2.1.16/XMCLib/src/xmc_usbd.c ****   else
 275:/opt/XMClib/XMC_Peripheral_Library_v2.1.16/XMCLib/src/xmc_usbd.c ****   {
 276:/opt/XMClib/XMC_Peripheral_Library_v2.1.16/XMCLib/src/xmc_usbd.c ****     /* add the unaligned bytes to the word count to compare with the fifo space */
 277:/opt/XMClib/XMC_Peripheral_Library_v2.1.16/XMCLib/src/xmc_usbd.c ****     word_count = ((uint32_t)byte_count + 3U) >> 2U;
 278:/opt/XMClib/XMC_Peripheral_Library_v2.1.16/XMCLib/src/xmc_usbd.c ****     if (word_count > (uint32_t)freeSpace.b.txfspcavail )
 279:/opt/XMClib/XMC_Peripheral_Library_v2.1.16/XMCLib/src/xmc_usbd.c ****     {
 280:/opt/XMClib/XMC_Peripheral_Library_v2.1.16/XMCLib/src/xmc_usbd.c ****       word_count = (uint32_t)freeSpace.b.txfspcavail;
 281:/opt/XMClib/XMC_Peripheral_Library_v2.1.16/XMCLib/src/xmc_usbd.c ****       byte_count = (uint32_t)word_count << (uint32_t)2U;
 282:/opt/XMClib/XMC_Peripheral_Library_v2.1.16/XMCLib/src/xmc_usbd.c ****     }
 283:/opt/XMClib/XMC_Peripheral_Library_v2.1.16/XMCLib/src/xmc_usbd.c **** 
 284:/opt/XMClib/XMC_Peripheral_Library_v2.1.16/XMCLib/src/xmc_usbd.c ****     /* copy data dword wise */
 285:/opt/XMClib/XMC_Peripheral_Library_v2.1.16/XMCLib/src/xmc_usbd.c ****     for (i = 0U; i < word_count;ep->xferBuffer+= 4U)
 286:/opt/XMClib/XMC_Peripheral_Library_v2.1.16/XMCLib/src/xmc_usbd.c ****     {
 287:/opt/XMClib/XMC_Peripheral_Library_v2.1.16/XMCLib/src/xmc_usbd.c ****       *fifo = *(uint32_t*)ep->xferBuffer;
 288:/opt/XMClib/XMC_Peripheral_Library_v2.1.16/XMCLib/src/xmc_usbd.c ****       i++;
 289:/opt/XMClib/XMC_Peripheral_Library_v2.1.16/XMCLib/src/xmc_usbd.c ****     }
 290:/opt/XMClib/XMC_Peripheral_Library_v2.1.16/XMCLib/src/xmc_usbd.c ****     result=byte_count;
 291:/opt/XMClib/XMC_Peripheral_Library_v2.1.16/XMCLib/src/xmc_usbd.c ****   }
 292:/opt/XMClib/XMC_Peripheral_Library_v2.1.16/XMCLib/src/xmc_usbd.c ****   return result;
 293:/opt/XMClib/XMC_Peripheral_Library_v2.1.16/XMCLib/src/xmc_usbd.c **** }
 294:/opt/XMClib/XMC_Peripheral_Library_v2.1.16/XMCLib/src/xmc_usbd.c **** 
 295:/opt/XMClib/XMC_Peripheral_Library_v2.1.16/XMCLib/src/xmc_usbd.c **** /**
 296:/opt/XMClib/XMC_Peripheral_Library_v2.1.16/XMCLib/src/xmc_usbd.c ****  * @brief Flush a tx fifo
 297:/opt/XMClib/XMC_Peripheral_Library_v2.1.16/XMCLib/src/xmc_usbd.c ****  *
 298:/opt/XMClib/XMC_Peripheral_Library_v2.1.16/XMCLib/src/xmc_usbd.c ****  * @param[in] fifo_num Fifo number to flush
 299:/opt/XMClib/XMC_Peripheral_Library_v2.1.16/XMCLib/src/xmc_usbd.c ****  *
 300:/opt/XMClib/XMC_Peripheral_Library_v2.1.16/XMCLib/src/xmc_usbd.c ****  * @note Use 0x10 as parameter to flush all tx fifos.
 301:/opt/XMClib/XMC_Peripheral_Library_v2.1.16/XMCLib/src/xmc_usbd.c ****  */
 302:/opt/XMClib/XMC_Peripheral_Library_v2.1.16/XMCLib/src/xmc_usbd.c **** static void XMC_USBD_lFlushTXFifo(const uint8_t fifo_num) 
 303:/opt/XMClib/XMC_Peripheral_Library_v2.1.16/XMCLib/src/xmc_usbd.c **** {
 304:/opt/XMClib/XMC_Peripheral_Library_v2.1.16/XMCLib/src/xmc_usbd.c ****   volatile grstctl_t data;  
 305:/opt/XMClib/XMC_Peripheral_Library_v2.1.16/XMCLib/src/xmc_usbd.c ****   uint32_t count;
 306:/opt/XMClib/XMC_Peripheral_Library_v2.1.16/XMCLib/src/xmc_usbd.c ****   data.d32 = 0U;
 307:/opt/XMClib/XMC_Peripheral_Library_v2.1.16/XMCLib/src/xmc_usbd.c ****   /*flush fifo */
 308:/opt/XMClib/XMC_Peripheral_Library_v2.1.16/XMCLib/src/xmc_usbd.c ****   data.b.txfflsh = 1U;
 309:/opt/XMClib/XMC_Peripheral_Library_v2.1.16/XMCLib/src/xmc_usbd.c ****   data.b.txfnum = fifo_num;
 310:/opt/XMClib/XMC_Peripheral_Library_v2.1.16/XMCLib/src/xmc_usbd.c ****   xmc_device.global_register->grstctl = data.d32;
 311:/opt/XMClib/XMC_Peripheral_Library_v2.1.16/XMCLib/src/xmc_usbd.c ****   for (count = 0U;count < 1000U; count++){}
 312:/opt/XMClib/XMC_Peripheral_Library_v2.1.16/XMCLib/src/xmc_usbd.c ****   do
 313:/opt/XMClib/XMC_Peripheral_Library_v2.1.16/XMCLib/src/xmc_usbd.c ****   {
 314:/opt/XMClib/XMC_Peripheral_Library_v2.1.16/XMCLib/src/xmc_usbd.c ****    data.d32 = xmc_device.global_register->grstctl;
 315:/opt/XMClib/XMC_Peripheral_Library_v2.1.16/XMCLib/src/xmc_usbd.c ****   } while (data.b.txfflsh);
 316:/opt/XMClib/XMC_Peripheral_Library_v2.1.16/XMCLib/src/xmc_usbd.c ****     count = 0U;
 317:/opt/XMClib/XMC_Peripheral_Library_v2.1.16/XMCLib/src/xmc_usbd.c ****   while (count++ < 1000U)
 318:/opt/XMClib/XMC_Peripheral_Library_v2.1.16/XMCLib/src/xmc_usbd.c ****   {
 319:/opt/XMClib/XMC_Peripheral_Library_v2.1.16/XMCLib/src/xmc_usbd.c ****     /* wait 3 phy clocks */
 320:/opt/XMClib/XMC_Peripheral_Library_v2.1.16/XMCLib/src/xmc_usbd.c ****   }
 321:/opt/XMClib/XMC_Peripheral_Library_v2.1.16/XMCLib/src/xmc_usbd.c **** }
 322:/opt/XMClib/XMC_Peripheral_Library_v2.1.16/XMCLib/src/xmc_usbd.c **** 
 323:/opt/XMClib/XMC_Peripheral_Library_v2.1.16/XMCLib/src/xmc_usbd.c **** /**
 324:/opt/XMClib/XMC_Peripheral_Library_v2.1.16/XMCLib/src/xmc_usbd.c ****  * @brief Flush the rx fifo
 325:/opt/XMClib/XMC_Peripheral_Library_v2.1.16/XMCLib/src/xmc_usbd.c ****  */
 326:/opt/XMClib/XMC_Peripheral_Library_v2.1.16/XMCLib/src/xmc_usbd.c **** static void XMC_USBD_lFlushRXFifo(void) 
 327:/opt/XMClib/XMC_Peripheral_Library_v2.1.16/XMCLib/src/xmc_usbd.c **** {
 328:/opt/XMClib/XMC_Peripheral_Library_v2.1.16/XMCLib/src/xmc_usbd.c ****   volatile grstctl_t data;  
 329:/opt/XMClib/XMC_Peripheral_Library_v2.1.16/XMCLib/src/xmc_usbd.c ****   uint32_t count;
 330:/opt/XMClib/XMC_Peripheral_Library_v2.1.16/XMCLib/src/xmc_usbd.c **** 	
 331:/opt/XMClib/XMC_Peripheral_Library_v2.1.16/XMCLib/src/xmc_usbd.c **** 	data.d32 = 0U;
 332:/opt/XMClib/XMC_Peripheral_Library_v2.1.16/XMCLib/src/xmc_usbd.c ****   data.b.rxfflsh = 1U;
 333:/opt/XMClib/XMC_Peripheral_Library_v2.1.16/XMCLib/src/xmc_usbd.c ****   /* flush FIFO */
 334:/opt/XMClib/XMC_Peripheral_Library_v2.1.16/XMCLib/src/xmc_usbd.c ****   xmc_device.global_register->grstctl = data.d32;
 335:/opt/XMClib/XMC_Peripheral_Library_v2.1.16/XMCLib/src/xmc_usbd.c ****   do
 336:/opt/XMClib/XMC_Peripheral_Library_v2.1.16/XMCLib/src/xmc_usbd.c ****   {
 337:/opt/XMClib/XMC_Peripheral_Library_v2.1.16/XMCLib/src/xmc_usbd.c ****     for (count = 0U; count < 1000U; count++){}
 338:/opt/XMClib/XMC_Peripheral_Library_v2.1.16/XMCLib/src/xmc_usbd.c ****     data.d32 = xmc_device.global_register->grstctl;
 339:/opt/XMClib/XMC_Peripheral_Library_v2.1.16/XMCLib/src/xmc_usbd.c ****   } while (data.b.rxfflsh);
 340:/opt/XMClib/XMC_Peripheral_Library_v2.1.16/XMCLib/src/xmc_usbd.c ****   count = 0U;
 341:/opt/XMClib/XMC_Peripheral_Library_v2.1.16/XMCLib/src/xmc_usbd.c ****   while (count++ < 1000U)
 342:/opt/XMClib/XMC_Peripheral_Library_v2.1.16/XMCLib/src/xmc_usbd.c ****   {
 343:/opt/XMClib/XMC_Peripheral_Library_v2.1.16/XMCLib/src/xmc_usbd.c ****     /* wait 3 phy clocks */
 344:/opt/XMClib/XMC_Peripheral_Library_v2.1.16/XMCLib/src/xmc_usbd.c ****   }
 345:/opt/XMClib/XMC_Peripheral_Library_v2.1.16/XMCLib/src/xmc_usbd.c **** }
 346:/opt/XMClib/XMC_Peripheral_Library_v2.1.16/XMCLib/src/xmc_usbd.c **** 
 347:/opt/XMClib/XMC_Peripheral_Library_v2.1.16/XMCLib/src/xmc_usbd.c **** /*
 348:/opt/XMClib/XMC_Peripheral_Library_v2.1.16/XMCLib/src/xmc_usbd.c ****  * Support Functions
 349:/opt/XMClib/XMC_Peripheral_Library_v2.1.16/XMCLib/src/xmc_usbd.c ****  */
 350:/opt/XMClib/XMC_Peripheral_Library_v2.1.16/XMCLib/src/xmc_usbd.c **** 
 351:/opt/XMClib/XMC_Peripheral_Library_v2.1.16/XMCLib/src/xmc_usbd.c **** /**
 352:/opt/XMClib/XMC_Peripheral_Library_v2.1.16/XMCLib/src/xmc_usbd.c ****  * @brief Assign a free tx fifo
 353:/opt/XMClib/XMC_Peripheral_Library_v2.1.16/XMCLib/src/xmc_usbd.c ****  *
 354:/opt/XMClib/XMC_Peripheral_Library_v2.1.16/XMCLib/src/xmc_usbd.c ****  * A free tx fifo will be searched and the number will be returned.
 355:/opt/XMClib/XMC_Peripheral_Library_v2.1.16/XMCLib/src/xmc_usbd.c ****  *
 356:/opt/XMClib/XMC_Peripheral_Library_v2.1.16/XMCLib/src/xmc_usbd.c ****  * @return Fifo number for a free fifo
 357:/opt/XMClib/XMC_Peripheral_Library_v2.1.16/XMCLib/src/xmc_usbd.c ****  */
 358:/opt/XMClib/XMC_Peripheral_Library_v2.1.16/XMCLib/src/xmc_usbd.c **** static uint8_t XMC_USBD_lAssignTXFifo(void) 
 359:/opt/XMClib/XMC_Peripheral_Library_v2.1.16/XMCLib/src/xmc_usbd.c **** {
 360:/opt/XMClib/XMC_Peripheral_Library_v2.1.16/XMCLib/src/xmc_usbd.c ****   uint16_t mask = 1U;
 361:/opt/XMClib/XMC_Peripheral_Library_v2.1.16/XMCLib/src/xmc_usbd.c ****   uint8_t i = 0U;
 362:/opt/XMClib/XMC_Peripheral_Library_v2.1.16/XMCLib/src/xmc_usbd.c ****   uint8_t result = 0U;
 363:/opt/XMClib/XMC_Peripheral_Library_v2.1.16/XMCLib/src/xmc_usbd.c ****   while( (i < (uint8_t)XMC_USBD_NUM_TX_FIFOS)&&((xmc_device.txfifomsk & mask) != 0U))
 364:/opt/XMClib/XMC_Peripheral_Library_v2.1.16/XMCLib/src/xmc_usbd.c ****   {
 365:/opt/XMClib/XMC_Peripheral_Library_v2.1.16/XMCLib/src/xmc_usbd.c ****     mask = (uint16_t)(mask << 1U);
 366:/opt/XMClib/XMC_Peripheral_Library_v2.1.16/XMCLib/src/xmc_usbd.c ****     i++;
 367:/opt/XMClib/XMC_Peripheral_Library_v2.1.16/XMCLib/src/xmc_usbd.c ****   }
 368:/opt/XMClib/XMC_Peripheral_Library_v2.1.16/XMCLib/src/xmc_usbd.c ****   if ((xmc_device.txfifomsk & mask) == 0U)
 369:/opt/XMClib/XMC_Peripheral_Library_v2.1.16/XMCLib/src/xmc_usbd.c ****   {
 370:/opt/XMClib/XMC_Peripheral_Library_v2.1.16/XMCLib/src/xmc_usbd.c ****     xmc_device.txfifomsk |= mask;
 371:/opt/XMClib/XMC_Peripheral_Library_v2.1.16/XMCLib/src/xmc_usbd.c ****     result=i;
 372:/opt/XMClib/XMC_Peripheral_Library_v2.1.16/XMCLib/src/xmc_usbd.c ****   }
 373:/opt/XMClib/XMC_Peripheral_Library_v2.1.16/XMCLib/src/xmc_usbd.c ****   return result;
 374:/opt/XMClib/XMC_Peripheral_Library_v2.1.16/XMCLib/src/xmc_usbd.c **** }
 375:/opt/XMClib/XMC_Peripheral_Library_v2.1.16/XMCLib/src/xmc_usbd.c **** 
 376:/opt/XMClib/XMC_Peripheral_Library_v2.1.16/XMCLib/src/xmc_usbd.c **** /**
 377:/opt/XMClib/XMC_Peripheral_Library_v2.1.16/XMCLib/src/xmc_usbd.c ****  * @brief Free a tx fifo
 378:/opt/XMClib/XMC_Peripheral_Library_v2.1.16/XMCLib/src/xmc_usbd.c ****  *
 379:/opt/XMClib/XMC_Peripheral_Library_v2.1.16/XMCLib/src/xmc_usbd.c ****  * Mark an used tx fifo as free.
 380:/opt/XMClib/XMC_Peripheral_Library_v2.1.16/XMCLib/src/xmc_usbd.c ****  * @param[in] fifo_nr Fifo number to free
 381:/opt/XMClib/XMC_Peripheral_Library_v2.1.16/XMCLib/src/xmc_usbd.c ****  */
 382:/opt/XMClib/XMC_Peripheral_Library_v2.1.16/XMCLib/src/xmc_usbd.c **** static void XMC_USBD_lUnassignFifo(const uint8_t fifo_nr) 
 383:/opt/XMClib/XMC_Peripheral_Library_v2.1.16/XMCLib/src/xmc_usbd.c **** {
 384:/opt/XMClib/XMC_Peripheral_Library_v2.1.16/XMCLib/src/xmc_usbd.c ****   xmc_device.txfifomsk = (uint16_t)((uint32_t)xmc_device.txfifomsk & (uint32_t)(~((uint32_t)((uint3
 385:/opt/XMClib/XMC_Peripheral_Library_v2.1.16/XMCLib/src/xmc_usbd.c **** }
 386:/opt/XMClib/XMC_Peripheral_Library_v2.1.16/XMCLib/src/xmc_usbd.c **** 
 387:/opt/XMClib/XMC_Peripheral_Library_v2.1.16/XMCLib/src/xmc_usbd.c **** /**
 388:/opt/XMClib/XMC_Peripheral_Library_v2.1.16/XMCLib/src/xmc_usbd.c ****  * @brief Start a transfer for an out endpoint
 389:/opt/XMClib/XMC_Peripheral_Library_v2.1.16/XMCLib/src/xmc_usbd.c ****  *
 390:/opt/XMClib/XMC_Peripheral_Library_v2.1.16/XMCLib/src/xmc_usbd.c ****  * Based on the transfer values of the endpoint, the out endpoint registers will be programmed
 391:/opt/XMClib/XMC_Peripheral_Library_v2.1.16/XMCLib/src/xmc_usbd.c ****  * to start a new out transfer.
 392:/opt/XMClib/XMC_Peripheral_Library_v2.1.16/XMCLib/src/xmc_usbd.c ****  *
 393:/opt/XMClib/XMC_Peripheral_Library_v2.1.16/XMCLib/src/xmc_usbd.c ****  * @note No checking of the transfer values are done in this function. Be sure,
 394:/opt/XMClib/XMC_Peripheral_Library_v2.1.16/XMCLib/src/xmc_usbd.c ****  * that the transfer values are reasonable (e.g. buffer size is not exceeded).
 395:/opt/XMClib/XMC_Peripheral_Library_v2.1.16/XMCLib/src/xmc_usbd.c ****  *
 396:/opt/XMClib/XMC_Peripheral_Library_v2.1.16/XMCLib/src/xmc_usbd.c ****  * @param[in] ep Endpoint to start the transfer
 397:/opt/XMClib/XMC_Peripheral_Library_v2.1.16/XMCLib/src/xmc_usbd.c ****  */
 398:/opt/XMClib/XMC_Peripheral_Library_v2.1.16/XMCLib/src/xmc_usbd.c **** static void XMC_USBD_lStartReadXfer(XMC_USBD_EP_t *const ep) 
 399:/opt/XMClib/XMC_Peripheral_Library_v2.1.16/XMCLib/src/xmc_usbd.c **** {
  27              		.loc 1 399 0
  28              		.cfi_startproc
  29              		@ args = 0, pretend = 0, frame = 0
  30              		@ frame_needed = 0, uses_anonymous_args = 0
  31              		@ link register save eliminated.
  32              	.LVL0:
 400:/opt/XMClib/XMC_Peripheral_Library_v2.1.16/XMCLib/src/xmc_usbd.c ****   deptsiz_data_t data;
 401:/opt/XMClib/XMC_Peripheral_Library_v2.1.16/XMCLib/src/xmc_usbd.c ****   depctl_data_t epctl;
 402:/opt/XMClib/XMC_Peripheral_Library_v2.1.16/XMCLib/src/xmc_usbd.c **** 	
 403:/opt/XMClib/XMC_Peripheral_Library_v2.1.16/XMCLib/src/xmc_usbd.c ****   data.d32 =  0U;
 404:/opt/XMClib/XMC_Peripheral_Library_v2.1.16/XMCLib/src/xmc_usbd.c ****   if ((ep->xferTotal - ep->xferLength) > ep->maxTransferSize)
  33              		.loc 1 404 0
  34 0000 816A     		ldr	r1, [r0, #40]
  35 0002 8268     		ldr	r2, [r0, #8]
 399:/opt/XMClib/XMC_Peripheral_Library_v2.1.16/XMCLib/src/xmc_usbd.c ****   deptsiz_data_t data;
  36              		.loc 1 399 0
  37 0004 30B4     		push	{r4, r5}
  38              	.LCFI0:
  39              		.cfi_def_cfa_offset 8
  40              		.cfi_offset 4, -8
  41              		.cfi_offset 5, -4
  42              		.loc 1 404 0
  43 0006 046B     		ldr	r4, [r0, #48]
  44 0008 C2F31202 		ubfx	r2, r2, #0, #19
  45 000c 651A     		subs	r5, r4, r1
  46 000e 9542     		cmp	r5, r2
 405:/opt/XMClib/XMC_Peripheral_Library_v2.1.16/XMCLib/src/xmc_usbd.c ****   {
 406:/opt/XMClib/XMC_Peripheral_Library_v2.1.16/XMCLib/src/xmc_usbd.c ****     ep->xferLength += ep->maxTransferSize;
  47              		.loc 1 406 0
  48 0010 84BF     		itt	hi
  49 0012 5218     		addhi	r2, r2, r1
  50 0014 8262     		strhi	r2, [r0, #40]
 407:/opt/XMClib/XMC_Peripheral_Library_v2.1.16/XMCLib/src/xmc_usbd.c ****   }
 408:/opt/XMClib/XMC_Peripheral_Library_v2.1.16/XMCLib/src/xmc_usbd.c ****   else
 409:/opt/XMClib/XMC_Peripheral_Library_v2.1.16/XMCLib/src/xmc_usbd.c ****   {
 410:/opt/XMClib/XMC_Peripheral_Library_v2.1.16/XMCLib/src/xmc_usbd.c ****     ep->xferLength = ep->xferTotal;
 411:/opt/XMClib/XMC_Peripheral_Library_v2.1.16/XMCLib/src/xmc_usbd.c ****   }
 412:/opt/XMClib/XMC_Peripheral_Library_v2.1.16/XMCLib/src/xmc_usbd.c ****   if (ep->address_u.address_st.number == 0U)
  51              		.loc 1 412 0
  52 0016 0278     		ldrb	r2, [r0]	@ zero_extendqisi2
 410:/opt/XMClib/XMC_Peripheral_Library_v2.1.16/XMCLib/src/xmc_usbd.c ****   }
  53              		.loc 1 410 0
  54 0018 98BF     		it	ls
  55 001a 8462     		strls	r4, [r0, #40]
  56              		.loc 1 412 0
  57 001c 1107     		lsls	r1, r2, #28
 403:/opt/XMClib/XMC_Peripheral_Library_v2.1.16/XMCLib/src/xmc_usbd.c ****   if ((ep->xferTotal - ep->xferLength) > ep->maxTransferSize)
  58              		.loc 1 403 0
  59 001e 4FF00003 		mov	r3, #0
  60              	.LVL1:
  61              		.loc 1 412 0
  62 0022 1AD1     		bne	.L4
  63              	.LVL2:
  64              	.LBB84:
 413:/opt/XMClib/XMC_Peripheral_Library_v2.1.16/XMCLib/src/xmc_usbd.c ****   {
 414:/opt/XMClib/XMC_Peripheral_Library_v2.1.16/XMCLib/src/xmc_usbd.c **** 	/* Setup the endpoint to receive 3 setup packages and one normal package.*/
 415:/opt/XMClib/XMC_Peripheral_Library_v2.1.16/XMCLib/src/xmc_usbd.c **** 	/* Cast the data pointer to use only one variable */
 416:/opt/XMClib/XMC_Peripheral_Library_v2.1.16/XMCLib/src/xmc_usbd.c ****     deptsiz0_data_t *ep0_data = (deptsiz0_data_t*)&data;
 417:/opt/XMClib/XMC_Peripheral_Library_v2.1.16/XMCLib/src/xmc_usbd.c ****     ep0_data->b.pktcnt = 0x1U;
  65              		.loc 1 417 0
  66 0024 0121     		movs	r1, #1
  67 0026 61F3D443 		bfi	r3, r1, #19, #2
  68              	.LVL3:
 418:/opt/XMClib/XMC_Peripheral_Library_v2.1.16/XMCLib/src/xmc_usbd.c ****     ep0_data->b.supcnt = 0x3U;
  69              		.loc 1 418 0
  70 002a 43F0C043 		orr	r3, r3, #1610612736
  71              	.LVL4:
 419:/opt/XMClib/XMC_Peripheral_Library_v2.1.16/XMCLib/src/xmc_usbd.c ****     ep0_data->b.xfersize = (uint8_t)ep->xferTotal;
  72              		.loc 1 419 0
  73 002e 64F30603 		bfi	r3, r4, #0, #7
  74              	.LVL5:
  75              	.L5:
  76              	.LBE84:
 420:/opt/XMClib/XMC_Peripheral_Library_v2.1.16/XMCLib/src/xmc_usbd.c ****   }
 421:/opt/XMClib/XMC_Peripheral_Library_v2.1.16/XMCLib/src/xmc_usbd.c ****   else
 422:/opt/XMClib/XMC_Peripheral_Library_v2.1.16/XMCLib/src/xmc_usbd.c ****   {
 423:/opt/XMClib/XMC_Peripheral_Library_v2.1.16/XMCLib/src/xmc_usbd.c ****     /* If requested length is zero, just receive one zero length packet */
 424:/opt/XMClib/XMC_Peripheral_Library_v2.1.16/XMCLib/src/xmc_usbd.c ****     if (ep->xferLength == 0U)
 425:/opt/XMClib/XMC_Peripheral_Library_v2.1.16/XMCLib/src/xmc_usbd.c ****     {
 426:/opt/XMClib/XMC_Peripheral_Library_v2.1.16/XMCLib/src/xmc_usbd.c ****       data.b.xfersize = 0U;
 427:/opt/XMClib/XMC_Peripheral_Library_v2.1.16/XMCLib/src/xmc_usbd.c ****       data.b.pktcnt = 1U;
 428:/opt/XMClib/XMC_Peripheral_Library_v2.1.16/XMCLib/src/xmc_usbd.c ****     }
 429:/opt/XMClib/XMC_Peripheral_Library_v2.1.16/XMCLib/src/xmc_usbd.c ****     else
 430:/opt/XMClib/XMC_Peripheral_Library_v2.1.16/XMCLib/src/xmc_usbd.c ****     {
 431:/opt/XMClib/XMC_Peripheral_Library_v2.1.16/XMCLib/src/xmc_usbd.c ****       /* setup endpoint to recive a amount of packages by given size */
 432:/opt/XMClib/XMC_Peripheral_Library_v2.1.16/XMCLib/src/xmc_usbd.c ****       data.b.pktcnt = (uint16_t)(((ep->xferLength - ep->xferCount) + (ep->maxPacketSize -(uint32_t)
 433:/opt/XMClib/XMC_Peripheral_Library_v2.1.16/XMCLib/src/xmc_usbd.c ****       data.b.xfersize =(uint32_t)(ep->xferLength - ep->xferCount);
 434:/opt/XMClib/XMC_Peripheral_Library_v2.1.16/XMCLib/src/xmc_usbd.c ****     }
 435:/opt/XMClib/XMC_Peripheral_Library_v2.1.16/XMCLib/src/xmc_usbd.c ****   }
 436:/opt/XMClib/XMC_Peripheral_Library_v2.1.16/XMCLib/src/xmc_usbd.c ****   if(usbd_init->usbd_transfer_mode == XMC_USBD_USE_DMA)
  77              		.loc 1 436 0
  78 0032 154C     		ldr	r4, .L10
  79 0034 1549     		ldr	r1, .L10+4
  80 0036 2468     		ldr	r4, [r4]
  81 0038 02F00F02 		and	r2, r2, #15
  82 003c 01EB8202 		add	r2, r1, r2, lsl #2
  83 0040 617B     		ldrb	r1, [r4, #13]	@ zero_extendqisi2
  84 0042 D2F8C421 		ldr	r2, [r2, #452]
  85 0046 09B9     		cbnz	r1, .L7
 437:/opt/XMClib/XMC_Peripheral_Library_v2.1.16/XMCLib/src/xmc_usbd.c ****   {
 438:/opt/XMClib/XMC_Peripheral_Library_v2.1.16/XMCLib/src/xmc_usbd.c ****     /* Programm dma address if needed */
 439:/opt/XMClib/XMC_Peripheral_Library_v2.1.16/XMCLib/src/xmc_usbd.c ****     xmc_device.endpoint_out_register[ep->address_u.address_st.number]->doepdma = (uint32_t)(ep->xfe
  86              		.loc 1 439 0
  87 0048 416A     		ldr	r1, [r0, #36]
  88 004a 5161     		str	r1, [r2, #20]
  89              	.L7:
 440:/opt/XMClib/XMC_Peripheral_Library_v2.1.16/XMCLib/src/xmc_usbd.c ****   }
 441:/opt/XMClib/XMC_Peripheral_Library_v2.1.16/XMCLib/src/xmc_usbd.c ****   /* setup endpoint size and enable endpoint */
 442:/opt/XMClib/XMC_Peripheral_Library_v2.1.16/XMCLib/src/xmc_usbd.c ****   xmc_device.endpoint_out_register[ep->address_u.address_st.number]->doeptsiz = data.d32;
  90              		.loc 1 442 0
  91 004c 1361     		str	r3, [r2, #16]
 443:/opt/XMClib/XMC_Peripheral_Library_v2.1.16/XMCLib/src/xmc_usbd.c ****  
 444:/opt/XMClib/XMC_Peripheral_Library_v2.1.16/XMCLib/src/xmc_usbd.c ****   epctl.d32 = xmc_device.endpoint_out_register[ep->address_u.address_st.number]->doepctl;
  92              		.loc 1 444 0
  93 004e 1368     		ldr	r3, [r2]
  94              	.LVL6:
 445:/opt/XMClib/XMC_Peripheral_Library_v2.1.16/XMCLib/src/xmc_usbd.c ****   epctl.b.cnak = 1U;
 446:/opt/XMClib/XMC_Peripheral_Library_v2.1.16/XMCLib/src/xmc_usbd.c ****   epctl.b.epena = 1U;
  95              		.loc 1 446 0
  96 0050 43F00443 		orr	r3, r3, #-2080374784
  97              	.LVL7:
 447:/opt/XMClib/XMC_Peripheral_Library_v2.1.16/XMCLib/src/xmc_usbd.c ****   xmc_device.endpoint_out_register[ep->address_u.address_st.number]->doepctl = epctl.d32;
  98              		.loc 1 447 0
  99 0054 1360     		str	r3, [r2]
 448:/opt/XMClib/XMC_Peripheral_Library_v2.1.16/XMCLib/src/xmc_usbd.c **** }
 100              		.loc 1 448 0
 101 0056 30BC     		pop	{r4, r5}
 102              	.LCFI1:
 103              		.cfi_remember_state
 104              		.cfi_restore 5
 105              		.cfi_restore 4
 106              		.cfi_def_cfa_offset 0
 107 0058 7047     		bx	lr
 108              	.LVL8:
 109              	.L4:
 110              	.LCFI2:
 111              		.cfi_restore_state
 424:/opt/XMClib/XMC_Peripheral_Library_v2.1.16/XMCLib/src/xmc_usbd.c ****     {
 112              		.loc 1 424 0
 113 005a 816A     		ldr	r1, [r0, #40]
 114 005c 29B9     		cbnz	r1, .L6
 426:/opt/XMClib/XMC_Peripheral_Library_v2.1.16/XMCLib/src/xmc_usbd.c ****       data.b.pktcnt = 1U;
 115              		.loc 1 426 0
 116 005e 61F31203 		bfi	r3, r1, #0, #19
 117              	.LVL9:
 427:/opt/XMClib/XMC_Peripheral_Library_v2.1.16/XMCLib/src/xmc_usbd.c ****     }
 118              		.loc 1 427 0
 119 0062 0121     		movs	r1, #1
 120 0064 61F3DC43 		bfi	r3, r1, #19, #10
 121 0068 E3E7     		b	.L5
 122              	.LVL10:
 123              	.L6:
 432:/opt/XMClib/XMC_Peripheral_Library_v2.1.16/XMCLib/src/xmc_usbd.c ****       data.b.xfersize =(uint32_t)(ep->xferLength - ep->xferCount);
 124              		.loc 1 432 0
 125 006a C56A     		ldr	r5, [r0, #44]
 126 006c 4468     		ldr	r4, [r0, #4]
 127 006e 491B     		subs	r1, r1, r5
 128 0070 C4F3C625 		ubfx	r5, r4, #11, #7
 129 0074 4C19     		adds	r4, r1, r5
 130 0076 013C     		subs	r4, r4, #1
 131 0078 B4FBF5F4 		udiv	r4, r4, r5
 132 007c 64F3DC43 		bfi	r3, r4, #19, #10
 133              	.LVL11:
 433:/opt/XMClib/XMC_Peripheral_Library_v2.1.16/XMCLib/src/xmc_usbd.c ****     }
 134              		.loc 1 433 0
 135 0080 61F31203 		bfi	r3, r1, #0, #19
 136 0084 D5E7     		b	.L5
 137              	.L11:
 138 0086 00BF     		.align	2
 139              	.L10:
 140 0088 00000000 		.word	usbd_init
 141 008c 00000000 		.word	xmc_device
 142              		.cfi_endproc
 143              	.LFE169:
 145              		.section	.text.XMC_USBD_lStartWriteXfer,"ax",%progbits
 146              		.align	1
 147              		.p2align 2,,3
 148              		.syntax unified
 149              		.thumb
 150              		.thumb_func
 151              		.fpu fpv4-sp-d16
 153              	XMC_USBD_lStartWriteXfer:
 154              	.LFB170:
 449:/opt/XMClib/XMC_Peripheral_Library_v2.1.16/XMCLib/src/xmc_usbd.c **** 
 450:/opt/XMClib/XMC_Peripheral_Library_v2.1.16/XMCLib/src/xmc_usbd.c **** /**
 451:/opt/XMClib/XMC_Peripheral_Library_v2.1.16/XMCLib/src/xmc_usbd.c ****  * @brief Start a new in transfer
 452:/opt/XMClib/XMC_Peripheral_Library_v2.1.16/XMCLib/src/xmc_usbd.c ****  *
 453:/opt/XMClib/XMC_Peripheral_Library_v2.1.16/XMCLib/src/xmc_usbd.c ****  * Based on the transfer values of the endpoint the in endpoint registers will be programmed
 454:/opt/XMClib/XMC_Peripheral_Library_v2.1.16/XMCLib/src/xmc_usbd.c ****  * to start a new in transfer
 455:/opt/XMClib/XMC_Peripheral_Library_v2.1.16/XMCLib/src/xmc_usbd.c ****  *
 456:/opt/XMClib/XMC_Peripheral_Library_v2.1.16/XMCLib/src/xmc_usbd.c ****  * @param[in] ep Endpoint to start the transfer
 457:/opt/XMClib/XMC_Peripheral_Library_v2.1.16/XMCLib/src/xmc_usbd.c ****  */
 458:/opt/XMClib/XMC_Peripheral_Library_v2.1.16/XMCLib/src/xmc_usbd.c **** static void XMC_USBD_lStartWriteXfer(XMC_USBD_EP_t *const ep) 
 459:/opt/XMClib/XMC_Peripheral_Library_v2.1.16/XMCLib/src/xmc_usbd.c **** {
 155              		.loc 1 459 0
 156              		.cfi_startproc
 157              		@ args = 0, pretend = 0, frame = 0
 158              		@ frame_needed = 0, uses_anonymous_args = 0
 159              	.LVL12:
 160 0000 2DE9F041 		push	{r4, r5, r6, r7, r8, lr}
 161              	.LCFI3:
 162              		.cfi_def_cfa_offset 24
 163              		.cfi_offset 4, -24
 164              		.cfi_offset 5, -20
 165              		.cfi_offset 6, -16
 166              		.cfi_offset 7, -12
 167              		.cfi_offset 8, -8
 168              		.cfi_offset 14, -4
 460:/opt/XMClib/XMC_Peripheral_Library_v2.1.16/XMCLib/src/xmc_usbd.c ****   deptsiz_data_t size;
 461:/opt/XMClib/XMC_Peripheral_Library_v2.1.16/XMCLib/src/xmc_usbd.c ****   depctl_data_t ctl;
 462:/opt/XMClib/XMC_Peripheral_Library_v2.1.16/XMCLib/src/xmc_usbd.c **** 	
 463:/opt/XMClib/XMC_Peripheral_Library_v2.1.16/XMCLib/src/xmc_usbd.c ****   size.d32 = 0U;  
 464:/opt/XMClib/XMC_Peripheral_Library_v2.1.16/XMCLib/src/xmc_usbd.c ****   ctl.d32 = xmc_device.endpoint_in_register[ep->address_u.address_st.number]->diepctl;
 169              		.loc 1 464 0
 170 0004 0678     		ldrb	r6, [r0]	@ zero_extendqisi2
 465:/opt/XMClib/XMC_Peripheral_Library_v2.1.16/XMCLib/src/xmc_usbd.c **** 
 466:/opt/XMClib/XMC_Peripheral_Library_v2.1.16/XMCLib/src/xmc_usbd.c ****   if ((ep->xferTotal - ep->xferLength)  < ep->maxTransferSize)
 171              		.loc 1 466 0
 172 0006 036B     		ldr	r3, [r0, #48]
 173 0008 D0F828E0 		ldr	lr, [r0, #40]
 174 000c 8268     		ldr	r2, [r0, #8]
 464:/opt/XMClib/XMC_Peripheral_Library_v2.1.16/XMCLib/src/xmc_usbd.c **** 
 175              		.loc 1 464 0
 176 000e DFF8B4C0 		ldr	ip, .L25+4
 177 0012 06F00F07 		and	r7, r6, #15
 178 0016 07F16A01 		add	r1, r7, #106
 179              		.loc 1 466 0
 180 001a A3EB0E08 		sub	r8, r3, lr
 181 001e C2F31202 		ubfx	r2, r2, #0, #19
 464:/opt/XMClib/XMC_Peripheral_Library_v2.1.16/XMCLib/src/xmc_usbd.c **** 
 182              		.loc 1 464 0
 183 0022 5CF82110 		ldr	r1, [ip, r1, lsl #2]
 184              		.loc 1 466 0
 185 0026 9045     		cmp	r8, r2
 467:/opt/XMClib/XMC_Peripheral_Library_v2.1.16/XMCLib/src/xmc_usbd.c ****   {
 468:/opt/XMClib/XMC_Peripheral_Library_v2.1.16/XMCLib/src/xmc_usbd.c ****     ep->xferLength = ep->xferTotal;
 469:/opt/XMClib/XMC_Peripheral_Library_v2.1.16/XMCLib/src/xmc_usbd.c ****   }
 470:/opt/XMClib/XMC_Peripheral_Library_v2.1.16/XMCLib/src/xmc_usbd.c ****   else
 471:/opt/XMClib/XMC_Peripheral_Library_v2.1.16/XMCLib/src/xmc_usbd.c ****   {
 472:/opt/XMClib/XMC_Peripheral_Library_v2.1.16/XMCLib/src/xmc_usbd.c ****     ep->xferLength += ep->maxTransferSize;
 186              		.loc 1 472 0
 187 0028 28BF     		it	cs
 188 002a 0EEB0203 		addcs	r3, lr, r2
 464:/opt/XMClib/XMC_Peripheral_Library_v2.1.16/XMCLib/src/xmc_usbd.c **** 
 189              		.loc 1 464 0
 190 002e 0C68     		ldr	r4, [r1]
 191              	.LVL13:
 192              		.loc 1 472 0
 193 0030 8362     		str	r3, [r0, #40]
 463:/opt/XMClib/XMC_Peripheral_Library_v2.1.16/XMCLib/src/xmc_usbd.c ****   ctl.d32 = xmc_device.endpoint_in_register[ep->address_u.address_st.number]->diepctl;
 194              		.loc 1 463 0
 195 0032 0025     		movs	r5, #0
 196              	.LVL14:
 473:/opt/XMClib/XMC_Peripheral_Library_v2.1.16/XMCLib/src/xmc_usbd.c ****   }
 474:/opt/XMClib/XMC_Peripheral_Library_v2.1.16/XMCLib/src/xmc_usbd.c ****   if (ep->xferLength == 0U)
 197              		.loc 1 474 0
 198 0034 002B     		cmp	r3, #0
 199 0036 37D0     		beq	.L22
 200 0038 C26A     		ldr	r2, [r0, #44]
 201 003a 9B1A     		subs	r3, r3, r2
 475:/opt/XMClib/XMC_Peripheral_Library_v2.1.16/XMCLib/src/xmc_usbd.c ****   {
 476:/opt/XMClib/XMC_Peripheral_Library_v2.1.16/XMCLib/src/xmc_usbd.c ****     size.b.xfersize = 0U;
 477:/opt/XMClib/XMC_Peripheral_Library_v2.1.16/XMCLib/src/xmc_usbd.c ****     size.b.pktcnt = 1U;
 478:/opt/XMClib/XMC_Peripheral_Library_v2.1.16/XMCLib/src/xmc_usbd.c ****   }
 479:/opt/XMClib/XMC_Peripheral_Library_v2.1.16/XMCLib/src/xmc_usbd.c ****   else
 480:/opt/XMClib/XMC_Peripheral_Library_v2.1.16/XMCLib/src/xmc_usbd.c ****   {
 481:/opt/XMClib/XMC_Peripheral_Library_v2.1.16/XMCLib/src/xmc_usbd.c ****     if (ep->address_u.address_st.number == 0U)
 202              		.loc 1 481 0
 203 003c 3207     		lsls	r2, r6, #28
 204 003e C3F3120E 		ubfx	lr, r3, #0, #19
 205 0042 18D0     		beq	.L23
 482:/opt/XMClib/XMC_Peripheral_Library_v2.1.16/XMCLib/src/xmc_usbd.c ****     {
 483:/opt/XMClib/XMC_Peripheral_Library_v2.1.16/XMCLib/src/xmc_usbd.c ****       size.b.pktcnt = 1U;
 484:/opt/XMClib/XMC_Peripheral_Library_v2.1.16/XMCLib/src/xmc_usbd.c ****       /* ep->maxXferSize equals maxPacketSize */
 485:/opt/XMClib/XMC_Peripheral_Library_v2.1.16/XMCLib/src/xmc_usbd.c ****       size.b.xfersize = (uint32_t)(ep->xferLength - ep->xferCount);
 486:/opt/XMClib/XMC_Peripheral_Library_v2.1.16/XMCLib/src/xmc_usbd.c ****     }
 487:/opt/XMClib/XMC_Peripheral_Library_v2.1.16/XMCLib/src/xmc_usbd.c ****     else
 488:/opt/XMClib/XMC_Peripheral_Library_v2.1.16/XMCLib/src/xmc_usbd.c ****     {
 489:/opt/XMClib/XMC_Peripheral_Library_v2.1.16/XMCLib/src/xmc_usbd.c ****       size.b.xfersize =(uint32_t)(ep->xferLength - ep->xferCount);
 490:/opt/XMClib/XMC_Peripheral_Library_v2.1.16/XMCLib/src/xmc_usbd.c ****       size.b.pktcnt = (uint16_t)(((uint16_t)(ep->xferLength - ep->xferCount) + (uint16_t)((uint16_t
 206              		.loc 1 490 0
 207 0044 4268     		ldr	r2, [r0, #4]
 208 0046 C2F3C622 		ubfx	r2, r2, #11, #7
 209 004a 561E     		subs	r6, r2, #1
 489:/opt/XMClib/XMC_Peripheral_Library_v2.1.16/XMCLib/src/xmc_usbd.c ****       size.b.pktcnt = (uint16_t)(((uint16_t)(ep->xferLength - ep->xferCount) + (uint16_t)((uint16_t
 210              		.loc 1 489 0
 211 004c 6EF31205 		bfi	r5, lr, #0, #19
 212              	.LVL15:
 213              		.loc 1 490 0
 214 0050 B6B2     		uxth	r6, r6
 215 0052 16FA83F3 		uxtah	r3, r6, r3
 216 0056 93FBF2F3 		sdiv	r3, r3, r2
 217 005a 63F3DC45 		bfi	r5, r3, #19, #10
 491:/opt/XMClib/XMC_Peripheral_Library_v2.1.16/XMCLib/src/xmc_usbd.c ****     		 ep->maxPacketSize);
 492:/opt/XMClib/XMC_Peripheral_Library_v2.1.16/XMCLib/src/xmc_usbd.c ****     }
 493:/opt/XMClib/XMC_Peripheral_Library_v2.1.16/XMCLib/src/xmc_usbd.c ****     if(usbd_init->usbd_transfer_mode == XMC_USBD_USE_DMA)
 218              		.loc 1 493 0
 219 005e 184B     		ldr	r3, .L25
 220 0060 1B68     		ldr	r3, [r3]
 221 0062 5B7B     		ldrb	r3, [r3, #13]	@ zero_extendqisi2
 222 0064 8BB9     		cbnz	r3, .L19
 223              	.L24:
 494:/opt/XMClib/XMC_Peripheral_Library_v2.1.16/XMCLib/src/xmc_usbd.c ****     {
 495:/opt/XMClib/XMC_Peripheral_Library_v2.1.16/XMCLib/src/xmc_usbd.c ****       /* Program dma*/
 496:/opt/XMClib/XMC_Peripheral_Library_v2.1.16/XMCLib/src/xmc_usbd.c ****       xmc_device.endpoint_in_register[ep->address_u.address_st.number]->diepdma = (uint32_t)ep->xfe
 224              		.loc 1 496 0
 225 0066 436A     		ldr	r3, [r0, #36]
 226 0068 4B61     		str	r3, [r1, #20]
 227              	.L16:
 497:/opt/XMClib/XMC_Peripheral_Library_v2.1.16/XMCLib/src/xmc_usbd.c ****     }
 498:/opt/XMClib/XMC_Peripheral_Library_v2.1.16/XMCLib/src/xmc_usbd.c ****     if(usbd_init->usbd_transfer_mode == XMC_USBD_USE_FIFO)
 499:/opt/XMClib/XMC_Peripheral_Library_v2.1.16/XMCLib/src/xmc_usbd.c ****     {
 500:/opt/XMClib/XMC_Peripheral_Library_v2.1.16/XMCLib/src/xmc_usbd.c ****       /* enable fifo empty interrupt */
 501:/opt/XMClib/XMC_Peripheral_Library_v2.1.16/XMCLib/src/xmc_usbd.c **** 			xmc_device.device_register->dtknqr4_fifoemptymsk |= (uint32_t)((uint32_t)1U << (uint8_t)ep->addr
 502:/opt/XMClib/XMC_Peripheral_Library_v2.1.16/XMCLib/src/xmc_usbd.c ****     }
 503:/opt/XMClib/XMC_Peripheral_Library_v2.1.16/XMCLib/src/xmc_usbd.c ****   }
 504:/opt/XMClib/XMC_Peripheral_Library_v2.1.16/XMCLib/src/xmc_usbd.c **** 
 505:/opt/XMClib/XMC_Peripheral_Library_v2.1.16/XMCLib/src/xmc_usbd.c ****   /* Program size of transfer and enable endpoint */
 506:/opt/XMClib/XMC_Peripheral_Library_v2.1.16/XMCLib/src/xmc_usbd.c ****   xmc_device.endpoint_in_register[ep->address_u.address_st.number]->dieptsiz = size.d32;
 507:/opt/XMClib/XMC_Peripheral_Library_v2.1.16/XMCLib/src/xmc_usbd.c ****   ctl.b.epena = 1U;
 508:/opt/XMClib/XMC_Peripheral_Library_v2.1.16/XMCLib/src/xmc_usbd.c ****   ctl.b.cnak = 1U;
 228              		.loc 1 508 0
 229 006a 44F00444 		orr	r4, r4, #-2080374784
 230              	.LVL16:
 506:/opt/XMClib/XMC_Peripheral_Library_v2.1.16/XMCLib/src/xmc_usbd.c ****   ctl.b.epena = 1U;
 231              		.loc 1 506 0
 232 006e 0D61     		str	r5, [r1, #16]
 233              	.LVL17:
 509:/opt/XMClib/XMC_Peripheral_Library_v2.1.16/XMCLib/src/xmc_usbd.c ****   xmc_device.endpoint_in_register[ep->address_u.address_st.number]->diepctl = ctl.d32;
 234              		.loc 1 509 0
 235 0070 0C60     		str	r4, [r1]
 510:/opt/XMClib/XMC_Peripheral_Library_v2.1.16/XMCLib/src/xmc_usbd.c **** }
 236              		.loc 1 510 0
 237 0072 BDE8F081 		pop	{r4, r5, r6, r7, r8, pc}
 238              	.LVL18:
 239              	.L23:
 483:/opt/XMClib/XMC_Peripheral_Library_v2.1.16/XMCLib/src/xmc_usbd.c ****       /* ep->maxXferSize equals maxPacketSize */
 240              		.loc 1 483 0
 241 0076 0123     		movs	r3, #1
 242 0078 63F3DC45 		bfi	r5, r3, #19, #10
 243              	.LVL19:
 493:/opt/XMClib/XMC_Peripheral_Library_v2.1.16/XMCLib/src/xmc_usbd.c ****     {
 244              		.loc 1 493 0
 245 007c 104B     		ldr	r3, .L25
 246 007e 1B68     		ldr	r3, [r3]
 247 0080 5B7B     		ldrb	r3, [r3, #13]	@ zero_extendqisi2
 485:/opt/XMClib/XMC_Peripheral_Library_v2.1.16/XMCLib/src/xmc_usbd.c ****     }
 248              		.loc 1 485 0
 249 0082 6EF31205 		bfi	r5, lr, #0, #19
 493:/opt/XMClib/XMC_Peripheral_Library_v2.1.16/XMCLib/src/xmc_usbd.c ****     {
 250              		.loc 1 493 0
 251 0086 002B     		cmp	r3, #0
 252 0088 EDD0     		beq	.L24
 253              	.L19:
 498:/opt/XMClib/XMC_Peripheral_Library_v2.1.16/XMCLib/src/xmc_usbd.c ****     {
 254              		.loc 1 498 0
 255 008a 012B     		cmp	r3, #1
 256 008c EDD1     		bne	.L16
 501:/opt/XMClib/XMC_Peripheral_Library_v2.1.16/XMCLib/src/xmc_usbd.c ****     }
 257              		.loc 1 501 0
 258 008e DCF8A421 		ldr	r2, [ip, #420]
 259 0092 506B     		ldr	r0, [r2, #52]
 260              	.LVL20:
 261 0094 03FA07F7 		lsl	r7, r3, r7
 262 0098 0743     		orrs	r7, r7, r0
 508:/opt/XMClib/XMC_Peripheral_Library_v2.1.16/XMCLib/src/xmc_usbd.c ****   xmc_device.endpoint_in_register[ep->address_u.address_st.number]->diepctl = ctl.d32;
 263              		.loc 1 508 0
 264 009a 44F00444 		orr	r4, r4, #-2080374784
 265              	.LVL21:
 501:/opt/XMClib/XMC_Peripheral_Library_v2.1.16/XMCLib/src/xmc_usbd.c ****     }
 266              		.loc 1 501 0
 267 009e 5763     		str	r7, [r2, #52]
 506:/opt/XMClib/XMC_Peripheral_Library_v2.1.16/XMCLib/src/xmc_usbd.c ****   ctl.b.epena = 1U;
 268              		.loc 1 506 0
 269 00a0 0D61     		str	r5, [r1, #16]
 270              	.LVL22:
 509:/opt/XMClib/XMC_Peripheral_Library_v2.1.16/XMCLib/src/xmc_usbd.c **** }
 271              		.loc 1 509 0
 272 00a2 0C60     		str	r4, [r1]
 273              		.loc 1 510 0
 274 00a4 BDE8F081 		pop	{r4, r5, r6, r7, r8, pc}
 275              	.LVL23:
 276              	.L22:
 476:/opt/XMClib/XMC_Peripheral_Library_v2.1.16/XMCLib/src/xmc_usbd.c ****     size.b.pktcnt = 1U;
 277              		.loc 1 476 0
 278 00a8 63F31205 		bfi	r5, r3, #0, #19
 279              	.LVL24:
 477:/opt/XMClib/XMC_Peripheral_Library_v2.1.16/XMCLib/src/xmc_usbd.c ****   }
 280              		.loc 1 477 0
 281 00ac 0123     		movs	r3, #1
 282 00ae 63F3DC45 		bfi	r5, r3, #19, #10
 508:/opt/XMClib/XMC_Peripheral_Library_v2.1.16/XMCLib/src/xmc_usbd.c ****   xmc_device.endpoint_in_register[ep->address_u.address_st.number]->diepctl = ctl.d32;
 283              		.loc 1 508 0
 284 00b2 44F00444 		orr	r4, r4, #-2080374784
 285              	.LVL25:
 506:/opt/XMClib/XMC_Peripheral_Library_v2.1.16/XMCLib/src/xmc_usbd.c ****   ctl.b.epena = 1U;
 286              		.loc 1 506 0
 287 00b6 0D61     		str	r5, [r1, #16]
 288              	.LVL26:
 509:/opt/XMClib/XMC_Peripheral_Library_v2.1.16/XMCLib/src/xmc_usbd.c **** }
 289              		.loc 1 509 0
 290 00b8 0C60     		str	r4, [r1]
 291              		.loc 1 510 0
 292 00ba BDE8F081 		pop	{r4, r5, r6, r7, r8, pc}
 293              	.LVL27:
 294              	.L26:
 295 00be 00BF     		.align	2
 296              	.L25:
 297 00c0 00000000 		.word	usbd_init
 298 00c4 00000000 		.word	xmc_device
 299              		.cfi_endproc
 300              	.LFE170:
 302              		.section	.text.XMC_USBD_GetCapabilities,"ax",%progbits
 303              		.align	1
 304              		.p2align 2,,3
 305              		.global	XMC_USBD_GetCapabilities
 306              		.syntax unified
 307              		.thumb
 308              		.thumb_func
 309              		.fpu fpv4-sp-d16
 311              	XMC_USBD_GetCapabilities:
 312              	.LFB186:
 511:/opt/XMClib/XMC_Peripheral_Library_v2.1.16/XMCLib/src/xmc_usbd.c **** 
 512:/opt/XMClib/XMC_Peripheral_Library_v2.1.16/XMCLib/src/xmc_usbd.c **** 
 513:/opt/XMClib/XMC_Peripheral_Library_v2.1.16/XMCLib/src/xmc_usbd.c **** /**
 514:/opt/XMClib/XMC_Peripheral_Library_v2.1.16/XMCLib/src/xmc_usbd.c ****  * @brief Handles the USBD reset interrupt
 515:/opt/XMClib/XMC_Peripheral_Library_v2.1.16/XMCLib/src/xmc_usbd.c ****  *
 516:/opt/XMClib/XMC_Peripheral_Library_v2.1.16/XMCLib/src/xmc_usbd.c ****  * When ever the host sets the bus into reset condition the usb otg_core generates
 517:/opt/XMClib/XMC_Peripheral_Library_v2.1.16/XMCLib/src/xmc_usbd.c ****  * an interrupt, which is handled by this function. It resets the complete otg_core
 518:/opt/XMClib/XMC_Peripheral_Library_v2.1.16/XMCLib/src/xmc_usbd.c ****  * into the default state.
 519:/opt/XMClib/XMC_Peripheral_Library_v2.1.16/XMCLib/src/xmc_usbd.c ****  */
 520:/opt/XMClib/XMC_Peripheral_Library_v2.1.16/XMCLib/src/xmc_usbd.c **** static void XMC_USBD_lHandleUSBReset(const XMC_USBD_t *const obj) 
 521:/opt/XMClib/XMC_Peripheral_Library_v2.1.16/XMCLib/src/xmc_usbd.c **** {
 522:/opt/XMClib/XMC_Peripheral_Library_v2.1.16/XMCLib/src/xmc_usbd.c ****   uint32_t i;
 523:/opt/XMClib/XMC_Peripheral_Library_v2.1.16/XMCLib/src/xmc_usbd.c ****   depctl_data_t epctl;
 524:/opt/XMClib/XMC_Peripheral_Library_v2.1.16/XMCLib/src/xmc_usbd.c ****   dctl_data_t dctl;
 525:/opt/XMClib/XMC_Peripheral_Library_v2.1.16/XMCLib/src/xmc_usbd.c ****   fifosize_data_t gnptxfsiz;
 526:/opt/XMClib/XMC_Peripheral_Library_v2.1.16/XMCLib/src/xmc_usbd.c ****   daint_data_t daint;
 527:/opt/XMClib/XMC_Peripheral_Library_v2.1.16/XMCLib/src/xmc_usbd.c ****   dcfg_data_t dcfg;
 528:/opt/XMClib/XMC_Peripheral_Library_v2.1.16/XMCLib/src/xmc_usbd.c **** 	
 529:/opt/XMClib/XMC_Peripheral_Library_v2.1.16/XMCLib/src/xmc_usbd.c ****   /* Clear the Remote Wakeup Signaling */
 530:/opt/XMClib/XMC_Peripheral_Library_v2.1.16/XMCLib/src/xmc_usbd.c ****   dctl.d32 = xmc_device.device_register->dctl;
 531:/opt/XMClib/XMC_Peripheral_Library_v2.1.16/XMCLib/src/xmc_usbd.c ****   dctl.b.rmtwkupsig = 1U;
 532:/opt/XMClib/XMC_Peripheral_Library_v2.1.16/XMCLib/src/xmc_usbd.c ****   xmc_device.device_register->dctl = dctl.d32;
 533:/opt/XMClib/XMC_Peripheral_Library_v2.1.16/XMCLib/src/xmc_usbd.c **** 
 534:/opt/XMClib/XMC_Peripheral_Library_v2.1.16/XMCLib/src/xmc_usbd.c ****   /* enable naks for all eps */
 535:/opt/XMClib/XMC_Peripheral_Library_v2.1.16/XMCLib/src/xmc_usbd.c ****   for (i = 0U;i < (uint8_t)XMC_USBD_NUM_EPS;i++)
 536:/opt/XMClib/XMC_Peripheral_Library_v2.1.16/XMCLib/src/xmc_usbd.c ****   {
 537:/opt/XMClib/XMC_Peripheral_Library_v2.1.16/XMCLib/src/xmc_usbd.c ****     epctl.d32 = xmc_device.endpoint_out_register[i]->doepctl;
 538:/opt/XMClib/XMC_Peripheral_Library_v2.1.16/XMCLib/src/xmc_usbd.c **** 		epctl.b.snak = 1U;
 539:/opt/XMClib/XMC_Peripheral_Library_v2.1.16/XMCLib/src/xmc_usbd.c **** 		epctl.b.stall = 0U;
 540:/opt/XMClib/XMC_Peripheral_Library_v2.1.16/XMCLib/src/xmc_usbd.c **** 		xmc_device.endpoint_out_register[i]->doepctl = epctl.d32;
 541:/opt/XMClib/XMC_Peripheral_Library_v2.1.16/XMCLib/src/xmc_usbd.c ****   }
 542:/opt/XMClib/XMC_Peripheral_Library_v2.1.16/XMCLib/src/xmc_usbd.c **** 
 543:/opt/XMClib/XMC_Peripheral_Library_v2.1.16/XMCLib/src/xmc_usbd.c ****   /* Configure fifos */
 544:/opt/XMClib/XMC_Peripheral_Library_v2.1.16/XMCLib/src/xmc_usbd.c ****   /* Calculate the size of the rx fifo */
 545:/opt/XMClib/XMC_Peripheral_Library_v2.1.16/XMCLib/src/xmc_usbd.c ****   xmc_device.global_register->grxfsiz = 64U;
 546:/opt/XMClib/XMC_Peripheral_Library_v2.1.16/XMCLib/src/xmc_usbd.c ****   /* Calculate the size of the tx fifo for ep 0 */  
 547:/opt/XMClib/XMC_Peripheral_Library_v2.1.16/XMCLib/src/xmc_usbd.c ****   gnptxfsiz.d32 = 0U;
 548:/opt/XMClib/XMC_Peripheral_Library_v2.1.16/XMCLib/src/xmc_usbd.c ****   gnptxfsiz.b.depth = 16U;
 549:/opt/XMClib/XMC_Peripheral_Library_v2.1.16/XMCLib/src/xmc_usbd.c ****   gnptxfsiz.b.startaddr = 64U;
 550:/opt/XMClib/XMC_Peripheral_Library_v2.1.16/XMCLib/src/xmc_usbd.c ****   xmc_device.global_register->gnptxfsiz = gnptxfsiz.d32;
 551:/opt/XMClib/XMC_Peripheral_Library_v2.1.16/XMCLib/src/xmc_usbd.c ****   /* calculate the size for the rest */
 552:/opt/XMClib/XMC_Peripheral_Library_v2.1.16/XMCLib/src/xmc_usbd.c ****   for (i = 1U;i < (uint8_t)XMC_USBD_NUM_TX_FIFOS;i++)
 553:/opt/XMClib/XMC_Peripheral_Library_v2.1.16/XMCLib/src/xmc_usbd.c ****   {
 554:/opt/XMClib/XMC_Peripheral_Library_v2.1.16/XMCLib/src/xmc_usbd.c ****     xmc_device.global_register->dtxfsiz[i- 1U] = (uint32_t)(((256U + (i*(64U)))/4U) | ((uint32_t)16
 555:/opt/XMClib/XMC_Peripheral_Library_v2.1.16/XMCLib/src/xmc_usbd.c ****   }
 556:/opt/XMClib/XMC_Peripheral_Library_v2.1.16/XMCLib/src/xmc_usbd.c **** 
 557:/opt/XMClib/XMC_Peripheral_Library_v2.1.16/XMCLib/src/xmc_usbd.c ****   /* flush the fifos for proper operation */
 558:/opt/XMClib/XMC_Peripheral_Library_v2.1.16/XMCLib/src/xmc_usbd.c ****   XMC_USBD_lFlushTXFifo(0x10U); /* 0x10 == all fifos, see doc */
 559:/opt/XMClib/XMC_Peripheral_Library_v2.1.16/XMCLib/src/xmc_usbd.c ****   XMC_USBD_lFlushTXFifo(0x0U);
 560:/opt/XMClib/XMC_Peripheral_Library_v2.1.16/XMCLib/src/xmc_usbd.c ****   XMC_USBD_lFlushRXFifo();
 561:/opt/XMClib/XMC_Peripheral_Library_v2.1.16/XMCLib/src/xmc_usbd.c ****   /* Flush learning queue not needed due to fifo config */
 562:/opt/XMClib/XMC_Peripheral_Library_v2.1.16/XMCLib/src/xmc_usbd.c ****   /* enable ep0 interrupts */  
 563:/opt/XMClib/XMC_Peripheral_Library_v2.1.16/XMCLib/src/xmc_usbd.c ****   daint.d32 = 0U;
 564:/opt/XMClib/XMC_Peripheral_Library_v2.1.16/XMCLib/src/xmc_usbd.c ****   daint.b.inep0 = 1U;
 565:/opt/XMClib/XMC_Peripheral_Library_v2.1.16/XMCLib/src/xmc_usbd.c ****   daint.b.outep0 = 1U;
 566:/opt/XMClib/XMC_Peripheral_Library_v2.1.16/XMCLib/src/xmc_usbd.c ****   xmc_device.device_register->daintmsk = daint.d32;
 567:/opt/XMClib/XMC_Peripheral_Library_v2.1.16/XMCLib/src/xmc_usbd.c **** 
 568:/opt/XMClib/XMC_Peripheral_Library_v2.1.16/XMCLib/src/xmc_usbd.c ****   /* enable endpoint interrupts */
 569:/opt/XMClib/XMC_Peripheral_Library_v2.1.16/XMCLib/src/xmc_usbd.c ****   /* out ep interrupts */
 570:/opt/XMClib/XMC_Peripheral_Library_v2.1.16/XMCLib/src/xmc_usbd.c ****   XMC_USBD_EnableEventOUTEP(((uint32_t)XMC_USBD_EVENT_OUT_EP_TX_COMPLET | (uint32_t)XMC_USBD_EVENT_
 571:/opt/XMClib/XMC_Peripheral_Library_v2.1.16/XMCLib/src/xmc_usbd.c **** 		  	  	  	  	  	  (uint32_t)XMC_USBD_EVENT_OUT_EP_SETUP | (uint32_t)XMC_USBD_EVENT_OUT_EP_AHB_ERRO
 572:/opt/XMClib/XMC_Peripheral_Library_v2.1.16/XMCLib/src/xmc_usbd.c **** 
 573:/opt/XMClib/XMC_Peripheral_Library_v2.1.16/XMCLib/src/xmc_usbd.c ****   /*in ep interrupts */
 574:/opt/XMClib/XMC_Peripheral_Library_v2.1.16/XMCLib/src/xmc_usbd.c ****   XMC_USBD_EnableEventINEP(((uint32_t)XMC_USBD_EVENT_IN_EP_TX_COMPLET | (uint32_t)XMC_USBD_EVENT_IN
 575:/opt/XMClib/XMC_Peripheral_Library_v2.1.16/XMCLib/src/xmc_usbd.c **** 		  (uint32_t)XMC_USBD_EVENT_IN_EP_AHB_ERROR | (uint32_t)XMC_USBD_EVENT_IN_EP_TIMEOUT));
 576:/opt/XMClib/XMC_Peripheral_Library_v2.1.16/XMCLib/src/xmc_usbd.c **** 
 577:/opt/XMClib/XMC_Peripheral_Library_v2.1.16/XMCLib/src/xmc_usbd.c **** 
 578:/opt/XMClib/XMC_Peripheral_Library_v2.1.16/XMCLib/src/xmc_usbd.c ****   /* Clear device Address */  
 579:/opt/XMClib/XMC_Peripheral_Library_v2.1.16/XMCLib/src/xmc_usbd.c ****   dcfg.d32 = xmc_device.device_register->dcfg;
 580:/opt/XMClib/XMC_Peripheral_Library_v2.1.16/XMCLib/src/xmc_usbd.c ****   dcfg.b.devaddr = 0U;
 581:/opt/XMClib/XMC_Peripheral_Library_v2.1.16/XMCLib/src/xmc_usbd.c ****   xmc_device.device_register->dcfg = dcfg.d32;
 582:/opt/XMClib/XMC_Peripheral_Library_v2.1.16/XMCLib/src/xmc_usbd.c **** 
 583:/opt/XMClib/XMC_Peripheral_Library_v2.1.16/XMCLib/src/xmc_usbd.c ****   if(obj->usbd_transfer_mode == XMC_USBD_USE_FIFO)
 584:/opt/XMClib/XMC_Peripheral_Library_v2.1.16/XMCLib/src/xmc_usbd.c ****   {
 585:/opt/XMClib/XMC_Peripheral_Library_v2.1.16/XMCLib/src/xmc_usbd.c ****     /* Clear Empty interrupt */
 586:/opt/XMClib/XMC_Peripheral_Library_v2.1.16/XMCLib/src/xmc_usbd.c ****     xmc_device.device_register->dtknqr4_fifoemptymsk = 0U;
 587:/opt/XMClib/XMC_Peripheral_Library_v2.1.16/XMCLib/src/xmc_usbd.c ****   }
 588:/opt/XMClib/XMC_Peripheral_Library_v2.1.16/XMCLib/src/xmc_usbd.c **** 
 589:/opt/XMClib/XMC_Peripheral_Library_v2.1.16/XMCLib/src/xmc_usbd.c ****   xmc_device.ep[0U].outInUse = 0U;
 590:/opt/XMClib/XMC_Peripheral_Library_v2.1.16/XMCLib/src/xmc_usbd.c ****   xmc_device.ep[0U].inInUse = 0U;
 591:/opt/XMClib/XMC_Peripheral_Library_v2.1.16/XMCLib/src/xmc_usbd.c **** 
 592:/opt/XMClib/XMC_Peripheral_Library_v2.1.16/XMCLib/src/xmc_usbd.c ****   xmc_device.DeviceEvent_cb(XMC_USBD_EVENT_RESET);
 593:/opt/XMClib/XMC_Peripheral_Library_v2.1.16/XMCLib/src/xmc_usbd.c **** 
 594:/opt/XMClib/XMC_Peripheral_Library_v2.1.16/XMCLib/src/xmc_usbd.c ****   /* clear reset intr */
 595:/opt/XMClib/XMC_Peripheral_Library_v2.1.16/XMCLib/src/xmc_usbd.c ****   XMC_USBD_ClearEvent(XMC_USBD_EVENT_RESET);
 596:/opt/XMClib/XMC_Peripheral_Library_v2.1.16/XMCLib/src/xmc_usbd.c **** }
 597:/opt/XMClib/XMC_Peripheral_Library_v2.1.16/XMCLib/src/xmc_usbd.c **** 
 598:/opt/XMClib/XMC_Peripheral_Library_v2.1.16/XMCLib/src/xmc_usbd.c **** /**
 599:/opt/XMClib/XMC_Peripheral_Library_v2.1.16/XMCLib/src/xmc_usbd.c **** * @brief Handle OTG Interrupt
 600:/opt/XMClib/XMC_Peripheral_Library_v2.1.16/XMCLib/src/xmc_usbd.c **** *
 601:/opt/XMClib/XMC_Peripheral_Library_v2.1.16/XMCLib/src/xmc_usbd.c **** * It detects especially connect and disconnect events.
 602:/opt/XMClib/XMC_Peripheral_Library_v2.1.16/XMCLib/src/xmc_usbd.c **** */
 603:/opt/XMClib/XMC_Peripheral_Library_v2.1.16/XMCLib/src/xmc_usbd.c **** static void XMC_USBD_lHandleOTGInt(void) 
 604:/opt/XMClib/XMC_Peripheral_Library_v2.1.16/XMCLib/src/xmc_usbd.c **** {
 605:/opt/XMClib/XMC_Peripheral_Library_v2.1.16/XMCLib/src/xmc_usbd.c ****   gotgint_data_t data;
 606:/opt/XMClib/XMC_Peripheral_Library_v2.1.16/XMCLib/src/xmc_usbd.c ****   data.d32 = xmc_device.global_register->gotgint;
 607:/opt/XMClib/XMC_Peripheral_Library_v2.1.16/XMCLib/src/xmc_usbd.c ****   if (data.b.sesenddet)
 608:/opt/XMClib/XMC_Peripheral_Library_v2.1.16/XMCLib/src/xmc_usbd.c ****   {
 609:/opt/XMClib/XMC_Peripheral_Library_v2.1.16/XMCLib/src/xmc_usbd.c **** 		xmc_device.IsPowered = 0U;
 610:/opt/XMClib/XMC_Peripheral_Library_v2.1.16/XMCLib/src/xmc_usbd.c **** 		xmc_device.DeviceEvent_cb(XMC_USBD_EVENT_POWER_OFF);
 611:/opt/XMClib/XMC_Peripheral_Library_v2.1.16/XMCLib/src/xmc_usbd.c ****   }
 612:/opt/XMClib/XMC_Peripheral_Library_v2.1.16/XMCLib/src/xmc_usbd.c ****   XMC_USBD_lClearEventOTG(data.d32);
 613:/opt/XMClib/XMC_Peripheral_Library_v2.1.16/XMCLib/src/xmc_usbd.c **** 
 614:/opt/XMClib/XMC_Peripheral_Library_v2.1.16/XMCLib/src/xmc_usbd.c **** }
 615:/opt/XMClib/XMC_Peripheral_Library_v2.1.16/XMCLib/src/xmc_usbd.c **** 
 616:/opt/XMClib/XMC_Peripheral_Library_v2.1.16/XMCLib/src/xmc_usbd.c **** /**
 617:/opt/XMClib/XMC_Peripheral_Library_v2.1.16/XMCLib/src/xmc_usbd.c ****  * @brief Interrupt handler for device enumeration done.
 618:/opt/XMClib/XMC_Peripheral_Library_v2.1.16/XMCLib/src/xmc_usbd.c ****  *
 619:/opt/XMClib/XMC_Peripheral_Library_v2.1.16/XMCLib/src/xmc_usbd.c ****  * Handles the enumeration done from dwc_otg, when the host has enumerated the device.
 620:/opt/XMClib/XMC_Peripheral_Library_v2.1.16/XMCLib/src/xmc_usbd.c ****  */
 621:/opt/XMClib/XMC_Peripheral_Library_v2.1.16/XMCLib/src/xmc_usbd.c **** static void XMC_USBD_lHandleEnumDone(void) 
 622:/opt/XMClib/XMC_Peripheral_Library_v2.1.16/XMCLib/src/xmc_usbd.c **** {
 623:/opt/XMClib/XMC_Peripheral_Library_v2.1.16/XMCLib/src/xmc_usbd.c ****   /* Normaly we need to check dctl
 624:/opt/XMClib/XMC_Peripheral_Library_v2.1.16/XMCLib/src/xmc_usbd.c ****    * We are always fullspeed, so max it up. */
 625:/opt/XMClib/XMC_Peripheral_Library_v2.1.16/XMCLib/src/xmc_usbd.c ****   depctl_data_t epctl;
 626:/opt/XMClib/XMC_Peripheral_Library_v2.1.16/XMCLib/src/xmc_usbd.c ****   gusbcfg_data_t gusbcfg;
 627:/opt/XMClib/XMC_Peripheral_Library_v2.1.16/XMCLib/src/xmc_usbd.c **** 	
 628:/opt/XMClib/XMC_Peripheral_Library_v2.1.16/XMCLib/src/xmc_usbd.c ****   epctl.d32=xmc_device.endpoint_in_register[0U]->diepctl;
 629:/opt/XMClib/XMC_Peripheral_Library_v2.1.16/XMCLib/src/xmc_usbd.c ****   epctl.b.mps = 0x00U; /* 64 Byte, this is also automatically set for out ep */
 630:/opt/XMClib/XMC_Peripheral_Library_v2.1.16/XMCLib/src/xmc_usbd.c ****   xmc_device.endpoint_in_register[0U]->diepctl = epctl.d32;
 631:/opt/XMClib/XMC_Peripheral_Library_v2.1.16/XMCLib/src/xmc_usbd.c **** 
 632:/opt/XMClib/XMC_Peripheral_Library_v2.1.16/XMCLib/src/xmc_usbd.c ****   /* update device connected flag */
 633:/opt/XMClib/XMC_Peripheral_Library_v2.1.16/XMCLib/src/xmc_usbd.c ****   xmc_device.IsConnected = 1U;
 634:/opt/XMClib/XMC_Peripheral_Library_v2.1.16/XMCLib/src/xmc_usbd.c ****   xmc_device.IsPowered = 1U;
 635:/opt/XMClib/XMC_Peripheral_Library_v2.1.16/XMCLib/src/xmc_usbd.c **** 
 636:/opt/XMClib/XMC_Peripheral_Library_v2.1.16/XMCLib/src/xmc_usbd.c ****   xmc_device.DeviceEvent_cb(XMC_USBD_EVENT_CONNECT);
 637:/opt/XMClib/XMC_Peripheral_Library_v2.1.16/XMCLib/src/xmc_usbd.c **** 
 638:/opt/XMClib/XMC_Peripheral_Library_v2.1.16/XMCLib/src/xmc_usbd.c ****   /* Set Trim */  
 639:/opt/XMClib/XMC_Peripheral_Library_v2.1.16/XMCLib/src/xmc_usbd.c ****   gusbcfg.d32 = xmc_device.global_register->gusbcfg;
 640:/opt/XMClib/XMC_Peripheral_Library_v2.1.16/XMCLib/src/xmc_usbd.c ****   gusbcfg.b.usbtrdtim = 9U; /* default value for LS/FS */
 641:/opt/XMClib/XMC_Peripheral_Library_v2.1.16/XMCLib/src/xmc_usbd.c ****   xmc_device.global_register->gusbcfg = gusbcfg.d32;
 642:/opt/XMClib/XMC_Peripheral_Library_v2.1.16/XMCLib/src/xmc_usbd.c **** 
 643:/opt/XMClib/XMC_Peripheral_Library_v2.1.16/XMCLib/src/xmc_usbd.c ****   /* clear interrupt */
 644:/opt/XMClib/XMC_Peripheral_Library_v2.1.16/XMCLib/src/xmc_usbd.c ****   XMC_USBD_ClearEvent(XMC_USBD_EVENT_ENUMDONE);
 645:/opt/XMClib/XMC_Peripheral_Library_v2.1.16/XMCLib/src/xmc_usbd.c **** }
 646:/opt/XMClib/XMC_Peripheral_Library_v2.1.16/XMCLib/src/xmc_usbd.c **** 
 647:/opt/XMClib/XMC_Peripheral_Library_v2.1.16/XMCLib/src/xmc_usbd.c **** 
 648:/opt/XMClib/XMC_Peripheral_Library_v2.1.16/XMCLib/src/xmc_usbd.c **** /**
 649:/opt/XMClib/XMC_Peripheral_Library_v2.1.16/XMCLib/src/xmc_usbd.c ****  * @brief Handles all interrupts for all out endpoints
 650:/opt/XMClib/XMC_Peripheral_Library_v2.1.16/XMCLib/src/xmc_usbd.c ****  *
 651:/opt/XMClib/XMC_Peripheral_Library_v2.1.16/XMCLib/src/xmc_usbd.c ****  * The interrupt handler first checks, which endpoint has caused the interrupt and then
 652:/opt/XMClib/XMC_Peripheral_Library_v2.1.16/XMCLib/src/xmc_usbd.c ****  * determines, which interrupt should be handled.
 653:/opt/XMClib/XMC_Peripheral_Library_v2.1.16/XMCLib/src/xmc_usbd.c ****  */
 654:/opt/XMClib/XMC_Peripheral_Library_v2.1.16/XMCLib/src/xmc_usbd.c **** static void XMC_USBD_lHandleOEPInt(const XMC_USBD_t *const obj) 
 655:/opt/XMClib/XMC_Peripheral_Library_v2.1.16/XMCLib/src/xmc_usbd.c **** {
 656:/opt/XMClib/XMC_Peripheral_Library_v2.1.16/XMCLib/src/xmc_usbd.c ****   daint_data_t daint;
 657:/opt/XMClib/XMC_Peripheral_Library_v2.1.16/XMCLib/src/xmc_usbd.c ****   daint_data_t daintmsk;
 658:/opt/XMClib/XMC_Peripheral_Library_v2.1.16/XMCLib/src/xmc_usbd.c ****   doepmsk_data_t doepmsk;
 659:/opt/XMClib/XMC_Peripheral_Library_v2.1.16/XMCLib/src/xmc_usbd.c ****   doepint_data_t doepint;
 660:/opt/XMClib/XMC_Peripheral_Library_v2.1.16/XMCLib/src/xmc_usbd.c ****   deptsiz_data_t doeptsiz;
 661:/opt/XMClib/XMC_Peripheral_Library_v2.1.16/XMCLib/src/xmc_usbd.c ****   XMC_USBD_EP_t *ep;
 662:/opt/XMClib/XMC_Peripheral_Library_v2.1.16/XMCLib/src/xmc_usbd.c ****   uint16_t temp;
 663:/opt/XMClib/XMC_Peripheral_Library_v2.1.16/XMCLib/src/xmc_usbd.c ****   uint16_t temp1;
 664:/opt/XMClib/XMC_Peripheral_Library_v2.1.16/XMCLib/src/xmc_usbd.c ****   uint16_t mask;
 665:/opt/XMClib/XMC_Peripheral_Library_v2.1.16/XMCLib/src/xmc_usbd.c ****   uint8_t ep_num;
 666:/opt/XMClib/XMC_Peripheral_Library_v2.1.16/XMCLib/src/xmc_usbd.c **** 	
 667:/opt/XMClib/XMC_Peripheral_Library_v2.1.16/XMCLib/src/xmc_usbd.c ****   daint.d32 = xmc_device.device_register->daint;
 668:/opt/XMClib/XMC_Peripheral_Library_v2.1.16/XMCLib/src/xmc_usbd.c ****   
 669:/opt/XMClib/XMC_Peripheral_Library_v2.1.16/XMCLib/src/xmc_usbd.c ****   daintmsk.d32 = xmc_device.device_register->daintmsk;
 670:/opt/XMClib/XMC_Peripheral_Library_v2.1.16/XMCLib/src/xmc_usbd.c ****   
 671:/opt/XMClib/XMC_Peripheral_Library_v2.1.16/XMCLib/src/xmc_usbd.c ****   doepmsk.d32 = xmc_device.device_register->doepmsk;  
 672:/opt/XMClib/XMC_Peripheral_Library_v2.1.16/XMCLib/src/xmc_usbd.c ****   
 673:/opt/XMClib/XMC_Peripheral_Library_v2.1.16/XMCLib/src/xmc_usbd.c ****   mask = daint.ep.out & daintmsk.ep.out;
 674:/opt/XMClib/XMC_Peripheral_Library_v2.1.16/XMCLib/src/xmc_usbd.c ****   ep_num = 0U;
 675:/opt/XMClib/XMC_Peripheral_Library_v2.1.16/XMCLib/src/xmc_usbd.c ****   doeptsiz.d32 = 0U;
 676:/opt/XMClib/XMC_Peripheral_Library_v2.1.16/XMCLib/src/xmc_usbd.c ****  
 677:/opt/XMClib/XMC_Peripheral_Library_v2.1.16/XMCLib/src/xmc_usbd.c ****   while ((uint16_t)mask >> ep_num)
 678:/opt/XMClib/XMC_Peripheral_Library_v2.1.16/XMCLib/src/xmc_usbd.c ****   {
 679:/opt/XMClib/XMC_Peripheral_Library_v2.1.16/XMCLib/src/xmc_usbd.c ****     temp1 = (mask >> (uint16_t)ep_num);
 680:/opt/XMClib/XMC_Peripheral_Library_v2.1.16/XMCLib/src/xmc_usbd.c ****     temp = temp1 & 0x1U;
 681:/opt/XMClib/XMC_Peripheral_Library_v2.1.16/XMCLib/src/xmc_usbd.c ****     if (temp)
 682:/opt/XMClib/XMC_Peripheral_Library_v2.1.16/XMCLib/src/xmc_usbd.c ****     {
 683:/opt/XMClib/XMC_Peripheral_Library_v2.1.16/XMCLib/src/xmc_usbd.c ****       /* load register data for endpoint */
 684:/opt/XMClib/XMC_Peripheral_Library_v2.1.16/XMCLib/src/xmc_usbd.c ****       ep = &xmc_device.ep[ep_num];
 685:/opt/XMClib/XMC_Peripheral_Library_v2.1.16/XMCLib/src/xmc_usbd.c ****       doepint.d32 = xmc_device.endpoint_out_register[ep_num]->doepint & doepmsk.d32;
 686:/opt/XMClib/XMC_Peripheral_Library_v2.1.16/XMCLib/src/xmc_usbd.c ****       if(obj->usbd_transfer_mode == XMC_USBD_USE_DMA)
 687:/opt/XMClib/XMC_Peripheral_Library_v2.1.16/XMCLib/src/xmc_usbd.c ****       {
 688:/opt/XMClib/XMC_Peripheral_Library_v2.1.16/XMCLib/src/xmc_usbd.c ****         doeptsiz.d32 = xmc_device.endpoint_out_register[ep_num]->doeptsiz;
 689:/opt/XMClib/XMC_Peripheral_Library_v2.1.16/XMCLib/src/xmc_usbd.c ****       }
 690:/opt/XMClib/XMC_Peripheral_Library_v2.1.16/XMCLib/src/xmc_usbd.c **** 	  /* Setup Phase Complete */
 691:/opt/XMClib/XMC_Peripheral_Library_v2.1.16/XMCLib/src/xmc_usbd.c ****       if (doepint.b.setup)
 692:/opt/XMClib/XMC_Peripheral_Library_v2.1.16/XMCLib/src/xmc_usbd.c ****       {
 693:/opt/XMClib/XMC_Peripheral_Library_v2.1.16/XMCLib/src/xmc_usbd.c ****         /* ep0 not stalled any more */
 694:/opt/XMClib/XMC_Peripheral_Library_v2.1.16/XMCLib/src/xmc_usbd.c ****         ep->isStalled = 0U;
 695:/opt/XMClib/XMC_Peripheral_Library_v2.1.16/XMCLib/src/xmc_usbd.c ****         if(obj->usbd_transfer_mode == XMC_USBD_USE_DMA)
 696:/opt/XMClib/XMC_Peripheral_Library_v2.1.16/XMCLib/src/xmc_usbd.c ****         {
 697:/opt/XMClib/XMC_Peripheral_Library_v2.1.16/XMCLib/src/xmc_usbd.c ****           /* calculate size for setup packet */
 698:/opt/XMClib/XMC_Peripheral_Library_v2.1.16/XMCLib/src/xmc_usbd.c **** 		  ep->outBytesAvailable = (uint32_t)(((uint32_t)XMC_USBD_SETUP_COUNT -
 699:/opt/XMClib/XMC_Peripheral_Library_v2.1.16/XMCLib/src/xmc_usbd.c **** 		  (uint32_t)((deptsiz0_data_t*)&doeptsiz)->b.supcnt)*(uint32_t)XMC_USBD_SETUP_SIZE);
 700:/opt/XMClib/XMC_Peripheral_Library_v2.1.16/XMCLib/src/xmc_usbd.c ****         }
 701:/opt/XMClib/XMC_Peripheral_Library_v2.1.16/XMCLib/src/xmc_usbd.c **** 		if(obj->usbd_transfer_mode == XMC_USBD_USE_FIFO)
 702:/opt/XMClib/XMC_Peripheral_Library_v2.1.16/XMCLib/src/xmc_usbd.c **** 		{
 703:/opt/XMClib/XMC_Peripheral_Library_v2.1.16/XMCLib/src/xmc_usbd.c **** 			ep->outBytesAvailable += ep->xferCount;
 704:/opt/XMClib/XMC_Peripheral_Library_v2.1.16/XMCLib/src/xmc_usbd.c **** 		}
 705:/opt/XMClib/XMC_Peripheral_Library_v2.1.16/XMCLib/src/xmc_usbd.c **** 		ep->outInUse = 0U;
 706:/opt/XMClib/XMC_Peripheral_Library_v2.1.16/XMCLib/src/xmc_usbd.c **** 		xmc_device.EndpointEvent_cb(0U,XMC_USBD_EP_EVENT_SETUP); /* signal endpoint event */
 707:/opt/XMClib/XMC_Peripheral_Library_v2.1.16/XMCLib/src/xmc_usbd.c **** 				/* clear the interrupt */
 708:/opt/XMClib/XMC_Peripheral_Library_v2.1.16/XMCLib/src/xmc_usbd.c **** 		XMC_USBD_ClearEventOUTEP((uint32_t)XMC_USBD_EVENT_OUT_EP_SETUP,ep_num);
 709:/opt/XMClib/XMC_Peripheral_Library_v2.1.16/XMCLib/src/xmc_usbd.c ****       }
 710:/opt/XMClib/XMC_Peripheral_Library_v2.1.16/XMCLib/src/xmc_usbd.c ****       if (doepint.b.xfercompl)
 711:/opt/XMClib/XMC_Peripheral_Library_v2.1.16/XMCLib/src/xmc_usbd.c ****       {
 712:/opt/XMClib/XMC_Peripheral_Library_v2.1.16/XMCLib/src/xmc_usbd.c ****         if(obj->usbd_transfer_mode == XMC_USBD_USE_DMA)
 713:/opt/XMClib/XMC_Peripheral_Library_v2.1.16/XMCLib/src/xmc_usbd.c ****         {
 714:/opt/XMClib/XMC_Peripheral_Library_v2.1.16/XMCLib/src/xmc_usbd.c ****           uint32_t bytes = (ep->xferLength - ep->xferCount) - doeptsiz.b.xfersize;
 715:/opt/XMClib/XMC_Peripheral_Library_v2.1.16/XMCLib/src/xmc_usbd.c ****           ep->xferCount += bytes;
 716:/opt/XMClib/XMC_Peripheral_Library_v2.1.16/XMCLib/src/xmc_usbd.c ****           ep->xferBuffer += bytes;
 717:/opt/XMClib/XMC_Peripheral_Library_v2.1.16/XMCLib/src/xmc_usbd.c **** 				}
 718:/opt/XMClib/XMC_Peripheral_Library_v2.1.16/XMCLib/src/xmc_usbd.c ****         if (ep->xferTotal == ep->xferLength)
 719:/opt/XMClib/XMC_Peripheral_Library_v2.1.16/XMCLib/src/xmc_usbd.c ****         {
 720:/opt/XMClib/XMC_Peripheral_Library_v2.1.16/XMCLib/src/xmc_usbd.c ****           ep->outBytesAvailable = ep->xferCount;
 721:/opt/XMClib/XMC_Peripheral_Library_v2.1.16/XMCLib/src/xmc_usbd.c ****           ep->outInUse = 0U;
 722:/opt/XMClib/XMC_Peripheral_Library_v2.1.16/XMCLib/src/xmc_usbd.c ****           xmc_device.EndpointEvent_cb(ep_num,XMC_USBD_EP_EVENT_OUT);
 723:/opt/XMClib/XMC_Peripheral_Library_v2.1.16/XMCLib/src/xmc_usbd.c ****         }
 724:/opt/XMClib/XMC_Peripheral_Library_v2.1.16/XMCLib/src/xmc_usbd.c ****         else
 725:/opt/XMClib/XMC_Peripheral_Library_v2.1.16/XMCLib/src/xmc_usbd.c ****         {
 726:/opt/XMClib/XMC_Peripheral_Library_v2.1.16/XMCLib/src/xmc_usbd.c ****           XMC_USBD_lStartReadXfer(ep);
 727:/opt/XMClib/XMC_Peripheral_Library_v2.1.16/XMCLib/src/xmc_usbd.c ****         }
 728:/opt/XMClib/XMC_Peripheral_Library_v2.1.16/XMCLib/src/xmc_usbd.c **** 
 729:/opt/XMClib/XMC_Peripheral_Library_v2.1.16/XMCLib/src/xmc_usbd.c ****       }
 730:/opt/XMClib/XMC_Peripheral_Library_v2.1.16/XMCLib/src/xmc_usbd.c **** 
 731:/opt/XMClib/XMC_Peripheral_Library_v2.1.16/XMCLib/src/xmc_usbd.c ****       XMC_USBD_ClearEventOUTEP(doepint.d32,ep_num);
 732:/opt/XMClib/XMC_Peripheral_Library_v2.1.16/XMCLib/src/xmc_usbd.c ****     }
 733:/opt/XMClib/XMC_Peripheral_Library_v2.1.16/XMCLib/src/xmc_usbd.c ****     ep_num++;
 734:/opt/XMClib/XMC_Peripheral_Library_v2.1.16/XMCLib/src/xmc_usbd.c ****   }
 735:/opt/XMClib/XMC_Peripheral_Library_v2.1.16/XMCLib/src/xmc_usbd.c **** 
 736:/opt/XMClib/XMC_Peripheral_Library_v2.1.16/XMCLib/src/xmc_usbd.c ****   /* clear interrupt */
 737:/opt/XMClib/XMC_Peripheral_Library_v2.1.16/XMCLib/src/xmc_usbd.c ****   XMC_USBD_ClearEvent(XMC_USBD_EVENT_OUTEP);
 738:/opt/XMClib/XMC_Peripheral_Library_v2.1.16/XMCLib/src/xmc_usbd.c **** }
 739:/opt/XMClib/XMC_Peripheral_Library_v2.1.16/XMCLib/src/xmc_usbd.c **** 
 740:/opt/XMClib/XMC_Peripheral_Library_v2.1.16/XMCLib/src/xmc_usbd.c **** /**
 741:/opt/XMClib/XMC_Peripheral_Library_v2.1.16/XMCLib/src/xmc_usbd.c ****  * @brief Handles all interrupts for all in endpoints
 742:/opt/XMClib/XMC_Peripheral_Library_v2.1.16/XMCLib/src/xmc_usbd.c ****  *
 743:/opt/XMClib/XMC_Peripheral_Library_v2.1.16/XMCLib/src/xmc_usbd.c ****  * The interrupt handler first checks, which endpoint has caused the interrupt and then
 744:/opt/XMClib/XMC_Peripheral_Library_v2.1.16/XMCLib/src/xmc_usbd.c ****  * determines, which interrupt should be handled.
 745:/opt/XMClib/XMC_Peripheral_Library_v2.1.16/XMCLib/src/xmc_usbd.c ****  */
 746:/opt/XMClib/XMC_Peripheral_Library_v2.1.16/XMCLib/src/xmc_usbd.c **** static void XMC_USBD_lHandleIEPInt(const XMC_USBD_t *const obj) 
 747:/opt/XMClib/XMC_Peripheral_Library_v2.1.16/XMCLib/src/xmc_usbd.c **** {
 748:/opt/XMClib/XMC_Peripheral_Library_v2.1.16/XMCLib/src/xmc_usbd.c ****   XMC_USBD_EP_t *ep;
 749:/opt/XMClib/XMC_Peripheral_Library_v2.1.16/XMCLib/src/xmc_usbd.c ****   daint_data_t daint;
 750:/opt/XMClib/XMC_Peripheral_Library_v2.1.16/XMCLib/src/xmc_usbd.c ****   diepmsk_data_t diepmsk;
 751:/opt/XMClib/XMC_Peripheral_Library_v2.1.16/XMCLib/src/xmc_usbd.c ****   diepint_data_t diepint;
 752:/opt/XMClib/XMC_Peripheral_Library_v2.1.16/XMCLib/src/xmc_usbd.c ****   deptsiz_data_t dieptsiz;
 753:/opt/XMClib/XMC_Peripheral_Library_v2.1.16/XMCLib/src/xmc_usbd.c ****   uint16_t temp;
 754:/opt/XMClib/XMC_Peripheral_Library_v2.1.16/XMCLib/src/xmc_usbd.c ****   uint16_t temp1;
 755:/opt/XMClib/XMC_Peripheral_Library_v2.1.16/XMCLib/src/xmc_usbd.c ****   uint16_t mask;
 756:/opt/XMClib/XMC_Peripheral_Library_v2.1.16/XMCLib/src/xmc_usbd.c ****   uint8_t ep_num;
 757:/opt/XMClib/XMC_Peripheral_Library_v2.1.16/XMCLib/src/xmc_usbd.c ****   uint32_t inepint;
 758:/opt/XMClib/XMC_Peripheral_Library_v2.1.16/XMCLib/src/xmc_usbd.c **** 	
 759:/opt/XMClib/XMC_Peripheral_Library_v2.1.16/XMCLib/src/xmc_usbd.c ****   daint.d32 = xmc_device.device_register->daint;
 760:/opt/XMClib/XMC_Peripheral_Library_v2.1.16/XMCLib/src/xmc_usbd.c ****   
 761:/opt/XMClib/XMC_Peripheral_Library_v2.1.16/XMCLib/src/xmc_usbd.c ****   diepmsk.d32 = xmc_device.device_register->diepmsk;
 762:/opt/XMClib/XMC_Peripheral_Library_v2.1.16/XMCLib/src/xmc_usbd.c ****   
 763:/opt/XMClib/XMC_Peripheral_Library_v2.1.16/XMCLib/src/xmc_usbd.c ****   dieptsiz.d32 = 0U;
 764:/opt/XMClib/XMC_Peripheral_Library_v2.1.16/XMCLib/src/xmc_usbd.c ****   mask = daint.ep.in;
 765:/opt/XMClib/XMC_Peripheral_Library_v2.1.16/XMCLib/src/xmc_usbd.c ****   ep_num = 0U;
 766:/opt/XMClib/XMC_Peripheral_Library_v2.1.16/XMCLib/src/xmc_usbd.c ****   
 767:/opt/XMClib/XMC_Peripheral_Library_v2.1.16/XMCLib/src/xmc_usbd.c ****   while ((uint16_t)mask >> ep_num)
 768:/opt/XMClib/XMC_Peripheral_Library_v2.1.16/XMCLib/src/xmc_usbd.c ****   {
 769:/opt/XMClib/XMC_Peripheral_Library_v2.1.16/XMCLib/src/xmc_usbd.c ****     temp1 = ((uint16_t)mask >> (uint16_t)ep_num);
 770:/opt/XMClib/XMC_Peripheral_Library_v2.1.16/XMCLib/src/xmc_usbd.c ****     temp = (uint16_t)temp1 & (uint16_t)0x1U;
 771:/opt/XMClib/XMC_Peripheral_Library_v2.1.16/XMCLib/src/xmc_usbd.c ****     if ((uint16_t)temp)
 772:/opt/XMClib/XMC_Peripheral_Library_v2.1.16/XMCLib/src/xmc_usbd.c ****     {
 773:/opt/XMClib/XMC_Peripheral_Library_v2.1.16/XMCLib/src/xmc_usbd.c ****       ep = &xmc_device.ep[ep_num];
 774:/opt/XMClib/XMC_Peripheral_Library_v2.1.16/XMCLib/src/xmc_usbd.c **** 			inepint = (uint32_t)xmc_device.endpoint_in_register[ep_num]->diepint;
 775:/opt/XMClib/XMC_Peripheral_Library_v2.1.16/XMCLib/src/xmc_usbd.c ****       diepint.d32 = inepint &
 776:/opt/XMClib/XMC_Peripheral_Library_v2.1.16/XMCLib/src/xmc_usbd.c ****       ((((uint32_t)((uint32_t)xmc_device.device_register->dtknqr4_fifoemptymsk >> ep->address_u.add
 777:/opt/XMClib/XMC_Peripheral_Library_v2.1.16/XMCLib/src/xmc_usbd.c ****                      0x1U) << 7U) | (uint32_t)diepmsk.d32);
 778:/opt/XMClib/XMC_Peripheral_Library_v2.1.16/XMCLib/src/xmc_usbd.c ****       if(obj->usbd_transfer_mode == XMC_USBD_USE_DMA)
 779:/opt/XMClib/XMC_Peripheral_Library_v2.1.16/XMCLib/src/xmc_usbd.c ****       {
 780:/opt/XMClib/XMC_Peripheral_Library_v2.1.16/XMCLib/src/xmc_usbd.c ****         dieptsiz.d32 = xmc_device.endpoint_in_register[ep_num]->dieptsiz;
 781:/opt/XMClib/XMC_Peripheral_Library_v2.1.16/XMCLib/src/xmc_usbd.c ****       }
 782:/opt/XMClib/XMC_Peripheral_Library_v2.1.16/XMCLib/src/xmc_usbd.c ****       if(obj->usbd_transfer_mode == XMC_USBD_USE_FIFO)
 783:/opt/XMClib/XMC_Peripheral_Library_v2.1.16/XMCLib/src/xmc_usbd.c ****       {
 784:/opt/XMClib/XMC_Peripheral_Library_v2.1.16/XMCLib/src/xmc_usbd.c ****         if (diepint.b.emptyintr)
 785:/opt/XMClib/XMC_Peripheral_Library_v2.1.16/XMCLib/src/xmc_usbd.c ****         {
 786:/opt/XMClib/XMC_Peripheral_Library_v2.1.16/XMCLib/src/xmc_usbd.c ****           uint32_t bytes;
 787:/opt/XMClib/XMC_Peripheral_Library_v2.1.16/XMCLib/src/xmc_usbd.c ****           bytes = XMC_USBD_lWriteFifo(ep);
 788:/opt/XMClib/XMC_Peripheral_Library_v2.1.16/XMCLib/src/xmc_usbd.c ****           ep->xferCount += bytes;
 789:/opt/XMClib/XMC_Peripheral_Library_v2.1.16/XMCLib/src/xmc_usbd.c ****           ep->xferBuffer += bytes;
 790:/opt/XMClib/XMC_Peripheral_Library_v2.1.16/XMCLib/src/xmc_usbd.c ****         }
 791:/opt/XMClib/XMC_Peripheral_Library_v2.1.16/XMCLib/src/xmc_usbd.c ****       }
 792:/opt/XMClib/XMC_Peripheral_Library_v2.1.16/XMCLib/src/xmc_usbd.c ****       if (diepint.b.xfercompl)
 793:/opt/XMClib/XMC_Peripheral_Library_v2.1.16/XMCLib/src/xmc_usbd.c ****       {
 794:/opt/XMClib/XMC_Peripheral_Library_v2.1.16/XMCLib/src/xmc_usbd.c ****         if(obj->usbd_transfer_mode == XMC_USBD_USE_DMA)
 795:/opt/XMClib/XMC_Peripheral_Library_v2.1.16/XMCLib/src/xmc_usbd.c ****         {
 796:/opt/XMClib/XMC_Peripheral_Library_v2.1.16/XMCLib/src/xmc_usbd.c ****           /* update xfer values */
 797:/opt/XMClib/XMC_Peripheral_Library_v2.1.16/XMCLib/src/xmc_usbd.c ****           if ((dieptsiz.b.pktcnt == 0U) && (dieptsiz.b.xfersize == 0U))
 798:/opt/XMClib/XMC_Peripheral_Library_v2.1.16/XMCLib/src/xmc_usbd.c ****           {
 799:/opt/XMClib/XMC_Peripheral_Library_v2.1.16/XMCLib/src/xmc_usbd.c ****             uint32_t Bytes = ep->xferLength - ep->xferCount;
 800:/opt/XMClib/XMC_Peripheral_Library_v2.1.16/XMCLib/src/xmc_usbd.c ****             ep->xferCount += Bytes;
 801:/opt/XMClib/XMC_Peripheral_Library_v2.1.16/XMCLib/src/xmc_usbd.c ****             ep->xferBuffer += Bytes;
 802:/opt/XMClib/XMC_Peripheral_Library_v2.1.16/XMCLib/src/xmc_usbd.c ****           }
 803:/opt/XMClib/XMC_Peripheral_Library_v2.1.16/XMCLib/src/xmc_usbd.c ****         }
 804:/opt/XMClib/XMC_Peripheral_Library_v2.1.16/XMCLib/src/xmc_usbd.c ****         if (ep->xferTotal==ep->xferLength)
 805:/opt/XMClib/XMC_Peripheral_Library_v2.1.16/XMCLib/src/xmc_usbd.c ****         {
 806:/opt/XMClib/XMC_Peripheral_Library_v2.1.16/XMCLib/src/xmc_usbd.c ****           ep->inInUse = 0U;
 807:/opt/XMClib/XMC_Peripheral_Library_v2.1.16/XMCLib/src/xmc_usbd.c ****           if(obj->usbd_transfer_mode == XMC_USBD_USE_FIFO)
 808:/opt/XMClib/XMC_Peripheral_Library_v2.1.16/XMCLib/src/xmc_usbd.c ****           {
 809:/opt/XMClib/XMC_Peripheral_Library_v2.1.16/XMCLib/src/xmc_usbd.c ****             /* mask fifo empty interrupt */
 810:/opt/XMClib/XMC_Peripheral_Library_v2.1.16/XMCLib/src/xmc_usbd.c ****             xmc_device.device_register->dtknqr4_fifoemptymsk =
 811:/opt/XMClib/XMC_Peripheral_Library_v2.1.16/XMCLib/src/xmc_usbd.c ****             (uint32_t)(xmc_device.device_register->dtknqr4_fifoemptymsk & ~(((uint32_t)1U << ep_num
 812:/opt/XMClib/XMC_Peripheral_Library_v2.1.16/XMCLib/src/xmc_usbd.c ****           }
 813:/opt/XMClib/XMC_Peripheral_Library_v2.1.16/XMCLib/src/xmc_usbd.c ****           xmc_device.EndpointEvent_cb(0x80U | ep_num,XMC_USBD_EP_EVENT_IN);
 814:/opt/XMClib/XMC_Peripheral_Library_v2.1.16/XMCLib/src/xmc_usbd.c ****         }
 815:/opt/XMClib/XMC_Peripheral_Library_v2.1.16/XMCLib/src/xmc_usbd.c ****         else
 816:/opt/XMClib/XMC_Peripheral_Library_v2.1.16/XMCLib/src/xmc_usbd.c ****         {
 817:/opt/XMClib/XMC_Peripheral_Library_v2.1.16/XMCLib/src/xmc_usbd.c ****           /* start next step of transfer */
 818:/opt/XMClib/XMC_Peripheral_Library_v2.1.16/XMCLib/src/xmc_usbd.c ****           XMC_USBD_lStartWriteXfer(ep);
 819:/opt/XMClib/XMC_Peripheral_Library_v2.1.16/XMCLib/src/xmc_usbd.c ****         }
 820:/opt/XMClib/XMC_Peripheral_Library_v2.1.16/XMCLib/src/xmc_usbd.c **** 
 821:/opt/XMClib/XMC_Peripheral_Library_v2.1.16/XMCLib/src/xmc_usbd.c ****       }
 822:/opt/XMClib/XMC_Peripheral_Library_v2.1.16/XMCLib/src/xmc_usbd.c **** 
 823:/opt/XMClib/XMC_Peripheral_Library_v2.1.16/XMCLib/src/xmc_usbd.c ****       XMC_USBD_ClearEventINEP((uint32_t)diepint.d32,ep_num);
 824:/opt/XMClib/XMC_Peripheral_Library_v2.1.16/XMCLib/src/xmc_usbd.c ****     }
 825:/opt/XMClib/XMC_Peripheral_Library_v2.1.16/XMCLib/src/xmc_usbd.c ****     ep_num++;
 826:/opt/XMClib/XMC_Peripheral_Library_v2.1.16/XMCLib/src/xmc_usbd.c ****   }
 827:/opt/XMClib/XMC_Peripheral_Library_v2.1.16/XMCLib/src/xmc_usbd.c ****   XMC_USBD_ClearEvent(XMC_USBD_EVENT_INEP);
 828:/opt/XMClib/XMC_Peripheral_Library_v2.1.16/XMCLib/src/xmc_usbd.c **** }
 829:/opt/XMClib/XMC_Peripheral_Library_v2.1.16/XMCLib/src/xmc_usbd.c **** 
 830:/opt/XMClib/XMC_Peripheral_Library_v2.1.16/XMCLib/src/xmc_usbd.c **** /**
 831:/opt/XMClib/XMC_Peripheral_Library_v2.1.16/XMCLib/src/xmc_usbd.c ****  * @brief RX Fifo interrupt handler
 832:/opt/XMClib/XMC_Peripheral_Library_v2.1.16/XMCLib/src/xmc_usbd.c ****  *
 833:/opt/XMClib/XMC_Peripheral_Library_v2.1.16/XMCLib/src/xmc_usbd.c ****  * This function handles the interrupt, when the rx fifo is not empty anymore.
 834:/opt/XMClib/XMC_Peripheral_Library_v2.1.16/XMCLib/src/xmc_usbd.c ****  */
 835:/opt/XMClib/XMC_Peripheral_Library_v2.1.16/XMCLib/src/xmc_usbd.c **** static void XMC_USBD_lHandleRxFLvl(void) 
 836:/opt/XMClib/XMC_Peripheral_Library_v2.1.16/XMCLib/src/xmc_usbd.c **** {
 837:/opt/XMClib/XMC_Peripheral_Library_v2.1.16/XMCLib/src/xmc_usbd.c ****   device_grxsts_data_t data;	
 838:/opt/XMClib/XMC_Peripheral_Library_v2.1.16/XMCLib/src/xmc_usbd.c ****   data.d32 = xmc_device.global_register->grxstsp;
 839:/opt/XMClib/XMC_Peripheral_Library_v2.1.16/XMCLib/src/xmc_usbd.c **** 
 840:/opt/XMClib/XMC_Peripheral_Library_v2.1.16/XMCLib/src/xmc_usbd.c ****   switch (data.b.pktsts)
 841:/opt/XMClib/XMC_Peripheral_Library_v2.1.16/XMCLib/src/xmc_usbd.c **** 	{
 842:/opt/XMClib/XMC_Peripheral_Library_v2.1.16/XMCLib/src/xmc_usbd.c ****     case XMC_USBD_GRXSTS_PKTSTS_GOUTNAK:
 843:/opt/XMClib/XMC_Peripheral_Library_v2.1.16/XMCLib/src/xmc_usbd.c ****       break;
 844:/opt/XMClib/XMC_Peripheral_Library_v2.1.16/XMCLib/src/xmc_usbd.c ****     case XMC_USBD_GRXSTS_PKTSTS_OUTCMPL:
 845:/opt/XMClib/XMC_Peripheral_Library_v2.1.16/XMCLib/src/xmc_usbd.c ****       break;
 846:/opt/XMClib/XMC_Peripheral_Library_v2.1.16/XMCLib/src/xmc_usbd.c ****     case XMC_USBD_GRXSTS_PKTSTS_OUTDATA:
 847:/opt/XMClib/XMC_Peripheral_Library_v2.1.16/XMCLib/src/xmc_usbd.c ****       XMC_USBD_lReadFifo((uint32_t)data.b.epnum,(uint32_t)data.b.bcnt);
 848:/opt/XMClib/XMC_Peripheral_Library_v2.1.16/XMCLib/src/xmc_usbd.c ****       break;
 849:/opt/XMClib/XMC_Peripheral_Library_v2.1.16/XMCLib/src/xmc_usbd.c ****     case XMC_USBD_GRXSTS_PKTSTS_SETUP:
 850:/opt/XMClib/XMC_Peripheral_Library_v2.1.16/XMCLib/src/xmc_usbd.c ****       XMC_USBD_lReadFifo((uint32_t)data.b.epnum,(uint32_t)data.b.bcnt);
 851:/opt/XMClib/XMC_Peripheral_Library_v2.1.16/XMCLib/src/xmc_usbd.c ****       break;
 852:/opt/XMClib/XMC_Peripheral_Library_v2.1.16/XMCLib/src/xmc_usbd.c ****     case XMC_USBD_GRXSTS_PKTSTS_SETUPCMPL:
 853:/opt/XMClib/XMC_Peripheral_Library_v2.1.16/XMCLib/src/xmc_usbd.c ****       break;
 854:/opt/XMClib/XMC_Peripheral_Library_v2.1.16/XMCLib/src/xmc_usbd.c ****     default:
 855:/opt/XMClib/XMC_Peripheral_Library_v2.1.16/XMCLib/src/xmc_usbd.c ****       break;
 856:/opt/XMClib/XMC_Peripheral_Library_v2.1.16/XMCLib/src/xmc_usbd.c **** 	}
 857:/opt/XMClib/XMC_Peripheral_Library_v2.1.16/XMCLib/src/xmc_usbd.c ****   /* no need to clear */
 858:/opt/XMClib/XMC_Peripheral_Library_v2.1.16/XMCLib/src/xmc_usbd.c **** }
 859:/opt/XMClib/XMC_Peripheral_Library_v2.1.16/XMCLib/src/xmc_usbd.c **** 
 860:/opt/XMClib/XMC_Peripheral_Library_v2.1.16/XMCLib/src/xmc_usbd.c **** /**
 861:/opt/XMClib/XMC_Peripheral_Library_v2.1.16/XMCLib/src/xmc_usbd.c ****  * @brief Global interrupt handler
 862:/opt/XMClib/XMC_Peripheral_Library_v2.1.16/XMCLib/src/xmc_usbd.c ****  *
 863:/opt/XMClib/XMC_Peripheral_Library_v2.1.16/XMCLib/src/xmc_usbd.c ****  * The handler first checks, which global interrupt has caused the interrupt
 864:/opt/XMClib/XMC_Peripheral_Library_v2.1.16/XMCLib/src/xmc_usbd.c ****  * and then dispatches interrupt to the corresponding sub-handler.
 865:/opt/XMClib/XMC_Peripheral_Library_v2.1.16/XMCLib/src/xmc_usbd.c ****  */
 866:/opt/XMClib/XMC_Peripheral_Library_v2.1.16/XMCLib/src/xmc_usbd.c **** void XMC_USBD_IRQHandler(const XMC_USBD_t *const obj) 
 867:/opt/XMClib/XMC_Peripheral_Library_v2.1.16/XMCLib/src/xmc_usbd.c **** {
 868:/opt/XMClib/XMC_Peripheral_Library_v2.1.16/XMCLib/src/xmc_usbd.c ****   gintmsk_data_t gintmsk;
 869:/opt/XMClib/XMC_Peripheral_Library_v2.1.16/XMCLib/src/xmc_usbd.c ****   gintsts_data_t data;
 870:/opt/XMClib/XMC_Peripheral_Library_v2.1.16/XMCLib/src/xmc_usbd.c **** 	
 871:/opt/XMClib/XMC_Peripheral_Library_v2.1.16/XMCLib/src/xmc_usbd.c ****   gintmsk.d32 = xmc_device.global_register->gintmsk;
 872:/opt/XMClib/XMC_Peripheral_Library_v2.1.16/XMCLib/src/xmc_usbd.c ****   data.d32 = xmc_device.global_register->gintsts & gintmsk.d32;
 873:/opt/XMClib/XMC_Peripheral_Library_v2.1.16/XMCLib/src/xmc_usbd.c **** 	
 874:/opt/XMClib/XMC_Peripheral_Library_v2.1.16/XMCLib/src/xmc_usbd.c ****   if (data.b.sofintr)
 875:/opt/XMClib/XMC_Peripheral_Library_v2.1.16/XMCLib/src/xmc_usbd.c ****   {
 876:/opt/XMClib/XMC_Peripheral_Library_v2.1.16/XMCLib/src/xmc_usbd.c ****     xmc_device.DeviceEvent_cb(XMC_USBD_EVENT_SOF);
 877:/opt/XMClib/XMC_Peripheral_Library_v2.1.16/XMCLib/src/xmc_usbd.c ****     XMC_USBD_ClearEvent(XMC_USBD_EVENT_SOF);
 878:/opt/XMClib/XMC_Peripheral_Library_v2.1.16/XMCLib/src/xmc_usbd.c ****   }
 879:/opt/XMClib/XMC_Peripheral_Library_v2.1.16/XMCLib/src/xmc_usbd.c ****   if(obj->usbd_transfer_mode == XMC_USBD_USE_FIFO)
 880:/opt/XMClib/XMC_Peripheral_Library_v2.1.16/XMCLib/src/xmc_usbd.c ****   {
 881:/opt/XMClib/XMC_Peripheral_Library_v2.1.16/XMCLib/src/xmc_usbd.c ****     if (data.b.rxstsqlvl)
 882:/opt/XMClib/XMC_Peripheral_Library_v2.1.16/XMCLib/src/xmc_usbd.c ****     {
 883:/opt/XMClib/XMC_Peripheral_Library_v2.1.16/XMCLib/src/xmc_usbd.c ****       /* Masked that interrupt so its only done once */
 884:/opt/XMClib/XMC_Peripheral_Library_v2.1.16/XMCLib/src/xmc_usbd.c ****       gintmsk.b.rxstsqlvl = 0U;
 885:/opt/XMClib/XMC_Peripheral_Library_v2.1.16/XMCLib/src/xmc_usbd.c ****       xmc_device.global_register->gintmsk = gintmsk.d32;
 886:/opt/XMClib/XMC_Peripheral_Library_v2.1.16/XMCLib/src/xmc_usbd.c ****       XMC_USBD_lHandleRxFLvl(); /* handle the interrupt */
 887:/opt/XMClib/XMC_Peripheral_Library_v2.1.16/XMCLib/src/xmc_usbd.c ****       gintmsk.b.rxstsqlvl = 1U;
 888:/opt/XMClib/XMC_Peripheral_Library_v2.1.16/XMCLib/src/xmc_usbd.c ****       xmc_device.global_register->gintmsk = gintmsk.d32;
 889:/opt/XMClib/XMC_Peripheral_Library_v2.1.16/XMCLib/src/xmc_usbd.c ****     }
 890:/opt/XMClib/XMC_Peripheral_Library_v2.1.16/XMCLib/src/xmc_usbd.c ****   }
 891:/opt/XMClib/XMC_Peripheral_Library_v2.1.16/XMCLib/src/xmc_usbd.c ****   if (data.b.erlysuspend)
 892:/opt/XMClib/XMC_Peripheral_Library_v2.1.16/XMCLib/src/xmc_usbd.c ****   {
 893:/opt/XMClib/XMC_Peripheral_Library_v2.1.16/XMCLib/src/xmc_usbd.c ****     XMC_USBD_ClearEvent(XMC_USBD_EVENT_EARLYSUSPEND);
 894:/opt/XMClib/XMC_Peripheral_Library_v2.1.16/XMCLib/src/xmc_usbd.c ****   }
 895:/opt/XMClib/XMC_Peripheral_Library_v2.1.16/XMCLib/src/xmc_usbd.c ****   if (data.b.usbsuspend)
 896:/opt/XMClib/XMC_Peripheral_Library_v2.1.16/XMCLib/src/xmc_usbd.c ****   {
 897:/opt/XMClib/XMC_Peripheral_Library_v2.1.16/XMCLib/src/xmc_usbd.c ****     xmc_device.DeviceEvent_cb(XMC_USBD_EVENT_SUSPEND);
 898:/opt/XMClib/XMC_Peripheral_Library_v2.1.16/XMCLib/src/xmc_usbd.c ****     XMC_USBD_ClearEvent(XMC_USBD_EVENT_SUSPEND);
 899:/opt/XMClib/XMC_Peripheral_Library_v2.1.16/XMCLib/src/xmc_usbd.c ****   }
 900:/opt/XMClib/XMC_Peripheral_Library_v2.1.16/XMCLib/src/xmc_usbd.c ****   if (data.b.wkupintr)
 901:/opt/XMClib/XMC_Peripheral_Library_v2.1.16/XMCLib/src/xmc_usbd.c ****   {
 902:/opt/XMClib/XMC_Peripheral_Library_v2.1.16/XMCLib/src/xmc_usbd.c ****     xmc_device.DeviceEvent_cb(XMC_USBD_EVENT_REMOTE_WAKEUP);
 903:/opt/XMClib/XMC_Peripheral_Library_v2.1.16/XMCLib/src/xmc_usbd.c ****     XMC_USBD_ClearEvent(XMC_USBD_EVENT_REMOTE_WAKEUP);
 904:/opt/XMClib/XMC_Peripheral_Library_v2.1.16/XMCLib/src/xmc_usbd.c ****   }
 905:/opt/XMClib/XMC_Peripheral_Library_v2.1.16/XMCLib/src/xmc_usbd.c ****   if (data.b.sessreqintr)
 906:/opt/XMClib/XMC_Peripheral_Library_v2.1.16/XMCLib/src/xmc_usbd.c ****   {
 907:/opt/XMClib/XMC_Peripheral_Library_v2.1.16/XMCLib/src/xmc_usbd.c ****     xmc_device.IsPowered = 1U;
 908:/opt/XMClib/XMC_Peripheral_Library_v2.1.16/XMCLib/src/xmc_usbd.c ****     xmc_device.DeviceEvent_cb(XMC_USBD_EVENT_POWER_ON);
 909:/opt/XMClib/XMC_Peripheral_Library_v2.1.16/XMCLib/src/xmc_usbd.c ****     XMC_USBD_ClearEvent(XMC_USBD_EVENT_POWER_ON);
 910:/opt/XMClib/XMC_Peripheral_Library_v2.1.16/XMCLib/src/xmc_usbd.c ****   }
 911:/opt/XMClib/XMC_Peripheral_Library_v2.1.16/XMCLib/src/xmc_usbd.c ****   if (data.b.usbreset)
 912:/opt/XMClib/XMC_Peripheral_Library_v2.1.16/XMCLib/src/xmc_usbd.c ****   {
 913:/opt/XMClib/XMC_Peripheral_Library_v2.1.16/XMCLib/src/xmc_usbd.c ****     XMC_USBD_lHandleUSBReset(obj);
 914:/opt/XMClib/XMC_Peripheral_Library_v2.1.16/XMCLib/src/xmc_usbd.c ****   }
 915:/opt/XMClib/XMC_Peripheral_Library_v2.1.16/XMCLib/src/xmc_usbd.c ****   if (data.b.enumdone)
 916:/opt/XMClib/XMC_Peripheral_Library_v2.1.16/XMCLib/src/xmc_usbd.c ****   {
 917:/opt/XMClib/XMC_Peripheral_Library_v2.1.16/XMCLib/src/xmc_usbd.c ****     XMC_USBD_lHandleEnumDone();
 918:/opt/XMClib/XMC_Peripheral_Library_v2.1.16/XMCLib/src/xmc_usbd.c ****   }
 919:/opt/XMClib/XMC_Peripheral_Library_v2.1.16/XMCLib/src/xmc_usbd.c ****   if (data.b.inepint)
 920:/opt/XMClib/XMC_Peripheral_Library_v2.1.16/XMCLib/src/xmc_usbd.c ****   {
 921:/opt/XMClib/XMC_Peripheral_Library_v2.1.16/XMCLib/src/xmc_usbd.c ****     XMC_USBD_lHandleIEPInt(obj);
 922:/opt/XMClib/XMC_Peripheral_Library_v2.1.16/XMCLib/src/xmc_usbd.c ****   }
 923:/opt/XMClib/XMC_Peripheral_Library_v2.1.16/XMCLib/src/xmc_usbd.c ****   if (data.b.outepintr)
 924:/opt/XMClib/XMC_Peripheral_Library_v2.1.16/XMCLib/src/xmc_usbd.c ****   {
 925:/opt/XMClib/XMC_Peripheral_Library_v2.1.16/XMCLib/src/xmc_usbd.c **** 		XMC_USBD_lHandleOEPInt(obj);
 926:/opt/XMClib/XMC_Peripheral_Library_v2.1.16/XMCLib/src/xmc_usbd.c ****   }
 927:/opt/XMClib/XMC_Peripheral_Library_v2.1.16/XMCLib/src/xmc_usbd.c **** 	if (data.b.otgintr)
 928:/opt/XMClib/XMC_Peripheral_Library_v2.1.16/XMCLib/src/xmc_usbd.c ****   {
 929:/opt/XMClib/XMC_Peripheral_Library_v2.1.16/XMCLib/src/xmc_usbd.c **** 	  XMC_USBD_lHandleOTGInt();
 930:/opt/XMClib/XMC_Peripheral_Library_v2.1.16/XMCLib/src/xmc_usbd.c ****   }
 931:/opt/XMClib/XMC_Peripheral_Library_v2.1.16/XMCLib/src/xmc_usbd.c **** 
 932:/opt/XMClib/XMC_Peripheral_Library_v2.1.16/XMCLib/src/xmc_usbd.c **** }
 933:/opt/XMClib/XMC_Peripheral_Library_v2.1.16/XMCLib/src/xmc_usbd.c **** 
 934:/opt/XMClib/XMC_Peripheral_Library_v2.1.16/XMCLib/src/xmc_usbd.c **** 
 935:/opt/XMClib/XMC_Peripheral_Library_v2.1.16/XMCLib/src/xmc_usbd.c **** /*******************************************************************************
 936:/opt/XMClib/XMC_Peripheral_Library_v2.1.16/XMCLib/src/xmc_usbd.c ****  * API IMPLEMENTATION
 937:/opt/XMClib/XMC_Peripheral_Library_v2.1.16/XMCLib/src/xmc_usbd.c ****  *******************************************************************************/
 938:/opt/XMClib/XMC_Peripheral_Library_v2.1.16/XMCLib/src/xmc_usbd.c **** /**
 939:/opt/XMClib/XMC_Peripheral_Library_v2.1.16/XMCLib/src/xmc_usbd.c ****  * Enables the USB0 module
 940:/opt/XMClib/XMC_Peripheral_Library_v2.1.16/XMCLib/src/xmc_usbd.c ****  **/
 941:/opt/XMClib/XMC_Peripheral_Library_v2.1.16/XMCLib/src/xmc_usbd.c **** void XMC_USBD_Enable(void) 
 942:/opt/XMClib/XMC_Peripheral_Library_v2.1.16/XMCLib/src/xmc_usbd.c **** {
 943:/opt/XMClib/XMC_Peripheral_Library_v2.1.16/XMCLib/src/xmc_usbd.c **** #if defined(CLOCK_GATING_SUPPORTED)
 944:/opt/XMClib/XMC_Peripheral_Library_v2.1.16/XMCLib/src/xmc_usbd.c ****   XMC_SCU_CLOCK_UngatePeripheralClock(XMC_SCU_PERIPHERAL_CLOCK_USB0);
 945:/opt/XMClib/XMC_Peripheral_Library_v2.1.16/XMCLib/src/xmc_usbd.c **** #endif
 946:/opt/XMClib/XMC_Peripheral_Library_v2.1.16/XMCLib/src/xmc_usbd.c ****   /* Reset and power up */
 947:/opt/XMClib/XMC_Peripheral_Library_v2.1.16/XMCLib/src/xmc_usbd.c ****   XMC_SCU_RESET_DeassertPeripheralReset(XMC_SCU_PERIPHERAL_RESET_USB0);
 948:/opt/XMClib/XMC_Peripheral_Library_v2.1.16/XMCLib/src/xmc_usbd.c ****   XMC_SCU_POWER_EnableUsb();
 949:/opt/XMClib/XMC_Peripheral_Library_v2.1.16/XMCLib/src/xmc_usbd.c **** }
 950:/opt/XMClib/XMC_Peripheral_Library_v2.1.16/XMCLib/src/xmc_usbd.c **** 
 951:/opt/XMClib/XMC_Peripheral_Library_v2.1.16/XMCLib/src/xmc_usbd.c **** /**
 952:/opt/XMClib/XMC_Peripheral_Library_v2.1.16/XMCLib/src/xmc_usbd.c ****  * Disables the USB0 module
 953:/opt/XMClib/XMC_Peripheral_Library_v2.1.16/XMCLib/src/xmc_usbd.c ****  **/
 954:/opt/XMClib/XMC_Peripheral_Library_v2.1.16/XMCLib/src/xmc_usbd.c **** void XMC_USBD_Disable(void) 
 955:/opt/XMClib/XMC_Peripheral_Library_v2.1.16/XMCLib/src/xmc_usbd.c **** {
 956:/opt/XMClib/XMC_Peripheral_Library_v2.1.16/XMCLib/src/xmc_usbd.c ****   /* Clear Reset and power up */
 957:/opt/XMClib/XMC_Peripheral_Library_v2.1.16/XMCLib/src/xmc_usbd.c ****   XMC_SCU_RESET_AssertPeripheralReset(XMC_SCU_PERIPHERAL_RESET_USB0);
 958:/opt/XMClib/XMC_Peripheral_Library_v2.1.16/XMCLib/src/xmc_usbd.c **** #if defined(CLOCK_GATING_SUPPORTED)
 959:/opt/XMClib/XMC_Peripheral_Library_v2.1.16/XMCLib/src/xmc_usbd.c ****   XMC_SCU_CLOCK_GatePeripheralClock(XMC_SCU_PERIPHERAL_CLOCK_USB0);
 960:/opt/XMClib/XMC_Peripheral_Library_v2.1.16/XMCLib/src/xmc_usbd.c **** #endif
 961:/opt/XMClib/XMC_Peripheral_Library_v2.1.16/XMCLib/src/xmc_usbd.c ****   XMC_SCU_POWER_DisableUsb();
 962:/opt/XMClib/XMC_Peripheral_Library_v2.1.16/XMCLib/src/xmc_usbd.c **** }
 963:/opt/XMClib/XMC_Peripheral_Library_v2.1.16/XMCLib/src/xmc_usbd.c **** 
 964:/opt/XMClib/XMC_Peripheral_Library_v2.1.16/XMCLib/src/xmc_usbd.c **** /**
 965:/opt/XMClib/XMC_Peripheral_Library_v2.1.16/XMCLib/src/xmc_usbd.c ****  * Clear the USB device event
 966:/opt/XMClib/XMC_Peripheral_Library_v2.1.16/XMCLib/src/xmc_usbd.c ****  **/
 967:/opt/XMClib/XMC_Peripheral_Library_v2.1.16/XMCLib/src/xmc_usbd.c **** void XMC_USBD_ClearEvent(const XMC_USBD_EVENT_t event) 
 968:/opt/XMClib/XMC_Peripheral_Library_v2.1.16/XMCLib/src/xmc_usbd.c **** {
 969:/opt/XMClib/XMC_Peripheral_Library_v2.1.16/XMCLib/src/xmc_usbd.c ****   gintsts_data_t clear;
 970:/opt/XMClib/XMC_Peripheral_Library_v2.1.16/XMCLib/src/xmc_usbd.c ****   clear.d32 = 0U;
 971:/opt/XMClib/XMC_Peripheral_Library_v2.1.16/XMCLib/src/xmc_usbd.c ****   switch(event)
 972:/opt/XMClib/XMC_Peripheral_Library_v2.1.16/XMCLib/src/xmc_usbd.c ****   {
 973:/opt/XMClib/XMC_Peripheral_Library_v2.1.16/XMCLib/src/xmc_usbd.c ****     case (XMC_USBD_EVENT_POWER_ON):
 974:/opt/XMClib/XMC_Peripheral_Library_v2.1.16/XMCLib/src/xmc_usbd.c **** 	  clear.b.sessreqintr = 1U;
 975:/opt/XMClib/XMC_Peripheral_Library_v2.1.16/XMCLib/src/xmc_usbd.c **** 	  break;
 976:/opt/XMClib/XMC_Peripheral_Library_v2.1.16/XMCLib/src/xmc_usbd.c ****     case (XMC_USBD_EVENT_RESET):
 977:/opt/XMClib/XMC_Peripheral_Library_v2.1.16/XMCLib/src/xmc_usbd.c **** 	  clear.b.usbreset = 1U;
 978:/opt/XMClib/XMC_Peripheral_Library_v2.1.16/XMCLib/src/xmc_usbd.c **** 	  break;
 979:/opt/XMClib/XMC_Peripheral_Library_v2.1.16/XMCLib/src/xmc_usbd.c ****     case (XMC_USBD_EVENT_SUSPEND):
 980:/opt/XMClib/XMC_Peripheral_Library_v2.1.16/XMCLib/src/xmc_usbd.c **** 	  clear.b.usbsuspend = 1U;
 981:/opt/XMClib/XMC_Peripheral_Library_v2.1.16/XMCLib/src/xmc_usbd.c **** 	  break;
 982:/opt/XMClib/XMC_Peripheral_Library_v2.1.16/XMCLib/src/xmc_usbd.c ****     case (XMC_USBD_EVENT_RESUME):
 983:/opt/XMClib/XMC_Peripheral_Library_v2.1.16/XMCLib/src/xmc_usbd.c **** 	  clear.b.wkupintr = 1U;
 984:/opt/XMClib/XMC_Peripheral_Library_v2.1.16/XMCLib/src/xmc_usbd.c **** 	  break;
 985:/opt/XMClib/XMC_Peripheral_Library_v2.1.16/XMCLib/src/xmc_usbd.c ****     case (XMC_USBD_EVENT_REMOTE_WAKEUP):
 986:/opt/XMClib/XMC_Peripheral_Library_v2.1.16/XMCLib/src/xmc_usbd.c **** 	  clear.b.wkupintr = 1U;
 987:/opt/XMClib/XMC_Peripheral_Library_v2.1.16/XMCLib/src/xmc_usbd.c **** 	  break;
 988:/opt/XMClib/XMC_Peripheral_Library_v2.1.16/XMCLib/src/xmc_usbd.c ****     case (XMC_USBD_EVENT_SOF):
 989:/opt/XMClib/XMC_Peripheral_Library_v2.1.16/XMCLib/src/xmc_usbd.c **** 	  clear.b.sofintr = 1U;
 990:/opt/XMClib/XMC_Peripheral_Library_v2.1.16/XMCLib/src/xmc_usbd.c **** 	  break;
 991:/opt/XMClib/XMC_Peripheral_Library_v2.1.16/XMCLib/src/xmc_usbd.c ****     case (XMC_USBD_EVENT_EARLYSUSPEND):
 992:/opt/XMClib/XMC_Peripheral_Library_v2.1.16/XMCLib/src/xmc_usbd.c **** 	  clear.b.erlysuspend = 1U;
 993:/opt/XMClib/XMC_Peripheral_Library_v2.1.16/XMCLib/src/xmc_usbd.c **** 	  break;
 994:/opt/XMClib/XMC_Peripheral_Library_v2.1.16/XMCLib/src/xmc_usbd.c ****     case (XMC_USBD_EVENT_ENUMDONE):
 995:/opt/XMClib/XMC_Peripheral_Library_v2.1.16/XMCLib/src/xmc_usbd.c **** 	  clear.b.enumdone = 1U;
 996:/opt/XMClib/XMC_Peripheral_Library_v2.1.16/XMCLib/src/xmc_usbd.c **** 	  break;
 997:/opt/XMClib/XMC_Peripheral_Library_v2.1.16/XMCLib/src/xmc_usbd.c ****     case (XMC_USBD_EVENT_OUTEP):
 998:/opt/XMClib/XMC_Peripheral_Library_v2.1.16/XMCLib/src/xmc_usbd.c **** 	  clear.b.outepintr = 1U;
 999:/opt/XMClib/XMC_Peripheral_Library_v2.1.16/XMCLib/src/xmc_usbd.c **** 	  break;
1000:/opt/XMClib/XMC_Peripheral_Library_v2.1.16/XMCLib/src/xmc_usbd.c **** 		default:
1001:/opt/XMClib/XMC_Peripheral_Library_v2.1.16/XMCLib/src/xmc_usbd.c **** 		break;
1002:/opt/XMClib/XMC_Peripheral_Library_v2.1.16/XMCLib/src/xmc_usbd.c **** 	}
1003:/opt/XMClib/XMC_Peripheral_Library_v2.1.16/XMCLib/src/xmc_usbd.c **** 	xmc_device.global_register->gintsts = clear.d32;
1004:/opt/XMClib/XMC_Peripheral_Library_v2.1.16/XMCLib/src/xmc_usbd.c **** }
1005:/opt/XMClib/XMC_Peripheral_Library_v2.1.16/XMCLib/src/xmc_usbd.c **** 
1006:/opt/XMClib/XMC_Peripheral_Library_v2.1.16/XMCLib/src/xmc_usbd.c **** /**
1007:/opt/XMClib/XMC_Peripheral_Library_v2.1.16/XMCLib/src/xmc_usbd.c ****  * Clear the USB OTG events
1008:/opt/XMClib/XMC_Peripheral_Library_v2.1.16/XMCLib/src/xmc_usbd.c ****  **/
1009:/opt/XMClib/XMC_Peripheral_Library_v2.1.16/XMCLib/src/xmc_usbd.c **** static void XMC_USBD_lClearEventOTG(uint32_t event)
1010:/opt/XMClib/XMC_Peripheral_Library_v2.1.16/XMCLib/src/xmc_usbd.c **** {
1011:/opt/XMClib/XMC_Peripheral_Library_v2.1.16/XMCLib/src/xmc_usbd.c ****   gotgint_data_t clear = { .d32 = 0U};
1012:/opt/XMClib/XMC_Peripheral_Library_v2.1.16/XMCLib/src/xmc_usbd.c ****   clear.d32 = event;
1013:/opt/XMClib/XMC_Peripheral_Library_v2.1.16/XMCLib/src/xmc_usbd.c ****   xmc_device.global_register->gotgint = clear.d32;
1014:/opt/XMClib/XMC_Peripheral_Library_v2.1.16/XMCLib/src/xmc_usbd.c **** }
1015:/opt/XMClib/XMC_Peripheral_Library_v2.1.16/XMCLib/src/xmc_usbd.c **** 
1016:/opt/XMClib/XMC_Peripheral_Library_v2.1.16/XMCLib/src/xmc_usbd.c **** /**
1017:/opt/XMClib/XMC_Peripheral_Library_v2.1.16/XMCLib/src/xmc_usbd.c ****  * Clear the USB IN EP events
1018:/opt/XMClib/XMC_Peripheral_Library_v2.1.16/XMCLib/src/xmc_usbd.c ****  **/
1019:/opt/XMClib/XMC_Peripheral_Library_v2.1.16/XMCLib/src/xmc_usbd.c **** void XMC_USBD_ClearEventINEP(uint32_t event,const uint8_t ep_num)
1020:/opt/XMClib/XMC_Peripheral_Library_v2.1.16/XMCLib/src/xmc_usbd.c **** {
1021:/opt/XMClib/XMC_Peripheral_Library_v2.1.16/XMCLib/src/xmc_usbd.c ****   diepint_data_t clear;
1022:/opt/XMClib/XMC_Peripheral_Library_v2.1.16/XMCLib/src/xmc_usbd.c ****   clear.d32 = event;
1023:/opt/XMClib/XMC_Peripheral_Library_v2.1.16/XMCLib/src/xmc_usbd.c ****   xmc_device.endpoint_in_register[ep_num]->diepint = clear.d32;
1024:/opt/XMClib/XMC_Peripheral_Library_v2.1.16/XMCLib/src/xmc_usbd.c **** }
1025:/opt/XMClib/XMC_Peripheral_Library_v2.1.16/XMCLib/src/xmc_usbd.c **** 
1026:/opt/XMClib/XMC_Peripheral_Library_v2.1.16/XMCLib/src/xmc_usbd.c **** /**
1027:/opt/XMClib/XMC_Peripheral_Library_v2.1.16/XMCLib/src/xmc_usbd.c ****  * Clear the USB OUT EP events
1028:/opt/XMClib/XMC_Peripheral_Library_v2.1.16/XMCLib/src/xmc_usbd.c ****  **/
1029:/opt/XMClib/XMC_Peripheral_Library_v2.1.16/XMCLib/src/xmc_usbd.c **** void XMC_USBD_ClearEventOUTEP(uint32_t event,const uint8_t ep_num)
1030:/opt/XMClib/XMC_Peripheral_Library_v2.1.16/XMCLib/src/xmc_usbd.c **** {
1031:/opt/XMClib/XMC_Peripheral_Library_v2.1.16/XMCLib/src/xmc_usbd.c ****   doepint_data_t clear;
1032:/opt/XMClib/XMC_Peripheral_Library_v2.1.16/XMCLib/src/xmc_usbd.c ****   clear.d32 = event;
1033:/opt/XMClib/XMC_Peripheral_Library_v2.1.16/XMCLib/src/xmc_usbd.c ****   xmc_device.endpoint_out_register[ep_num]->doepint = clear.d32;
1034:/opt/XMClib/XMC_Peripheral_Library_v2.1.16/XMCLib/src/xmc_usbd.c **** }
1035:/opt/XMClib/XMC_Peripheral_Library_v2.1.16/XMCLib/src/xmc_usbd.c **** 
1036:/opt/XMClib/XMC_Peripheral_Library_v2.1.16/XMCLib/src/xmc_usbd.c **** /**
1037:/opt/XMClib/XMC_Peripheral_Library_v2.1.16/XMCLib/src/xmc_usbd.c ****  * Enable the USB OUT EP events
1038:/opt/XMClib/XMC_Peripheral_Library_v2.1.16/XMCLib/src/xmc_usbd.c ****  **/
1039:/opt/XMClib/XMC_Peripheral_Library_v2.1.16/XMCLib/src/xmc_usbd.c **** void XMC_USBD_EnableEventOUTEP(uint32_t event)
1040:/opt/XMClib/XMC_Peripheral_Library_v2.1.16/XMCLib/src/xmc_usbd.c **** {
1041:/opt/XMClib/XMC_Peripheral_Library_v2.1.16/XMCLib/src/xmc_usbd.c **** 	doepint_data_t doepint;
1042:/opt/XMClib/XMC_Peripheral_Library_v2.1.16/XMCLib/src/xmc_usbd.c **** 	doepint.d32 = event;
1043:/opt/XMClib/XMC_Peripheral_Library_v2.1.16/XMCLib/src/xmc_usbd.c **** 	xmc_device.device_register->doepmsk |= doepint.d32;
1044:/opt/XMClib/XMC_Peripheral_Library_v2.1.16/XMCLib/src/xmc_usbd.c **** }
1045:/opt/XMClib/XMC_Peripheral_Library_v2.1.16/XMCLib/src/xmc_usbd.c **** 
1046:/opt/XMClib/XMC_Peripheral_Library_v2.1.16/XMCLib/src/xmc_usbd.c **** /**
1047:/opt/XMClib/XMC_Peripheral_Library_v2.1.16/XMCLib/src/xmc_usbd.c ****  * Enable the USB IN EP events
1048:/opt/XMClib/XMC_Peripheral_Library_v2.1.16/XMCLib/src/xmc_usbd.c ****  **/
1049:/opt/XMClib/XMC_Peripheral_Library_v2.1.16/XMCLib/src/xmc_usbd.c **** void XMC_USBD_EnableEventINEP(uint32_t event)
1050:/opt/XMClib/XMC_Peripheral_Library_v2.1.16/XMCLib/src/xmc_usbd.c **** {
1051:/opt/XMClib/XMC_Peripheral_Library_v2.1.16/XMCLib/src/xmc_usbd.c **** 	diepint_data_t diepint;
1052:/opt/XMClib/XMC_Peripheral_Library_v2.1.16/XMCLib/src/xmc_usbd.c **** 	diepint.d32 = event;
1053:/opt/XMClib/XMC_Peripheral_Library_v2.1.16/XMCLib/src/xmc_usbd.c **** 	xmc_device.device_register->diepmsk |= diepint.d32;
1054:/opt/XMClib/XMC_Peripheral_Library_v2.1.16/XMCLib/src/xmc_usbd.c **** }
1055:/opt/XMClib/XMC_Peripheral_Library_v2.1.16/XMCLib/src/xmc_usbd.c **** 
1056:/opt/XMClib/XMC_Peripheral_Library_v2.1.16/XMCLib/src/xmc_usbd.c **** /**
1057:/opt/XMClib/XMC_Peripheral_Library_v2.1.16/XMCLib/src/xmc_usbd.c ****  * Gets the USB device capabilities
1058:/opt/XMClib/XMC_Peripheral_Library_v2.1.16/XMCLib/src/xmc_usbd.c ****  **/
1059:/opt/XMClib/XMC_Peripheral_Library_v2.1.16/XMCLib/src/xmc_usbd.c **** XMC_USBD_CAPABILITIES_t XMC_USBD_GetCapabilities()
1060:/opt/XMClib/XMC_Peripheral_Library_v2.1.16/XMCLib/src/xmc_usbd.c **** {
 313              		.loc 1 1060 0
 314              		.cfi_startproc
 315              		@ args = 0, pretend = 0, frame = 0
 316              		@ frame_needed = 0, uses_anonymous_args = 0
 317              		@ link register save eliminated.
 318              	.LVL28:
1061:/opt/XMClib/XMC_Peripheral_Library_v2.1.16/XMCLib/src/xmc_usbd.c ****   XMC_USBD_CAPABILITIES_t cap={0U};
1062:/opt/XMClib/XMC_Peripheral_Library_v2.1.16/XMCLib/src/xmc_usbd.c ****   cap.event_connect = 1U;
1063:/opt/XMClib/XMC_Peripheral_Library_v2.1.16/XMCLib/src/xmc_usbd.c ****   cap.event_disconnect = 1U;
1064:/opt/XMClib/XMC_Peripheral_Library_v2.1.16/XMCLib/src/xmc_usbd.c **** #if UC_SERIES == 45
1065:/opt/XMClib/XMC_Peripheral_Library_v2.1.16/XMCLib/src/xmc_usbd.c ****   cap.event_power_off = 1U;
1066:/opt/XMClib/XMC_Peripheral_Library_v2.1.16/XMCLib/src/xmc_usbd.c ****   cap.event_power_on = 1U;
1067:/opt/XMClib/XMC_Peripheral_Library_v2.1.16/XMCLib/src/xmc_usbd.c **** #else
1068:/opt/XMClib/XMC_Peripheral_Library_v2.1.16/XMCLib/src/xmc_usbd.c ****   cap.event_power_off = 0U;
1069:/opt/XMClib/XMC_Peripheral_Library_v2.1.16/XMCLib/src/xmc_usbd.c ****   cap.event_power_on = 0U;
1070:/opt/XMClib/XMC_Peripheral_Library_v2.1.16/XMCLib/src/xmc_usbd.c **** #endif
1071:/opt/XMClib/XMC_Peripheral_Library_v2.1.16/XMCLib/src/xmc_usbd.c ****   cap.event_high_speed = 0U;
1072:/opt/XMClib/XMC_Peripheral_Library_v2.1.16/XMCLib/src/xmc_usbd.c ****   cap.event_remote_wakeup = 1U;
1073:/opt/XMClib/XMC_Peripheral_Library_v2.1.16/XMCLib/src/xmc_usbd.c ****   cap.event_reset = 1U;
1074:/opt/XMClib/XMC_Peripheral_Library_v2.1.16/XMCLib/src/xmc_usbd.c ****   cap.event_resume = 1U;
1075:/opt/XMClib/XMC_Peripheral_Library_v2.1.16/XMCLib/src/xmc_usbd.c ****   cap.event_suspend = 1U;
1076:/opt/XMClib/XMC_Peripheral_Library_v2.1.16/XMCLib/src/xmc_usbd.c ****   cap.reserved = 0U;
1077:/opt/XMClib/XMC_Peripheral_Library_v2.1.16/XMCLib/src/xmc_usbd.c ****   return cap;
1078:/opt/XMClib/XMC_Peripheral_Library_v2.1.16/XMCLib/src/xmc_usbd.c **** }
 319              		.loc 1 1078 0
 320 0000 40F2DF10 		movw	r0, #479
 321 0004 7047     		bx	lr
 322              		.cfi_endproc
 323              	.LFE186:
 325 0006 00BF     		.section	.text.XMC_USBD_DeviceConnect,"ax",%progbits
 326              		.align	1
 327              		.p2align 2,,3
 328              		.global	XMC_USBD_DeviceConnect
 329              		.syntax unified
 330              		.thumb
 331              		.thumb_func
 332              		.fpu fpv4-sp-d16
 334              	XMC_USBD_DeviceConnect:
 335              	.LFB189:
1079:/opt/XMClib/XMC_Peripheral_Library_v2.1.16/XMCLib/src/xmc_usbd.c **** 
1080:/opt/XMClib/XMC_Peripheral_Library_v2.1.16/XMCLib/src/xmc_usbd.c **** /**
1081:/opt/XMClib/XMC_Peripheral_Library_v2.1.16/XMCLib/src/xmc_usbd.c ****  * Initializes the USB device
1082:/opt/XMClib/XMC_Peripheral_Library_v2.1.16/XMCLib/src/xmc_usbd.c ****  **/
1083:/opt/XMClib/XMC_Peripheral_Library_v2.1.16/XMCLib/src/xmc_usbd.c **** XMC_USBD_STATUS_t XMC_USBD_Init(XMC_USBD_t *obj)
1084:/opt/XMClib/XMC_Peripheral_Library_v2.1.16/XMCLib/src/xmc_usbd.c **** {
1085:/opt/XMClib/XMC_Peripheral_Library_v2.1.16/XMCLib/src/xmc_usbd.c ****   uint8_t *XMC_USBD_BASE_ADDRESS;
1086:/opt/XMClib/XMC_Peripheral_Library_v2.1.16/XMCLib/src/xmc_usbd.c ****   uint32_t i;
1087:/opt/XMClib/XMC_Peripheral_Library_v2.1.16/XMCLib/src/xmc_usbd.c ****   gahbcfg_data_t gahbcfg;
1088:/opt/XMClib/XMC_Peripheral_Library_v2.1.16/XMCLib/src/xmc_usbd.c ****   gusbcfg_data_t gusbcfg;
1089:/opt/XMClib/XMC_Peripheral_Library_v2.1.16/XMCLib/src/xmc_usbd.c ****   dcfg_data_t dcfg;
1090:/opt/XMClib/XMC_Peripheral_Library_v2.1.16/XMCLib/src/xmc_usbd.c ****   dctl_data_t dctl;
1091:/opt/XMClib/XMC_Peripheral_Library_v2.1.16/XMCLib/src/xmc_usbd.c ****   gintmsk_data_t gintmsk;
1092:/opt/XMClib/XMC_Peripheral_Library_v2.1.16/XMCLib/src/xmc_usbd.c **** 
1093:/opt/XMClib/XMC_Peripheral_Library_v2.1.16/XMCLib/src/xmc_usbd.c ****   XMC_ASSERT("XMC_USBD_Init: obj.usbd_max_num_eps not of type XMC_USBD_MAX_NUM_EPS_t",
1094:/opt/XMClib/XMC_Peripheral_Library_v2.1.16/XMCLib/src/xmc_usbd.c ****  		      XMC_USBD_CHECK_INPUT_MAX_NUM_EPS(obj->usbd_max_num_eps))
1095:/opt/XMClib/XMC_Peripheral_Library_v2.1.16/XMCLib/src/xmc_usbd.c ****   
1096:/opt/XMClib/XMC_Peripheral_Library_v2.1.16/XMCLib/src/xmc_usbd.c ****   XMC_USBD_Enable();
1097:/opt/XMClib/XMC_Peripheral_Library_v2.1.16/XMCLib/src/xmc_usbd.c ****   
1098:/opt/XMClib/XMC_Peripheral_Library_v2.1.16/XMCLib/src/xmc_usbd.c ****   usbd_init = obj;
1099:/opt/XMClib/XMC_Peripheral_Library_v2.1.16/XMCLib/src/xmc_usbd.c **** 
1100:/opt/XMClib/XMC_Peripheral_Library_v2.1.16/XMCLib/src/xmc_usbd.c ****   /* Filling out buffer size */
1101:/opt/XMClib/XMC_Peripheral_Library_v2.1.16/XMCLib/src/xmc_usbd.c ****   for(i = 0U;i < (uint32_t)XMC_USBD_NUM_EPS;i++)
1102:/opt/XMClib/XMC_Peripheral_Library_v2.1.16/XMCLib/src/xmc_usbd.c ****   {
1103:/opt/XMClib/XMC_Peripheral_Library_v2.1.16/XMCLib/src/xmc_usbd.c **** 	  XMC_USBD_EP_OUT_BUFFERSIZE[i] = XMC_USBD_EP0_BUFFER_SIZE;
1104:/opt/XMClib/XMC_Peripheral_Library_v2.1.16/XMCLib/src/xmc_usbd.c **** 	  XMC_USBD_EP_IN_BUFFERSIZE[i] 	= XMC_USBD_EP0_BUFFER_SIZE;
1105:/opt/XMClib/XMC_Peripheral_Library_v2.1.16/XMCLib/src/xmc_usbd.c ****   }
1106:/opt/XMClib/XMC_Peripheral_Library_v2.1.16/XMCLib/src/xmc_usbd.c **** 
1107:/opt/XMClib/XMC_Peripheral_Library_v2.1.16/XMCLib/src/xmc_usbd.c ****   /* clear device status */
1108:/opt/XMClib/XMC_Peripheral_Library_v2.1.16/XMCLib/src/xmc_usbd.c ****   memset((void*)&xmc_device,0x0U,sizeof(XMC_USBD_DEVICE_t));
1109:/opt/XMClib/XMC_Peripheral_Library_v2.1.16/XMCLib/src/xmc_usbd.c **** 
1110:/opt/XMClib/XMC_Peripheral_Library_v2.1.16/XMCLib/src/xmc_usbd.c ****   /* assign callbacks */
1111:/opt/XMClib/XMC_Peripheral_Library_v2.1.16/XMCLib/src/xmc_usbd.c ****   xmc_device.DeviceEvent_cb = obj->cb_xmc_device_event;
1112:/opt/XMClib/XMC_Peripheral_Library_v2.1.16/XMCLib/src/xmc_usbd.c ****   xmc_device.EndpointEvent_cb = obj->cb_endpoint_event;
1113:/opt/XMClib/XMC_Peripheral_Library_v2.1.16/XMCLib/src/xmc_usbd.c ****   XMC_USBD_BASE_ADDRESS = (uint8_t *)(obj->usbd);
1114:/opt/XMClib/XMC_Peripheral_Library_v2.1.16/XMCLib/src/xmc_usbd.c ****   /* assign register address */
1115:/opt/XMClib/XMC_Peripheral_Library_v2.1.16/XMCLib/src/xmc_usbd.c ****   xmc_device.global_register = (dwc_otg_core_global_regs_t*)(obj->usbd);
1116:/opt/XMClib/XMC_Peripheral_Library_v2.1.16/XMCLib/src/xmc_usbd.c ****   xmc_device.device_register = ((dwc_otg_device_global_regs_t*)(XMC_USBD_BASE_ADDRESS + DWC_DEV_GLO
1117:/opt/XMClib/XMC_Peripheral_Library_v2.1.16/XMCLib/src/xmc_usbd.c ****   for (i = 0U;i < (uint32_t)XMC_USBD_NUM_EPS;i++)
1118:/opt/XMClib/XMC_Peripheral_Library_v2.1.16/XMCLib/src/xmc_usbd.c ****   {
1119:/opt/XMClib/XMC_Peripheral_Library_v2.1.16/XMCLib/src/xmc_usbd.c ****     xmc_device.endpoint_in_register[i] = (dwc_otg_dev_in_ep_regs_t*)(XMC_USBD_BASE_ADDRESS + DWC_DE
1120:/opt/XMClib/XMC_Peripheral_Library_v2.1.16/XMCLib/src/xmc_usbd.c ****     ((uint32_t)DWC_EP_REG_OFFSET*i));
1121:/opt/XMClib/XMC_Peripheral_Library_v2.1.16/XMCLib/src/xmc_usbd.c ****   }
1122:/opt/XMClib/XMC_Peripheral_Library_v2.1.16/XMCLib/src/xmc_usbd.c ****   for (i = 0U;i < (uint32_t)XMC_USBD_NUM_EPS;i++)
1123:/opt/XMClib/XMC_Peripheral_Library_v2.1.16/XMCLib/src/xmc_usbd.c ****   {
1124:/opt/XMClib/XMC_Peripheral_Library_v2.1.16/XMCLib/src/xmc_usbd.c ****     xmc_device.endpoint_out_register[i] = (dwc_otg_dev_out_ep_regs_t*)(XMC_USBD_BASE_ADDRESS +
1125:/opt/XMClib/XMC_Peripheral_Library_v2.1.16/XMCLib/src/xmc_usbd.c ****     									  DWC_DEV_OUT_EP_REG_OFFSET +
1126:/opt/XMClib/XMC_Peripheral_Library_v2.1.16/XMCLib/src/xmc_usbd.c ****     									  ((uint32_t)DWC_EP_REG_OFFSET*i));
1127:/opt/XMClib/XMC_Peripheral_Library_v2.1.16/XMCLib/src/xmc_usbd.c ****   }
1128:/opt/XMClib/XMC_Peripheral_Library_v2.1.16/XMCLib/src/xmc_usbd.c ****   for (i = 0U;i < (uint32_t)XMC_USBD_NUM_TX_FIFOS;i++)
1129:/opt/XMClib/XMC_Peripheral_Library_v2.1.16/XMCLib/src/xmc_usbd.c ****   {
1130:/opt/XMClib/XMC_Peripheral_Library_v2.1.16/XMCLib/src/xmc_usbd.c ****     xmc_device.fifo[i] = (uint32_t*)(XMC_USBD_BASE_ADDRESS +
1131:/opt/XMClib/XMC_Peripheral_Library_v2.1.16/XMCLib/src/xmc_usbd.c ****     						XMC_USBD_TX_FIFO_REG_OFFSET +
1132:/opt/XMClib/XMC_Peripheral_Library_v2.1.16/XMCLib/src/xmc_usbd.c ****     						(i * XMC_USBD_TX_FIFO_OFFSET));
1133:/opt/XMClib/XMC_Peripheral_Library_v2.1.16/XMCLib/src/xmc_usbd.c ****   }
1134:/opt/XMClib/XMC_Peripheral_Library_v2.1.16/XMCLib/src/xmc_usbd.c ****   /* obj data structure for endpoint 0 */
1135:/opt/XMClib/XMC_Peripheral_Library_v2.1.16/XMCLib/src/xmc_usbd.c ****   /* Done by driver core */
1136:/opt/XMClib/XMC_Peripheral_Library_v2.1.16/XMCLib/src/xmc_usbd.c ****   /* configure ahb details */  
1137:/opt/XMClib/XMC_Peripheral_Library_v2.1.16/XMCLib/src/xmc_usbd.c ****   gahbcfg.d32 = xmc_device.global_register->gahbcfg;
1138:/opt/XMClib/XMC_Peripheral_Library_v2.1.16/XMCLib/src/xmc_usbd.c ****   gahbcfg.b.glblintrmsk = 1U; /* enable interrupts ( global mask ) */
1139:/opt/XMClib/XMC_Peripheral_Library_v2.1.16/XMCLib/src/xmc_usbd.c ****   gahbcfg.b.nptxfemplvl_txfemplvl = 1U;
1140:/opt/XMClib/XMC_Peripheral_Library_v2.1.16/XMCLib/src/xmc_usbd.c ****   if(obj->usbd_transfer_mode == XMC_USBD_USE_DMA)
1141:/opt/XMClib/XMC_Peripheral_Library_v2.1.16/XMCLib/src/xmc_usbd.c ****   {
1142:/opt/XMClib/XMC_Peripheral_Library_v2.1.16/XMCLib/src/xmc_usbd.c ****     /* Enable dma if needed */
1143:/opt/XMClib/XMC_Peripheral_Library_v2.1.16/XMCLib/src/xmc_usbd.c ****     gahbcfg.b.dmaenable = 1U; /* enable dma if needed */
1144:/opt/XMClib/XMC_Peripheral_Library_v2.1.16/XMCLib/src/xmc_usbd.c ****   }
1145:/opt/XMClib/XMC_Peripheral_Library_v2.1.16/XMCLib/src/xmc_usbd.c ****   else
1146:/opt/XMClib/XMC_Peripheral_Library_v2.1.16/XMCLib/src/xmc_usbd.c ****   {
1147:/opt/XMClib/XMC_Peripheral_Library_v2.1.16/XMCLib/src/xmc_usbd.c ****     gahbcfg.b.dmaenable = 0U;
1148:/opt/XMClib/XMC_Peripheral_Library_v2.1.16/XMCLib/src/xmc_usbd.c ****   }
1149:/opt/XMClib/XMC_Peripheral_Library_v2.1.16/XMCLib/src/xmc_usbd.c ****   xmc_device.global_register->gahbcfg = gahbcfg.d32;
1150:/opt/XMClib/XMC_Peripheral_Library_v2.1.16/XMCLib/src/xmc_usbd.c ****   /* configure usb details */  
1151:/opt/XMClib/XMC_Peripheral_Library_v2.1.16/XMCLib/src/xmc_usbd.c ****   gusbcfg.d32= xmc_device.global_register->gusbcfg;
1152:/opt/XMClib/XMC_Peripheral_Library_v2.1.16/XMCLib/src/xmc_usbd.c ****   gusbcfg.b.force_dev_mode = 1U; /* force us into device mode */
1153:/opt/XMClib/XMC_Peripheral_Library_v2.1.16/XMCLib/src/xmc_usbd.c ****   gusbcfg.b.srpcap = 1U; /* enable session request protocoll */
1154:/opt/XMClib/XMC_Peripheral_Library_v2.1.16/XMCLib/src/xmc_usbd.c ****   xmc_device.global_register->gusbcfg = gusbcfg.d32;
1155:/opt/XMClib/XMC_Peripheral_Library_v2.1.16/XMCLib/src/xmc_usbd.c **** 
1156:/opt/XMClib/XMC_Peripheral_Library_v2.1.16/XMCLib/src/xmc_usbd.c ****   /* Device init */
1157:/opt/XMClib/XMC_Peripheral_Library_v2.1.16/XMCLib/src/xmc_usbd.c ****   /* configure device speed */  
1158:/opt/XMClib/XMC_Peripheral_Library_v2.1.16/XMCLib/src/xmc_usbd.c ****   dcfg.d32 = xmc_device.device_register->dcfg;
1159:/opt/XMClib/XMC_Peripheral_Library_v2.1.16/XMCLib/src/xmc_usbd.c ****   dcfg.b.devspd = XMC_USBD_DCFG_DEVSPD_FS;
1160:/opt/XMClib/XMC_Peripheral_Library_v2.1.16/XMCLib/src/xmc_usbd.c ****   dcfg.b.descdma = 0U;
1161:/opt/XMClib/XMC_Peripheral_Library_v2.1.16/XMCLib/src/xmc_usbd.c ****   xmc_device.device_register->dcfg = dcfg.d32;
1162:/opt/XMClib/XMC_Peripheral_Library_v2.1.16/XMCLib/src/xmc_usbd.c ****   /* configure device functions */  
1163:/opt/XMClib/XMC_Peripheral_Library_v2.1.16/XMCLib/src/xmc_usbd.c ****   dctl.d32 = xmc_device.device_register->dctl;
1164:/opt/XMClib/XMC_Peripheral_Library_v2.1.16/XMCLib/src/xmc_usbd.c ****   dctl.b.sftdiscon = 1U; /* disconnect the device until its connected by the user */
1165:/opt/XMClib/XMC_Peripheral_Library_v2.1.16/XMCLib/src/xmc_usbd.c ****   /* all other config is done by default register value */
1166:/opt/XMClib/XMC_Peripheral_Library_v2.1.16/XMCLib/src/xmc_usbd.c ****   xmc_device.device_register->dctl = dctl.d32;
1167:/opt/XMClib/XMC_Peripheral_Library_v2.1.16/XMCLib/src/xmc_usbd.c ****   /* flush the fifos for proper operation */
1168:/opt/XMClib/XMC_Peripheral_Library_v2.1.16/XMCLib/src/xmc_usbd.c ****   XMC_USBD_lFlushTXFifo((uint8_t)0x10U); /* 0x10 == all fifos, see doc */
1169:/opt/XMClib/XMC_Peripheral_Library_v2.1.16/XMCLib/src/xmc_usbd.c ****   XMC_USBD_lFlushRXFifo();
1170:/opt/XMClib/XMC_Peripheral_Library_v2.1.16/XMCLib/src/xmc_usbd.c ****   /* Enable Global Interrupts */
1171:/opt/XMClib/XMC_Peripheral_Library_v2.1.16/XMCLib/src/xmc_usbd.c ****   /* clear interrupt status bits prior to unmasking */
1172:/opt/XMClib/XMC_Peripheral_Library_v2.1.16/XMCLib/src/xmc_usbd.c ****   xmc_device.global_register->gintmsk = 0U; /* disable all interrupts */
1173:/opt/XMClib/XMC_Peripheral_Library_v2.1.16/XMCLib/src/xmc_usbd.c ****   xmc_device.global_register->gintsts = 0xFFFFFFFFU; /* clear all interrupts */
1174:/opt/XMClib/XMC_Peripheral_Library_v2.1.16/XMCLib/src/xmc_usbd.c ****  
1175:/opt/XMClib/XMC_Peripheral_Library_v2.1.16/XMCLib/src/xmc_usbd.c ****   gintmsk.d32 = 0U;
1176:/opt/XMClib/XMC_Peripheral_Library_v2.1.16/XMCLib/src/xmc_usbd.c ****   /* enable common interrupts */
1177:/opt/XMClib/XMC_Peripheral_Library_v2.1.16/XMCLib/src/xmc_usbd.c ****   gintmsk.b.modemismatch = 1U;
1178:/opt/XMClib/XMC_Peripheral_Library_v2.1.16/XMCLib/src/xmc_usbd.c ****   gintmsk.b.otgintr = 1U;
1179:/opt/XMClib/XMC_Peripheral_Library_v2.1.16/XMCLib/src/xmc_usbd.c ****   gintmsk.b.sessreqintr = 1U;
1180:/opt/XMClib/XMC_Peripheral_Library_v2.1.16/XMCLib/src/xmc_usbd.c ****   /* enable device interrupts */
1181:/opt/XMClib/XMC_Peripheral_Library_v2.1.16/XMCLib/src/xmc_usbd.c ****   gintmsk.b.usbreset = 1U;
1182:/opt/XMClib/XMC_Peripheral_Library_v2.1.16/XMCLib/src/xmc_usbd.c ****   gintmsk.b.enumdone = 1U;
1183:/opt/XMClib/XMC_Peripheral_Library_v2.1.16/XMCLib/src/xmc_usbd.c ****   gintmsk.b.erlysuspend = 1U;
1184:/opt/XMClib/XMC_Peripheral_Library_v2.1.16/XMCLib/src/xmc_usbd.c ****   gintmsk.b.usbsuspend = 1U;
1185:/opt/XMClib/XMC_Peripheral_Library_v2.1.16/XMCLib/src/xmc_usbd.c ****   gintmsk.b.wkupintr = 1U;
1186:/opt/XMClib/XMC_Peripheral_Library_v2.1.16/XMCLib/src/xmc_usbd.c ****   gintmsk.b.sofintr = 1U;
1187:/opt/XMClib/XMC_Peripheral_Library_v2.1.16/XMCLib/src/xmc_usbd.c ****   if(obj->usbd_transfer_mode == XMC_USBD_USE_FIFO)
1188:/opt/XMClib/XMC_Peripheral_Library_v2.1.16/XMCLib/src/xmc_usbd.c ****   {
1189:/opt/XMClib/XMC_Peripheral_Library_v2.1.16/XMCLib/src/xmc_usbd.c ****     gintmsk.b.rxstsqlvl = 1U;
1190:/opt/XMClib/XMC_Peripheral_Library_v2.1.16/XMCLib/src/xmc_usbd.c ****   }
1191:/opt/XMClib/XMC_Peripheral_Library_v2.1.16/XMCLib/src/xmc_usbd.c ****   gintmsk.b.outepintr = 1U;
1192:/opt/XMClib/XMC_Peripheral_Library_v2.1.16/XMCLib/src/xmc_usbd.c ****   gintmsk.b.inepintr = 1U;
1193:/opt/XMClib/XMC_Peripheral_Library_v2.1.16/XMCLib/src/xmc_usbd.c ****   xmc_device.global_register->gintmsk = gintmsk.d32;
1194:/opt/XMClib/XMC_Peripheral_Library_v2.1.16/XMCLib/src/xmc_usbd.c ****   return XMC_USBD_STATUS_OK;
1195:/opt/XMClib/XMC_Peripheral_Library_v2.1.16/XMCLib/src/xmc_usbd.c **** }
1196:/opt/XMClib/XMC_Peripheral_Library_v2.1.16/XMCLib/src/xmc_usbd.c **** 
1197:/opt/XMClib/XMC_Peripheral_Library_v2.1.16/XMCLib/src/xmc_usbd.c **** /**
1198:/opt/XMClib/XMC_Peripheral_Library_v2.1.16/XMCLib/src/xmc_usbd.c ****  * Uninitializes the USB device
1199:/opt/XMClib/XMC_Peripheral_Library_v2.1.16/XMCLib/src/xmc_usbd.c ****  **/
1200:/opt/XMClib/XMC_Peripheral_Library_v2.1.16/XMCLib/src/xmc_usbd.c **** XMC_USBD_STATUS_t XMC_USBD_Uninitialize() 
1201:/opt/XMClib/XMC_Peripheral_Library_v2.1.16/XMCLib/src/xmc_usbd.c **** {
1202:/opt/XMClib/XMC_Peripheral_Library_v2.1.16/XMCLib/src/xmc_usbd.c ****   /* Disconnect the device */
1203:/opt/XMClib/XMC_Peripheral_Library_v2.1.16/XMCLib/src/xmc_usbd.c ****   dctl_data_t dctl;
1204:/opt/XMClib/XMC_Peripheral_Library_v2.1.16/XMCLib/src/xmc_usbd.c **** 	dctl.d32 = xmc_device.device_register->dctl;
1205:/opt/XMClib/XMC_Peripheral_Library_v2.1.16/XMCLib/src/xmc_usbd.c ****   dctl.b.sftdiscon = 1U;
1206:/opt/XMClib/XMC_Peripheral_Library_v2.1.16/XMCLib/src/xmc_usbd.c ****   xmc_device.device_register->dctl = dctl.d32;
1207:/opt/XMClib/XMC_Peripheral_Library_v2.1.16/XMCLib/src/xmc_usbd.c ****   /* clean up */
1208:/opt/XMClib/XMC_Peripheral_Library_v2.1.16/XMCLib/src/xmc_usbd.c ****   memset((void*)&xmc_device,0U,sizeof(xmc_device));
1209:/opt/XMClib/XMC_Peripheral_Library_v2.1.16/XMCLib/src/xmc_usbd.c ****   return XMC_USBD_STATUS_OK;
1210:/opt/XMClib/XMC_Peripheral_Library_v2.1.16/XMCLib/src/xmc_usbd.c **** }
1211:/opt/XMClib/XMC_Peripheral_Library_v2.1.16/XMCLib/src/xmc_usbd.c **** 
1212:/opt/XMClib/XMC_Peripheral_Library_v2.1.16/XMCLib/src/xmc_usbd.c **** /**
1213:/opt/XMClib/XMC_Peripheral_Library_v2.1.16/XMCLib/src/xmc_usbd.c ****  * Connects the USB device to host
1214:/opt/XMClib/XMC_Peripheral_Library_v2.1.16/XMCLib/src/xmc_usbd.c ****  **/
1215:/opt/XMClib/XMC_Peripheral_Library_v2.1.16/XMCLib/src/xmc_usbd.c **** XMC_USBD_STATUS_t XMC_USBD_DeviceConnect() 
1216:/opt/XMClib/XMC_Peripheral_Library_v2.1.16/XMCLib/src/xmc_usbd.c **** {
 336              		.loc 1 1216 0
 337              		.cfi_startproc
 338              		@ args = 0, pretend = 0, frame = 0
 339              		@ frame_needed = 0, uses_anonymous_args = 0
 340              		@ link register save eliminated.
1217:/opt/XMClib/XMC_Peripheral_Library_v2.1.16/XMCLib/src/xmc_usbd.c ****   /* Just disable softdisconnect */
1218:/opt/XMClib/XMC_Peripheral_Library_v2.1.16/XMCLib/src/xmc_usbd.c ****   dctl_data_t dctl;
1219:/opt/XMClib/XMC_Peripheral_Library_v2.1.16/XMCLib/src/xmc_usbd.c **** 	dctl.d32 = xmc_device.device_register->dctl;
 341              		.loc 1 1219 0
 342 0000 044B     		ldr	r3, .L29
 343 0002 D3F8A421 		ldr	r2, [r3, #420]
 344 0006 5368     		ldr	r3, [r2, #4]
1220:/opt/XMClib/XMC_Peripheral_Library_v2.1.16/XMCLib/src/xmc_usbd.c ****   dctl.b.sftdiscon = 0U;
 345              		.loc 1 1220 0
 346 0008 6FF34103 		bfc	r3, #1, #1
 347              	.LVL29:
1221:/opt/XMClib/XMC_Peripheral_Library_v2.1.16/XMCLib/src/xmc_usbd.c ****   xmc_device.device_register->dctl = dctl.d32;
 348              		.loc 1 1221 0
 349 000c 5360     		str	r3, [r2, #4]
1222:/opt/XMClib/XMC_Peripheral_Library_v2.1.16/XMCLib/src/xmc_usbd.c ****   return XMC_USBD_STATUS_OK;
1223:/opt/XMClib/XMC_Peripheral_Library_v2.1.16/XMCLib/src/xmc_usbd.c **** }
 350              		.loc 1 1223 0
 351 000e 0020     		movs	r0, #0
 352 0010 7047     		bx	lr
 353              	.L30:
 354 0012 00BF     		.align	2
 355              	.L29:
 356 0014 00000000 		.word	xmc_device
 357              		.cfi_endproc
 358              	.LFE189:
 360              		.section	.text.XMC_USBD_DeviceDisconnect,"ax",%progbits
 361              		.align	1
 362              		.p2align 2,,3
 363              		.global	XMC_USBD_DeviceDisconnect
 364              		.syntax unified
 365              		.thumb
 366              		.thumb_func
 367              		.fpu fpv4-sp-d16
 369              	XMC_USBD_DeviceDisconnect:
 370              	.LFB190:
1224:/opt/XMClib/XMC_Peripheral_Library_v2.1.16/XMCLib/src/xmc_usbd.c **** 
1225:/opt/XMClib/XMC_Peripheral_Library_v2.1.16/XMCLib/src/xmc_usbd.c **** /**
1226:/opt/XMClib/XMC_Peripheral_Library_v2.1.16/XMCLib/src/xmc_usbd.c ****  * Disconnects the USB device from host
1227:/opt/XMClib/XMC_Peripheral_Library_v2.1.16/XMCLib/src/xmc_usbd.c ****  **/
1228:/opt/XMClib/XMC_Peripheral_Library_v2.1.16/XMCLib/src/xmc_usbd.c **** XMC_USBD_STATUS_t XMC_USBD_DeviceDisconnect() 
1229:/opt/XMClib/XMC_Peripheral_Library_v2.1.16/XMCLib/src/xmc_usbd.c **** {
 371              		.loc 1 1229 0
 372              		.cfi_startproc
 373              		@ args = 0, pretend = 0, frame = 0
 374              		@ frame_needed = 0, uses_anonymous_args = 0
 375              		@ link register save eliminated.
1230:/opt/XMClib/XMC_Peripheral_Library_v2.1.16/XMCLib/src/xmc_usbd.c ****   dctl_data_t dctl;
1231:/opt/XMClib/XMC_Peripheral_Library_v2.1.16/XMCLib/src/xmc_usbd.c **** 	dctl.d32 = xmc_device.device_register->dctl;
 376              		.loc 1 1231 0
 377 0000 044B     		ldr	r3, .L32
 378 0002 D3F8A421 		ldr	r2, [r3, #420]
 379 0006 5368     		ldr	r3, [r2, #4]
1232:/opt/XMClib/XMC_Peripheral_Library_v2.1.16/XMCLib/src/xmc_usbd.c ****   dctl.b.sftdiscon = 1U;
 380              		.loc 1 1232 0
 381 0008 43F00203 		orr	r3, r3, #2
 382              	.LVL30:
1233:/opt/XMClib/XMC_Peripheral_Library_v2.1.16/XMCLib/src/xmc_usbd.c ****   xmc_device.device_register->dctl = dctl.d32;
 383              		.loc 1 1233 0
 384 000c 5360     		str	r3, [r2, #4]
1234:/opt/XMClib/XMC_Peripheral_Library_v2.1.16/XMCLib/src/xmc_usbd.c ****   return XMC_USBD_STATUS_OK;
1235:/opt/XMClib/XMC_Peripheral_Library_v2.1.16/XMCLib/src/xmc_usbd.c **** }
 385              		.loc 1 1235 0
 386 000e 0020     		movs	r0, #0
 387 0010 7047     		bx	lr
 388              	.L33:
 389 0012 00BF     		.align	2
 390              	.L32:
 391 0014 00000000 		.word	xmc_device
 392              		.cfi_endproc
 393              	.LFE190:
 395              		.section	.text.XMC_USBD_DeviceGetState,"ax",%progbits
 396              		.align	1
 397              		.p2align 2,,3
 398              		.global	XMC_USBD_DeviceGetState
 399              		.syntax unified
 400              		.thumb
 401              		.thumb_func
 402              		.fpu fpv4-sp-d16
 404              	XMC_USBD_DeviceGetState:
 405              	.LFB191:
1236:/opt/XMClib/XMC_Peripheral_Library_v2.1.16/XMCLib/src/xmc_usbd.c **** 
1237:/opt/XMClib/XMC_Peripheral_Library_v2.1.16/XMCLib/src/xmc_usbd.c **** /**
1238:/opt/XMClib/XMC_Peripheral_Library_v2.1.16/XMCLib/src/xmc_usbd.c ****  * Gets the USB device state.
1239:/opt/XMClib/XMC_Peripheral_Library_v2.1.16/XMCLib/src/xmc_usbd.c ****  **/
1240:/opt/XMClib/XMC_Peripheral_Library_v2.1.16/XMCLib/src/xmc_usbd.c **** XMC_USBD_STATE_t XMC_USBD_DeviceGetState(const XMC_USBD_t *const obj) 
1241:/opt/XMClib/XMC_Peripheral_Library_v2.1.16/XMCLib/src/xmc_usbd.c **** {
 406              		.loc 1 1241 0
 407              		.cfi_startproc
 408              		@ args = 0, pretend = 0, frame = 0
 409              		@ frame_needed = 0, uses_anonymous_args = 0
 410              		@ link register save eliminated.
 411              	.LVL31:
 412 0000 F0B4     		push	{r4, r5, r6, r7}
 413              	.LCFI4:
 414              		.cfi_def_cfa_offset 16
 415              		.cfi_offset 4, -16
 416              		.cfi_offset 5, -12
 417              		.cfi_offset 6, -8
 418              		.cfi_offset 7, -4
1242:/opt/XMClib/XMC_Peripheral_Library_v2.1.16/XMCLib/src/xmc_usbd.c ****   XMC_USBD_STATE_t state={0U};
1243:/opt/XMClib/XMC_Peripheral_Library_v2.1.16/XMCLib/src/xmc_usbd.c ****   state.speed = XMC_USBD_SPEED_FULL;
1244:/opt/XMClib/XMC_Peripheral_Library_v2.1.16/XMCLib/src/xmc_usbd.c ****   state.connected = xmc_device.IsConnected;
 419              		.loc 1 1244 0
 420 0002 194D     		ldr	r5, .L45
 421              	.LBB85:
 422              	.LBB86:
 184:/opt/XMClib/XMC_Peripheral_Library_v2.1.16/XMCLib/src/xmc_usbd.c ****   {
 423              		.loc 1 184 0
 424 0004 067B     		ldrb	r6, [r0, #12]	@ zero_extendqisi2
 425              	.LBE86:
 426              	.LBE85:
 427              		.loc 1 1244 0
 428 0006 95F8FEC1 		ldrb	ip, [r5, #510]	@ zero_extendqisi2
1242:/opt/XMClib/XMC_Peripheral_Library_v2.1.16/XMCLib/src/xmc_usbd.c ****   XMC_USBD_STATE_t state={0U};
 429              		.loc 1 1242 0
 430 000a 0020     		movs	r0, #0
 431              	.LVL32:
 432              		.loc 1 1244 0
 433 000c 0CF0010C 		and	ip, ip, #1
 434              	.LVL33:
 435              	.LBB89:
 436              	.LBB87:
 184:/opt/XMClib/XMC_Peripheral_Library_v2.1.16/XMCLib/src/xmc_usbd.c ****   {
 437              		.loc 1 184 0
 438 0010 46B3     		cbz	r6, .L38
 439              	.LVL34:
 440 0012 0346     		mov	r3, r0
 183:/opt/XMClib/XMC_Peripheral_Library_v2.1.16/XMCLib/src/xmc_usbd.c ****   for (i = 0U; i < (uint8_t)obj->usbd_max_num_eps; i++)
 441              		.loc 1 183 0
 442 0014 0146     		mov	r1, r0
 186:/opt/XMClib/XMC_Peripheral_Library_v2.1.16/XMCLib/src/xmc_usbd.c ****     {
 443              		.loc 1 186 0
 444 0016 3427     		movs	r7, #52
 445 0018 08E0     		b	.L37
 446              	.LVL35:
 447              	.L44:
 448 001a 5268     		ldr	r2, [r2, #4]
 449 001c 0133     		adds	r3, r3, #1
 450              	.LVL36:
 188:/opt/XMClib/XMC_Peripheral_Library_v2.1.16/XMCLib/src/xmc_usbd.c ****     }
 451              		.loc 1 188 0
 452 001e 12F0100F 		tst	r2, #16
 184:/opt/XMClib/XMC_Peripheral_Library_v2.1.16/XMCLib/src/xmc_usbd.c ****   {
 453              		.loc 1 184 0
 454 0022 DAB2     		uxtb	r2, r3
 188:/opt/XMClib/XMC_Peripheral_Library_v2.1.16/XMCLib/src/xmc_usbd.c ****     }
 455              		.loc 1 188 0
 456 0024 18BF     		it	ne
 457 0026 0121     		movne	r1, #1
 458              	.LVL37:
 184:/opt/XMClib/XMC_Peripheral_Library_v2.1.16/XMCLib/src/xmc_usbd.c ****   {
 459              		.loc 1 184 0
 460 0028 B242     		cmp	r2, r6
 461 002a 0AD2     		bcs	.L43
 462              	.LVL38:
 463              	.L37:
 186:/opt/XMClib/XMC_Peripheral_Library_v2.1.16/XMCLib/src/xmc_usbd.c ****     {
 464              		.loc 1 186 0
 465 002c 07FB0352 		mla	r2, r7, r3, r5
 466 0030 5468     		ldr	r4, [r2, #4]
 467 0032 2407     		lsls	r4, r4, #28
 468 0034 F1D5     		bpl	.L44
 469 0036 0133     		adds	r3, r3, #1
 470              	.LVL39:
 184:/opt/XMClib/XMC_Peripheral_Library_v2.1.16/XMCLib/src/xmc_usbd.c ****   {
 471              		.loc 1 184 0
 472 0038 DAB2     		uxtb	r2, r3
 473 003a B242     		cmp	r2, r6
 188:/opt/XMClib/XMC_Peripheral_Library_v2.1.16/XMCLib/src/xmc_usbd.c ****     }
 474              		.loc 1 188 0
 475 003c 4FF00101 		mov	r1, #1
 476              	.LVL40:
 184:/opt/XMClib/XMC_Peripheral_Library_v2.1.16/XMCLib/src/xmc_usbd.c ****   {
 477              		.loc 1 184 0
 478 0040 F4D3     		bcc	.L37
 479              	.L43:
 480 0042 01F00101 		and	r1, r1, #1
 481              	.LVL41:
 482              	.L35:
 483              	.LBE87:
 484              	.LBE89:
1245:/opt/XMClib/XMC_Peripheral_Library_v2.1.16/XMCLib/src/xmc_usbd.c ****   state.active = XMC_USBD_lDeviceActive(obj);
1246:/opt/XMClib/XMC_Peripheral_Library_v2.1.16/XMCLib/src/xmc_usbd.c ****   state.powered = xmc_device.IsPowered;
 485              		.loc 1 1246 0
 486 0046 95F8FE31 		ldrb	r3, [r5, #510]	@ zero_extendqisi2
 487 004a C3F38003 		ubfx	r3, r3, #2, #1
1247:/opt/XMClib/XMC_Peripheral_Library_v2.1.16/XMCLib/src/xmc_usbd.c ****   return state;
 488              		.loc 1 1247 0
 489 004e 63F30000 		bfi	r0, r3, #0, #1
 490 0052 6CF34100 		bfi	r0, ip, #1, #1
 491 0056 61F38200 		bfi	r0, r1, #2, #1
 492 005a 0123     		movs	r3, #1
 493 005c 63F3C400 		bfi	r0, r3, #3, #2
 494              	.LVL42:
1248:/opt/XMClib/XMC_Peripheral_Library_v2.1.16/XMCLib/src/xmc_usbd.c **** }
 495              		.loc 1 1248 0
 496 0060 F0BC     		pop	{r4, r5, r6, r7}
 497              	.LCFI5:
 498              		.cfi_remember_state
 499              		.cfi_restore 7
 500              		.cfi_restore 6
 501              		.cfi_restore 5
 502              		.cfi_restore 4
 503              		.cfi_def_cfa_offset 0
 504              	.LVL43:
 505 0062 7047     		bx	lr
 506              	.LVL44:
 507              	.L38:
 508              	.LCFI6:
 509              		.cfi_restore_state
 510              	.LBB90:
 511              	.LBB88:
 184:/opt/XMClib/XMC_Peripheral_Library_v2.1.16/XMCLib/src/xmc_usbd.c ****   {
 512              		.loc 1 184 0
 513 0064 0146     		mov	r1, r0
 514 0066 EEE7     		b	.L35
 515              	.L46:
 516              		.align	2
 517              	.L45:
 518 0068 00000000 		.word	xmc_device
 519              	.LBE88:
 520              	.LBE90:
 521              		.cfi_endproc
 522              	.LFE191:
 524              		.section	.text.XMC_USBD_EndpointReadStart,"ax",%progbits
 525              		.align	1
 526              		.p2align 2,,3
 527              		.global	XMC_USBD_EndpointReadStart
 528              		.syntax unified
 529              		.thumb
 530              		.thumb_func
 531              		.fpu fpv4-sp-d16
 533              	XMC_USBD_EndpointReadStart:
 534              	.LFB192:
1249:/opt/XMClib/XMC_Peripheral_Library_v2.1.16/XMCLib/src/xmc_usbd.c **** 
1250:/opt/XMClib/XMC_Peripheral_Library_v2.1.16/XMCLib/src/xmc_usbd.c **** /**
1251:/opt/XMClib/XMC_Peripheral_Library_v2.1.16/XMCLib/src/xmc_usbd.c ****  * Prepares the endpoint to read next OUT packet
1252:/opt/XMClib/XMC_Peripheral_Library_v2.1.16/XMCLib/src/xmc_usbd.c ****  **/
1253:/opt/XMClib/XMC_Peripheral_Library_v2.1.16/XMCLib/src/xmc_usbd.c **** XMC_USBD_STATUS_t XMC_USBD_EndpointReadStart(const uint8_t ep_addr, uint32_t size) 
1254:/opt/XMClib/XMC_Peripheral_Library_v2.1.16/XMCLib/src/xmc_usbd.c **** {
 535              		.loc 1 1254 0
 536              		.cfi_startproc
 537              		@ args = 0, pretend = 0, frame = 0
 538              		@ frame_needed = 0, uses_anonymous_args = 0
 539              	.LVL45:
 540 0000 70B5     		push	{r4, r5, r6, lr}
 541              	.LCFI7:
 542              		.cfi_def_cfa_offset 16
 543              		.cfi_offset 4, -16
 544              		.cfi_offset 5, -12
 545              		.cfi_offset 6, -8
 546              		.cfi_offset 14, -4
1255:/opt/XMClib/XMC_Peripheral_Library_v2.1.16/XMCLib/src/xmc_usbd.c ****   XMC_USBD_EP_t *ep = &xmc_device.ep[ep_addr & (uint8_t)XMC_USBD_EP_NUM_MASK];
1256:/opt/XMClib/XMC_Peripheral_Library_v2.1.16/XMCLib/src/xmc_usbd.c ****   XMC_USBD_STATUS_t result;
1257:/opt/XMClib/XMC_Peripheral_Library_v2.1.16/XMCLib/src/xmc_usbd.c **** 	
1258:/opt/XMClib/XMC_Peripheral_Library_v2.1.16/XMCLib/src/xmc_usbd.c ****   if (ep->outInUse || !ep->isConfigured)
 547              		.loc 1 1258 0
 548 0002 114A     		ldr	r2, .L52
 549 0004 00F00F00 		and	r0, r0, #15
 550              	.LVL46:
 551 0008 3423     		movs	r3, #52
 552 000a 03FB0023 		mla	r3, r3, r0, r2
 553 000e 5C68     		ldr	r4, [r3, #4]
 554 0010 C4F30014 		ubfx	r4, r4, #4, #1
 555 0014 B4B9     		cbnz	r4, .L50
 556              		.loc 1 1258 0 is_stmt 0 discriminator 1
 557 0016 1D79     		ldrb	r5, [r3, #4]	@ zero_extendqisi2
 558 0018 6D07     		lsls	r5, r5, #29
 559 001a 13D5     		bpl	.L50
 560              	.LVL47:
1259:/opt/XMClib/XMC_Peripheral_Library_v2.1.16/XMCLib/src/xmc_usbd.c ****   {
1260:/opt/XMClib/XMC_Peripheral_Library_v2.1.16/XMCLib/src/xmc_usbd.c ****     result = XMC_USBD_STATUS_ERROR;
1261:/opt/XMClib/XMC_Peripheral_Library_v2.1.16/XMCLib/src/xmc_usbd.c ****   }
1262:/opt/XMClib/XMC_Peripheral_Library_v2.1.16/XMCLib/src/xmc_usbd.c ****   else
1263:/opt/XMClib/XMC_Peripheral_Library_v2.1.16/XMCLib/src/xmc_usbd.c ****   {
1264:/opt/XMClib/XMC_Peripheral_Library_v2.1.16/XMCLib/src/xmc_usbd.c ****     /* short the length to buffer size if needed */
1265:/opt/XMClib/XMC_Peripheral_Library_v2.1.16/XMCLib/src/xmc_usbd.c ****     if (size > ep->outBufferSize)
1266:/opt/XMClib/XMC_Peripheral_Library_v2.1.16/XMCLib/src/xmc_usbd.c ****     {
1267:/opt/XMClib/XMC_Peripheral_Library_v2.1.16/XMCLib/src/xmc_usbd.c ****       size = ep->outBufferSize;
1268:/opt/XMClib/XMC_Peripheral_Library_v2.1.16/XMCLib/src/xmc_usbd.c ****     }
1269:/opt/XMClib/XMC_Peripheral_Library_v2.1.16/XMCLib/src/xmc_usbd.c ****     /* set ep values */
1270:/opt/XMClib/XMC_Peripheral_Library_v2.1.16/XMCLib/src/xmc_usbd.c ****     ep->xferTotal = size;
 561              		.loc 1 1270 0 is_stmt 1
 562 001c 5E69     		ldr	r6, [r3, #20]
1271:/opt/XMClib/XMC_Peripheral_Library_v2.1.16/XMCLib/src/xmc_usbd.c ****     ep->xferCount = 0U;
1272:/opt/XMClib/XMC_Peripheral_Library_v2.1.16/XMCLib/src/xmc_usbd.c ****     ep->xferLength = 0U;
1273:/opt/XMClib/XMC_Peripheral_Library_v2.1.16/XMCLib/src/xmc_usbd.c ****     ep->xferBuffer = ep->outBuffer;
 563              		.loc 1 1273 0
 564 001e DD68     		ldr	r5, [r3, #12]
1271:/opt/XMClib/XMC_Peripheral_Library_v2.1.16/XMCLib/src/xmc_usbd.c ****     ep->xferCount = 0U;
 565              		.loc 1 1271 0
 566 0020 DC62     		str	r4, [r3, #44]
1270:/opt/XMClib/XMC_Peripheral_Library_v2.1.16/XMCLib/src/xmc_usbd.c ****     ep->xferCount = 0U;
 567              		.loc 1 1270 0
 568 0022 B142     		cmp	r1, r6
 569 0024 28BF     		it	cs
 570 0026 3146     		movcs	r1, r6
 571              	.LVL48:
1255:/opt/XMClib/XMC_Peripheral_Library_v2.1.16/XMCLib/src/xmc_usbd.c ****   XMC_USBD_STATUS_t result;
 572              		.loc 1 1255 0
 573 0028 00EB4006 		add	r6, r0, r0, lsl #1
 574 002c 00EB8600 		add	r0, r0, r6, lsl #2
 575              	.LVL49:
1274:/opt/XMClib/XMC_Peripheral_Library_v2.1.16/XMCLib/src/xmc_usbd.c ****     ep->outBytesAvailable = 0U;
1275:/opt/XMClib/XMC_Peripheral_Library_v2.1.16/XMCLib/src/xmc_usbd.c ****     XMC_USBD_lStartReadXfer(ep);
 576              		.loc 1 1275 0
 577 0030 02EB8000 		add	r0, r2, r0, lsl #2
1272:/opt/XMClib/XMC_Peripheral_Library_v2.1.16/XMCLib/src/xmc_usbd.c ****     ep->xferBuffer = ep->outBuffer;
 578              		.loc 1 1272 0
 579 0034 9C62     		str	r4, [r3, #40]
1274:/opt/XMClib/XMC_Peripheral_Library_v2.1.16/XMCLib/src/xmc_usbd.c ****     ep->outBytesAvailable = 0U;
 580              		.loc 1 1274 0
 581 0036 1C61     		str	r4, [r3, #16]
1270:/opt/XMClib/XMC_Peripheral_Library_v2.1.16/XMCLib/src/xmc_usbd.c ****     ep->xferCount = 0U;
 582              		.loc 1 1270 0
 583 0038 1963     		str	r1, [r3, #48]
1273:/opt/XMClib/XMC_Peripheral_Library_v2.1.16/XMCLib/src/xmc_usbd.c ****     ep->outBytesAvailable = 0U;
 584              		.loc 1 1273 0
 585 003a 5D62     		str	r5, [r3, #36]
 586              		.loc 1 1275 0
 587 003c FFF7FEFF 		bl	XMC_USBD_lStartReadXfer
 588              	.LVL50:
1276:/opt/XMClib/XMC_Peripheral_Library_v2.1.16/XMCLib/src/xmc_usbd.c ****     result= XMC_USBD_STATUS_OK;
 589              		.loc 1 1276 0
 590 0040 2046     		mov	r0, r4
 591              	.LVL51:
1277:/opt/XMClib/XMC_Peripheral_Library_v2.1.16/XMCLib/src/xmc_usbd.c ****   }
1278:/opt/XMClib/XMC_Peripheral_Library_v2.1.16/XMCLib/src/xmc_usbd.c ****   return result;
1279:/opt/XMClib/XMC_Peripheral_Library_v2.1.16/XMCLib/src/xmc_usbd.c **** }
 592              		.loc 1 1279 0
 593 0042 70BD     		pop	{r4, r5, r6, pc}
 594              	.LVL52:
 595              	.L50:
1260:/opt/XMClib/XMC_Peripheral_Library_v2.1.16/XMCLib/src/xmc_usbd.c ****   }
 596              		.loc 1 1260 0
 597 0044 0120     		movs	r0, #1
 598              	.LVL53:
 599              		.loc 1 1279 0
 600 0046 70BD     		pop	{r4, r5, r6, pc}
 601              	.L53:
 602              		.align	2
 603              	.L52:
 604 0048 00000000 		.word	xmc_device
 605              		.cfi_endproc
 606              	.LFE192:
 608              		.section	.text.XMC_USBD_DeviceSetAddress,"ax",%progbits
 609              		.align	1
 610              		.p2align 2,,3
 611              		.global	XMC_USBD_DeviceSetAddress
 612              		.syntax unified
 613              		.thumb
 614              		.thumb_func
 615              		.fpu fpv4-sp-d16
 617              	XMC_USBD_DeviceSetAddress:
 618              	.LFB195:
1280:/opt/XMClib/XMC_Peripheral_Library_v2.1.16/XMCLib/src/xmc_usbd.c **** 
1281:/opt/XMClib/XMC_Peripheral_Library_v2.1.16/XMCLib/src/xmc_usbd.c **** /**
1282:/opt/XMClib/XMC_Peripheral_Library_v2.1.16/XMCLib/src/xmc_usbd.c ****  * Reads the number of bytes from the USB OUT endpoint
1283:/opt/XMClib/XMC_Peripheral_Library_v2.1.16/XMCLib/src/xmc_usbd.c ****  **/
1284:/opt/XMClib/XMC_Peripheral_Library_v2.1.16/XMCLib/src/xmc_usbd.c **** int32_t XMC_USBD_EndpointRead(const uint8_t ep_num,uint8_t * buffer,uint32_t length) 
1285:/opt/XMClib/XMC_Peripheral_Library_v2.1.16/XMCLib/src/xmc_usbd.c **** {
1286:/opt/XMClib/XMC_Peripheral_Library_v2.1.16/XMCLib/src/xmc_usbd.c ****   XMC_USBD_EP_t *ep = &xmc_device.ep[ep_num];
1287:/opt/XMClib/XMC_Peripheral_Library_v2.1.16/XMCLib/src/xmc_usbd.c ****   if (length > ep->outBytesAvailable)
1288:/opt/XMClib/XMC_Peripheral_Library_v2.1.16/XMCLib/src/xmc_usbd.c ****   {
1289:/opt/XMClib/XMC_Peripheral_Library_v2.1.16/XMCLib/src/xmc_usbd.c ****     length = ep->outBytesAvailable;
1290:/opt/XMClib/XMC_Peripheral_Library_v2.1.16/XMCLib/src/xmc_usbd.c ****   }
1291:/opt/XMClib/XMC_Peripheral_Library_v2.1.16/XMCLib/src/xmc_usbd.c ****   memcpy(buffer,&ep->outBuffer[ep->outOffset],length);
1292:/opt/XMClib/XMC_Peripheral_Library_v2.1.16/XMCLib/src/xmc_usbd.c ****   ep->outBytesAvailable -= length;
1293:/opt/XMClib/XMC_Peripheral_Library_v2.1.16/XMCLib/src/xmc_usbd.c ****   if (ep->outBytesAvailable)
1294:/opt/XMClib/XMC_Peripheral_Library_v2.1.16/XMCLib/src/xmc_usbd.c ****   {
1295:/opt/XMClib/XMC_Peripheral_Library_v2.1.16/XMCLib/src/xmc_usbd.c ****     ep->outOffset += length;
1296:/opt/XMClib/XMC_Peripheral_Library_v2.1.16/XMCLib/src/xmc_usbd.c ****   }
1297:/opt/XMClib/XMC_Peripheral_Library_v2.1.16/XMCLib/src/xmc_usbd.c ****   else
1298:/opt/XMClib/XMC_Peripheral_Library_v2.1.16/XMCLib/src/xmc_usbd.c ****   {
1299:/opt/XMClib/XMC_Peripheral_Library_v2.1.16/XMCLib/src/xmc_usbd.c ****     ep->outOffset = 0U;
1300:/opt/XMClib/XMC_Peripheral_Library_v2.1.16/XMCLib/src/xmc_usbd.c ****   }
1301:/opt/XMClib/XMC_Peripheral_Library_v2.1.16/XMCLib/src/xmc_usbd.c ****   return (int32_t)length;
1302:/opt/XMClib/XMC_Peripheral_Library_v2.1.16/XMCLib/src/xmc_usbd.c **** }
1303:/opt/XMClib/XMC_Peripheral_Library_v2.1.16/XMCLib/src/xmc_usbd.c **** 
1304:/opt/XMClib/XMC_Peripheral_Library_v2.1.16/XMCLib/src/xmc_usbd.c **** /**
1305:/opt/XMClib/XMC_Peripheral_Library_v2.1.16/XMCLib/src/xmc_usbd.c ****  * Writes number of bytes in to the USB IN endpoint.
1306:/opt/XMClib/XMC_Peripheral_Library_v2.1.16/XMCLib/src/xmc_usbd.c ****  **/
1307:/opt/XMClib/XMC_Peripheral_Library_v2.1.16/XMCLib/src/xmc_usbd.c **** int32_t XMC_USBD_EndpointWrite(const uint8_t ep_num,const uint8_t * buffer,uint32_t length) 
1308:/opt/XMClib/XMC_Peripheral_Library_v2.1.16/XMCLib/src/xmc_usbd.c **** {
1309:/opt/XMClib/XMC_Peripheral_Library_v2.1.16/XMCLib/src/xmc_usbd.c ****   XMC_USBD_EP_t * ep = &xmc_device.ep[ep_num & (uint8_t)XMC_USBD_EP_NUM_MASK];
1310:/opt/XMClib/XMC_Peripheral_Library_v2.1.16/XMCLib/src/xmc_usbd.c ****   int32_t result;
1311:/opt/XMClib/XMC_Peripheral_Library_v2.1.16/XMCLib/src/xmc_usbd.c ****   if (!ep->isConfigured)
1312:/opt/XMClib/XMC_Peripheral_Library_v2.1.16/XMCLib/src/xmc_usbd.c ****   {
1313:/opt/XMClib/XMC_Peripheral_Library_v2.1.16/XMCLib/src/xmc_usbd.c ****     result = (int32_t)XMC_USBD_STATUS_ERROR;
1314:/opt/XMClib/XMC_Peripheral_Library_v2.1.16/XMCLib/src/xmc_usbd.c ****   }
1315:/opt/XMClib/XMC_Peripheral_Library_v2.1.16/XMCLib/src/xmc_usbd.c ****   else if (ep->inInUse == 1U)
1316:/opt/XMClib/XMC_Peripheral_Library_v2.1.16/XMCLib/src/xmc_usbd.c ****   {
1317:/opt/XMClib/XMC_Peripheral_Library_v2.1.16/XMCLib/src/xmc_usbd.c ****     result=(int32_t)0;
1318:/opt/XMClib/XMC_Peripheral_Library_v2.1.16/XMCLib/src/xmc_usbd.c ****   }
1319:/opt/XMClib/XMC_Peripheral_Library_v2.1.16/XMCLib/src/xmc_usbd.c ****   else
1320:/opt/XMClib/XMC_Peripheral_Library_v2.1.16/XMCLib/src/xmc_usbd.c ****   {
1321:/opt/XMClib/XMC_Peripheral_Library_v2.1.16/XMCLib/src/xmc_usbd.c ****     if (length > ep->inBufferSize)
1322:/opt/XMClib/XMC_Peripheral_Library_v2.1.16/XMCLib/src/xmc_usbd.c ****     {
1323:/opt/XMClib/XMC_Peripheral_Library_v2.1.16/XMCLib/src/xmc_usbd.c ****       length = ep->inBufferSize;
1324:/opt/XMClib/XMC_Peripheral_Library_v2.1.16/XMCLib/src/xmc_usbd.c ****     }
1325:/opt/XMClib/XMC_Peripheral_Library_v2.1.16/XMCLib/src/xmc_usbd.c ****     /* copy data into input buffer for DMA and FIFO mode */
1326:/opt/XMClib/XMC_Peripheral_Library_v2.1.16/XMCLib/src/xmc_usbd.c **** 		memcpy(ep->inBuffer,(const void *)buffer,length);
1327:/opt/XMClib/XMC_Peripheral_Library_v2.1.16/XMCLib/src/xmc_usbd.c **** 		ep->xferBuffer = ep->inBuffer;
1328:/opt/XMClib/XMC_Peripheral_Library_v2.1.16/XMCLib/src/xmc_usbd.c ****     ep->xferTotal = length;
1329:/opt/XMClib/XMC_Peripheral_Library_v2.1.16/XMCLib/src/xmc_usbd.c ****     /* set transfer values */
1330:/opt/XMClib/XMC_Peripheral_Library_v2.1.16/XMCLib/src/xmc_usbd.c ****     ep->xferLength = 0U;
1331:/opt/XMClib/XMC_Peripheral_Library_v2.1.16/XMCLib/src/xmc_usbd.c ****     ep->xferCount = 0U;
1332:/opt/XMClib/XMC_Peripheral_Library_v2.1.16/XMCLib/src/xmc_usbd.c ****     ep->inInUse = 1U;
1333:/opt/XMClib/XMC_Peripheral_Library_v2.1.16/XMCLib/src/xmc_usbd.c ****     /* start the transfer */
1334:/opt/XMClib/XMC_Peripheral_Library_v2.1.16/XMCLib/src/xmc_usbd.c ****     XMC_USBD_lStartWriteXfer(ep);
1335:/opt/XMClib/XMC_Peripheral_Library_v2.1.16/XMCLib/src/xmc_usbd.c ****     result=(int32_t)ep->xferTotal;
1336:/opt/XMClib/XMC_Peripheral_Library_v2.1.16/XMCLib/src/xmc_usbd.c ****   }
1337:/opt/XMClib/XMC_Peripheral_Library_v2.1.16/XMCLib/src/xmc_usbd.c ****   return result;
1338:/opt/XMClib/XMC_Peripheral_Library_v2.1.16/XMCLib/src/xmc_usbd.c **** }
1339:/opt/XMClib/XMC_Peripheral_Library_v2.1.16/XMCLib/src/xmc_usbd.c **** 
1340:/opt/XMClib/XMC_Peripheral_Library_v2.1.16/XMCLib/src/xmc_usbd.c **** /**
1341:/opt/XMClib/XMC_Peripheral_Library_v2.1.16/XMCLib/src/xmc_usbd.c ****  * Sets the USB device address.
1342:/opt/XMClib/XMC_Peripheral_Library_v2.1.16/XMCLib/src/xmc_usbd.c ****  **/
1343:/opt/XMClib/XMC_Peripheral_Library_v2.1.16/XMCLib/src/xmc_usbd.c **** XMC_USBD_STATUS_t XMC_USBD_DeviceSetAddress(const uint8_t address,const XMC_USBD_SET_ADDRESS_STAGE_
1344:/opt/XMClib/XMC_Peripheral_Library_v2.1.16/XMCLib/src/xmc_usbd.c **** {
 619              		.loc 1 1344 0
 620              		.cfi_startproc
 621              		@ args = 0, pretend = 0, frame = 0
 622              		@ frame_needed = 0, uses_anonymous_args = 0
 623              		@ link register save eliminated.
 624              	.LVL54:
1345:/opt/XMClib/XMC_Peripheral_Library_v2.1.16/XMCLib/src/xmc_usbd.c ****   dcfg_data_t data;
1346:/opt/XMClib/XMC_Peripheral_Library_v2.1.16/XMCLib/src/xmc_usbd.c ****   data.d32 = xmc_device.device_register->dcfg;
 625              		.loc 1 1346 0
 626 0000 044B     		ldr	r3, .L56
 627 0002 D3F8A431 		ldr	r3, [r3, #420]
 628 0006 1A68     		ldr	r2, [r3]
 629              	.LVL55:
1347:/opt/XMClib/XMC_Peripheral_Library_v2.1.16/XMCLib/src/xmc_usbd.c ****   if (stage == XMC_USBD_SET_ADDRESS_STAGE_SETUP)
 630              		.loc 1 1347 0
 631 0008 11B9     		cbnz	r1, .L55
1348:/opt/XMClib/XMC_Peripheral_Library_v2.1.16/XMCLib/src/xmc_usbd.c ****   {
1349:/opt/XMClib/XMC_Peripheral_Library_v2.1.16/XMCLib/src/xmc_usbd.c ****     data.b.devaddr = address;
 632              		.loc 1 1349 0
 633 000a 60F30A12 		bfi	r2, r0, #4, #7
1350:/opt/XMClib/XMC_Peripheral_Library_v2.1.16/XMCLib/src/xmc_usbd.c ****     xmc_device.device_register->dcfg = data.d32;
 634              		.loc 1 1350 0
 635 000e 1A60     		str	r2, [r3]
 636              	.L55:
1351:/opt/XMClib/XMC_Peripheral_Library_v2.1.16/XMCLib/src/xmc_usbd.c ****   }
1352:/opt/XMClib/XMC_Peripheral_Library_v2.1.16/XMCLib/src/xmc_usbd.c **** 	return XMC_USBD_STATUS_OK;
1353:/opt/XMClib/XMC_Peripheral_Library_v2.1.16/XMCLib/src/xmc_usbd.c **** }
 637              		.loc 1 1353 0
 638 0010 0020     		movs	r0, #0
 639              	.LVL56:
 640 0012 7047     		bx	lr
 641              	.L57:
 642              		.align	2
 643              	.L56:
 644 0014 00000000 		.word	xmc_device
 645              		.cfi_endproc
 646              	.LFE195:
 648              		.section	.text.XMC_USBD_EndpointStall,"ax",%progbits
 649              		.align	1
 650              		.p2align 2,,3
 651              		.global	XMC_USBD_EndpointStall
 652              		.syntax unified
 653              		.thumb
 654              		.thumb_func
 655              		.fpu fpv4-sp-d16
 657              	XMC_USBD_EndpointStall:
 658              	.LFB196:
1354:/opt/XMClib/XMC_Peripheral_Library_v2.1.16/XMCLib/src/xmc_usbd.c **** 
1355:/opt/XMClib/XMC_Peripheral_Library_v2.1.16/XMCLib/src/xmc_usbd.c **** /**
1356:/opt/XMClib/XMC_Peripheral_Library_v2.1.16/XMCLib/src/xmc_usbd.c ****  * Set/clear stall on the selected endpoint.
1357:/opt/XMClib/XMC_Peripheral_Library_v2.1.16/XMCLib/src/xmc_usbd.c ****  **/
1358:/opt/XMClib/XMC_Peripheral_Library_v2.1.16/XMCLib/src/xmc_usbd.c **** XMC_USBD_STATUS_t XMC_USBD_EndpointStall(const uint8_t ep_addr, const bool stall) 
1359:/opt/XMClib/XMC_Peripheral_Library_v2.1.16/XMCLib/src/xmc_usbd.c **** {
 659              		.loc 1 1359 0
 660              		.cfi_startproc
 661              		@ args = 0, pretend = 0, frame = 0
 662              		@ frame_needed = 0, uses_anonymous_args = 0
 663              		@ link register save eliminated.
 664              	.LVL57:
1360:/opt/XMClib/XMC_Peripheral_Library_v2.1.16/XMCLib/src/xmc_usbd.c ****   depctl_data_t data;
1361:/opt/XMClib/XMC_Peripheral_Library_v2.1.16/XMCLib/src/xmc_usbd.c ****   XMC_USBD_EP_t *ep = &xmc_device.ep[(ep_addr & (uint8_t)XMC_USBD_EP_NUM_MASK)];
 665              		.loc 1 1361 0
 666 0000 00F00F02 		and	r2, r0, #15
 667              	.LVL58:
 668 0004 3423     		movs	r3, #52
1359:/opt/XMClib/XMC_Peripheral_Library_v2.1.16/XMCLib/src/xmc_usbd.c ****   depctl_data_t data;
 669              		.loc 1 1359 0
 670 0006 10B4     		push	{r4}
 671              	.LCFI8:
 672              		.cfi_def_cfa_offset 4
 673              		.cfi_offset 4, -4
 674 0008 03FB02F3 		mul	r3, r3, r2
 675 000c 1B4C     		ldr	r4, .L66
 676 000e E35C     		ldrb	r3, [r4, r3]	@ zero_extendqisi2
 677 0010 40B2     		sxtb	r0, r0
 678 0012 03F00F03 		and	r3, r3, #15
1362:/opt/XMClib/XMC_Peripheral_Library_v2.1.16/XMCLib/src/xmc_usbd.c ****   if (stall)
 679              		.loc 1 1362 0
 680 0016 B9B1     		cbz	r1, .L59
1363:/opt/XMClib/XMC_Peripheral_Library_v2.1.16/XMCLib/src/xmc_usbd.c ****   {
1364:/opt/XMClib/XMC_Peripheral_Library_v2.1.16/XMCLib/src/xmc_usbd.c ****     if (ep_addr & (uint8_t)XMC_USBD_ENDPOINT_DIRECTION_MASK)
 681              		.loc 1 1364 0
 682 0018 0028     		cmp	r0, #0
1365:/opt/XMClib/XMC_Peripheral_Library_v2.1.16/XMCLib/src/xmc_usbd.c ****     {
1366:/opt/XMClib/XMC_Peripheral_Library_v2.1.16/XMCLib/src/xmc_usbd.c ****       /*set stall bit */
1367:/opt/XMClib/XMC_Peripheral_Library_v2.1.16/XMCLib/src/xmc_usbd.c ****       data.d32 = xmc_device.endpoint_in_register[ep->address_u.address_st.number]->diepctl;
1368:/opt/XMClib/XMC_Peripheral_Library_v2.1.16/XMCLib/src/xmc_usbd.c ****       data.b.stall = 1U;
1369:/opt/XMClib/XMC_Peripheral_Library_v2.1.16/XMCLib/src/xmc_usbd.c ****       xmc_device.endpoint_in_register[ep->address_u.address_st.number]->diepctl = data.d32;
1370:/opt/XMClib/XMC_Peripheral_Library_v2.1.16/XMCLib/src/xmc_usbd.c ****     }
1371:/opt/XMClib/XMC_Peripheral_Library_v2.1.16/XMCLib/src/xmc_usbd.c ****     else
1372:/opt/XMClib/XMC_Peripheral_Library_v2.1.16/XMCLib/src/xmc_usbd.c ****     {
1373:/opt/XMClib/XMC_Peripheral_Library_v2.1.16/XMCLib/src/xmc_usbd.c ****       /*set stall bit */
1374:/opt/XMClib/XMC_Peripheral_Library_v2.1.16/XMCLib/src/xmc_usbd.c ****       data.d32 = xmc_device.endpoint_out_register[ep->address_u.address_st.number]->doepctl;
 683              		.loc 1 1374 0
 684 001a ABBF     		itete	ge
 685 001c 04EB8303 		addge	r3, r4, r3, lsl #2
1367:/opt/XMClib/XMC_Peripheral_Library_v2.1.16/XMCLib/src/xmc_usbd.c ****       data.b.stall = 1U;
 686              		.loc 1 1367 0
 687 0020 6A33     		addlt	r3, r3, #106
 688              		.loc 1 1374 0
 689 0022 D3F8C411 		ldrge	r1, [r3, #452]
 690              	.LVL59:
1367:/opt/XMClib/XMC_Peripheral_Library_v2.1.16/XMCLib/src/xmc_usbd.c ****       data.b.stall = 1U;
 691              		.loc 1 1367 0
 692 0026 54F82310 		ldrlt	r1, [r4, r3, lsl #2]
 693              		.loc 1 1374 0
 694 002a 0B68     		ldr	r3, [r1]
1375:/opt/XMClib/XMC_Peripheral_Library_v2.1.16/XMCLib/src/xmc_usbd.c ****       data.b.stall = 1U;
 695              		.loc 1 1375 0
 696 002c 43F40013 		orr	r3, r3, #2097152
 697              	.LVL60:
1376:/opt/XMClib/XMC_Peripheral_Library_v2.1.16/XMCLib/src/xmc_usbd.c ****       xmc_device.endpoint_out_register[ep->address_u.address_st.number]->doepctl = data.d32;
 698              		.loc 1 1376 0
 699 0030 0B60     		str	r3, [r1]
1377:/opt/XMClib/XMC_Peripheral_Library_v2.1.16/XMCLib/src/xmc_usbd.c ****     }
1378:/opt/XMClib/XMC_Peripheral_Library_v2.1.16/XMCLib/src/xmc_usbd.c ****     ep->isStalled = 1U;
 700              		.loc 1 1378 0
 701 0032 3423     		movs	r3, #52
 702              	.LVL61:
 703 0034 03FB0242 		mla	r2, r3, r2, r4
 704              	.LVL62:
1379:/opt/XMClib/XMC_Peripheral_Library_v2.1.16/XMCLib/src/xmc_usbd.c ****   }
1380:/opt/XMClib/XMC_Peripheral_Library_v2.1.16/XMCLib/src/xmc_usbd.c ****   else
1381:/opt/XMClib/XMC_Peripheral_Library_v2.1.16/XMCLib/src/xmc_usbd.c ****   {
1382:/opt/XMClib/XMC_Peripheral_Library_v2.1.16/XMCLib/src/xmc_usbd.c ****     /* just clear stall bit */
1383:/opt/XMClib/XMC_Peripheral_Library_v2.1.16/XMCLib/src/xmc_usbd.c **** 		if (ep_addr & (uint8_t)XMC_USBD_ENDPOINT_DIRECTION_MASK)
1384:/opt/XMClib/XMC_Peripheral_Library_v2.1.16/XMCLib/src/xmc_usbd.c **** 		{
1385:/opt/XMClib/XMC_Peripheral_Library_v2.1.16/XMCLib/src/xmc_usbd.c **** 			data.d32 = xmc_device.endpoint_in_register[ep->address_u.address_st.number]->diepctl;
1386:/opt/XMClib/XMC_Peripheral_Library_v2.1.16/XMCLib/src/xmc_usbd.c **** 			data.b.stall = 0U;
1387:/opt/XMClib/XMC_Peripheral_Library_v2.1.16/XMCLib/src/xmc_usbd.c **** 			data.b.setd0pid = 1U; /* reset pid to 0 */
1388:/opt/XMClib/XMC_Peripheral_Library_v2.1.16/XMCLib/src/xmc_usbd.c **** 			xmc_device.endpoint_in_register[ep->address_u.address_st.number]->diepctl = data.d32;
1389:/opt/XMClib/XMC_Peripheral_Library_v2.1.16/XMCLib/src/xmc_usbd.c **** 		}
1390:/opt/XMClib/XMC_Peripheral_Library_v2.1.16/XMCLib/src/xmc_usbd.c **** 		else
1391:/opt/XMClib/XMC_Peripheral_Library_v2.1.16/XMCLib/src/xmc_usbd.c **** 		{
1392:/opt/XMClib/XMC_Peripheral_Library_v2.1.16/XMCLib/src/xmc_usbd.c **** 			data.d32 = xmc_device.endpoint_out_register[ep->address_u.address_st.number]->doepctl;
1393:/opt/XMClib/XMC_Peripheral_Library_v2.1.16/XMCLib/src/xmc_usbd.c **** 			data.b.stall = 0U;
1394:/opt/XMClib/XMC_Peripheral_Library_v2.1.16/XMCLib/src/xmc_usbd.c **** 			data.b.setd0pid = 1U; /* reset pid to 0 */
1395:/opt/XMClib/XMC_Peripheral_Library_v2.1.16/XMCLib/src/xmc_usbd.c **** 			xmc_device.endpoint_out_register[ep->address_u.address_st.number]->doepctl = data.d32;
1396:/opt/XMClib/XMC_Peripheral_Library_v2.1.16/XMCLib/src/xmc_usbd.c **** 		}
1397:/opt/XMClib/XMC_Peripheral_Library_v2.1.16/XMCLib/src/xmc_usbd.c **** 		ep->isStalled = 0U;
1398:/opt/XMClib/XMC_Peripheral_Library_v2.1.16/XMCLib/src/xmc_usbd.c **** 	}
1399:/opt/XMClib/XMC_Peripheral_Library_v2.1.16/XMCLib/src/xmc_usbd.c **** 	return XMC_USBD_STATUS_OK;
1400:/opt/XMClib/XMC_Peripheral_Library_v2.1.16/XMCLib/src/xmc_usbd.c **** }
 705              		.loc 1 1400 0
 706 0038 0020     		movs	r0, #0
 707              	.LVL63:
1378:/opt/XMClib/XMC_Peripheral_Library_v2.1.16/XMCLib/src/xmc_usbd.c ****   }
 708              		.loc 1 1378 0
 709 003a 1379     		ldrb	r3, [r2, #4]	@ zero_extendqisi2
 710              		.loc 1 1400 0
 711 003c 5DF8044B 		ldr	r4, [sp], #4
 712              	.LCFI9:
 713              		.cfi_remember_state
 714              		.cfi_restore 4
 715              		.cfi_def_cfa_offset 0
1378:/opt/XMClib/XMC_Peripheral_Library_v2.1.16/XMCLib/src/xmc_usbd.c ****   }
 716              		.loc 1 1378 0
 717 0040 43F02003 		orr	r3, r3, #32
 718 0044 1371     		strb	r3, [r2, #4]
 719              		.loc 1 1400 0
 720 0046 7047     		bx	lr
 721              	.LVL64:
 722              	.L59:
 723              	.LCFI10:
 724              		.cfi_restore_state
1383:/opt/XMClib/XMC_Peripheral_Library_v2.1.16/XMCLib/src/xmc_usbd.c **** 		{
 725              		.loc 1 1383 0
 726 0048 0028     		cmp	r0, #0
1392:/opt/XMClib/XMC_Peripheral_Library_v2.1.16/XMCLib/src/xmc_usbd.c **** 			data.b.stall = 0U;
 727              		.loc 1 1392 0
 728 004a ABBF     		itete	ge
 729 004c 04EB8303 		addge	r3, r4, r3, lsl #2
1385:/opt/XMClib/XMC_Peripheral_Library_v2.1.16/XMCLib/src/xmc_usbd.c **** 			data.b.stall = 0U;
 730              		.loc 1 1385 0
 731 0050 6A33     		addlt	r3, r3, #106
1392:/opt/XMClib/XMC_Peripheral_Library_v2.1.16/XMCLib/src/xmc_usbd.c **** 			data.b.stall = 0U;
 732              		.loc 1 1392 0
 733 0052 D3F8C401 		ldrge	r0, [r3, #452]
1385:/opt/XMClib/XMC_Peripheral_Library_v2.1.16/XMCLib/src/xmc_usbd.c **** 			data.b.stall = 0U;
 734              		.loc 1 1385 0
 735 0056 54F82300 		ldrlt	r0, [r4, r3, lsl #2]
1392:/opt/XMClib/XMC_Peripheral_Library_v2.1.16/XMCLib/src/xmc_usbd.c **** 			data.b.stall = 0U;
 736              		.loc 1 1392 0
 737 005a 0368     		ldr	r3, [r0]
1393:/opt/XMClib/XMC_Peripheral_Library_v2.1.16/XMCLib/src/xmc_usbd.c **** 			data.b.setd0pid = 1U; /* reset pid to 0 */
 738              		.loc 1 1393 0
 739 005c 61F35553 		bfi	r3, r1, #21, #1
 740              	.LVL65:
1394:/opt/XMClib/XMC_Peripheral_Library_v2.1.16/XMCLib/src/xmc_usbd.c **** 			xmc_device.endpoint_out_register[ep->address_u.address_st.number]->doepctl = data.d32;
 741              		.loc 1 1394 0
 742 0060 43F08053 		orr	r3, r3, #268435456
 743              	.LVL66:
1395:/opt/XMClib/XMC_Peripheral_Library_v2.1.16/XMCLib/src/xmc_usbd.c **** 		}
 744              		.loc 1 1395 0
 745 0064 0360     		str	r3, [r0]
1397:/opt/XMClib/XMC_Peripheral_Library_v2.1.16/XMCLib/src/xmc_usbd.c **** 	}
 746              		.loc 1 1397 0
 747 0066 3423     		movs	r3, #52
 748              	.LVL67:
 749 0068 03FB0242 		mla	r2, r3, r2, r4
 750              	.LVL68:
 751              		.loc 1 1400 0
 752 006c 0020     		movs	r0, #0
1397:/opt/XMClib/XMC_Peripheral_Library_v2.1.16/XMCLib/src/xmc_usbd.c **** 	}
 753              		.loc 1 1397 0
 754 006e 1379     		ldrb	r3, [r2, #4]	@ zero_extendqisi2
 755              		.loc 1 1400 0
 756 0070 5DF8044B 		ldr	r4, [sp], #4
 757              	.LCFI11:
 758              		.cfi_restore 4
 759              		.cfi_def_cfa_offset 0
1397:/opt/XMClib/XMC_Peripheral_Library_v2.1.16/XMCLib/src/xmc_usbd.c **** 	}
 760              		.loc 1 1397 0
 761 0074 6FF34513 		bfc	r3, #5, #1
 762 0078 1371     		strb	r3, [r2, #4]
 763              		.loc 1 1400 0
 764 007a 7047     		bx	lr
 765              	.L67:
 766              		.align	2
 767              	.L66:
 768 007c 00000000 		.word	xmc_device
 769              		.cfi_endproc
 770              	.LFE196:
 772              		.section	.text.XMC_USBD_EndpointAbort,"ax",%progbits
 773              		.align	1
 774              		.p2align 2,,3
 775              		.global	XMC_USBD_EndpointAbort
 776              		.syntax unified
 777              		.thumb
 778              		.thumb_func
 779              		.fpu fpv4-sp-d16
 781              	XMC_USBD_EndpointAbort:
 782              	.LFB197:
1401:/opt/XMClib/XMC_Peripheral_Library_v2.1.16/XMCLib/src/xmc_usbd.c **** 
1402:/opt/XMClib/XMC_Peripheral_Library_v2.1.16/XMCLib/src/xmc_usbd.c **** /**
1403:/opt/XMClib/XMC_Peripheral_Library_v2.1.16/XMCLib/src/xmc_usbd.c ****  * Aborts the data transfer on the selected endpoint
1404:/opt/XMClib/XMC_Peripheral_Library_v2.1.16/XMCLib/src/xmc_usbd.c ****  **/
1405:/opt/XMClib/XMC_Peripheral_Library_v2.1.16/XMCLib/src/xmc_usbd.c **** XMC_USBD_STATUS_t XMC_USBD_EndpointAbort(const uint8_t ep_addr) {
 783              		.loc 1 1405 0
 784              		.cfi_startproc
 785              		@ args = 0, pretend = 0, frame = 0
 786              		@ frame_needed = 0, uses_anonymous_args = 0
 787              		@ link register save eliminated.
 788              	.LVL69:
1406:/opt/XMClib/XMC_Peripheral_Library_v2.1.16/XMCLib/src/xmc_usbd.c ****   XMC_USBD_EP_t *ep = &xmc_device.ep[ep_addr & (uint8_t)XMC_USBD_ENDPOINT_NUMBER_MASK];
 789              		.loc 1 1406 0
 790 0000 00F00F00 		and	r0, r0, #15
 791              	.LVL70:
1407:/opt/XMClib/XMC_Peripheral_Library_v2.1.16/XMCLib/src/xmc_usbd.c ****   if (ep->address_u.address_st.direction)
 792              		.loc 1 1407 0
 793 0004 3422     		movs	r2, #52
 794 0006 02FB00F2 		mul	r2, r2, r0
 795 000a 0C4B     		ldr	r3, .L72
 796 000c 9956     		ldrsb	r1, [r3, r2]
 797 000e 1A44     		add	r2, r2, r3
 798              	.LVL71:
 799 0010 0029     		cmp	r1, #0
1408:/opt/XMClib/XMC_Peripheral_Library_v2.1.16/XMCLib/src/xmc_usbd.c ****   {
1409:/opt/XMClib/XMC_Peripheral_Library_v2.1.16/XMCLib/src/xmc_usbd.c ****     ep->inInUse = 0U;
 800              		.loc 1 1409 0
 801 0012 5168     		ldr	r1, [r2, #4]
 802 0014 B4BF     		ite	lt
 803 0016 6FF3C301 		bfclt	r1, #3, #1
1410:/opt/XMClib/XMC_Peripheral_Library_v2.1.16/XMCLib/src/xmc_usbd.c ****   }
1411:/opt/XMClib/XMC_Peripheral_Library_v2.1.16/XMCLib/src/xmc_usbd.c ****   if (!ep->address_u.address_st.direction)
1412:/opt/XMClib/XMC_Peripheral_Library_v2.1.16/XMCLib/src/xmc_usbd.c ****   {
1413:/opt/XMClib/XMC_Peripheral_Library_v2.1.16/XMCLib/src/xmc_usbd.c ****     ep->outInUse = 0U;
 804              		.loc 1 1413 0
 805 001a 6FF30411 		bfcge	r1, #4, #1
 806 001e 5160     		str	r1, [r2, #4]
1414:/opt/XMClib/XMC_Peripheral_Library_v2.1.16/XMCLib/src/xmc_usbd.c ****   }
1415:/opt/XMClib/XMC_Peripheral_Library_v2.1.16/XMCLib/src/xmc_usbd.c ****   ep->isStalled = 0U;
 807              		.loc 1 1415 0
 808 0020 3422     		movs	r2, #52
 809              	.LVL72:
 810 0022 02FB0033 		mla	r3, r2, r0, r3
 811              	.LVL73:
1416:/opt/XMClib/XMC_Peripheral_Library_v2.1.16/XMCLib/src/xmc_usbd.c ****   ep->outBytesAvailable = 0U;
 812              		.loc 1 1416 0
 813 0026 0020     		movs	r0, #0
1415:/opt/XMClib/XMC_Peripheral_Library_v2.1.16/XMCLib/src/xmc_usbd.c ****   ep->outBytesAvailable = 0U;
 814              		.loc 1 1415 0
 815 0028 1A79     		ldrb	r2, [r3, #4]	@ zero_extendqisi2
 816              		.loc 1 1416 0
 817 002a 1861     		str	r0, [r3, #16]
1415:/opt/XMClib/XMC_Peripheral_Library_v2.1.16/XMCLib/src/xmc_usbd.c ****   ep->outBytesAvailable = 0U;
 818              		.loc 1 1415 0
 819 002c 6FF34512 		bfc	r2, #5, #1
 820 0030 1A71     		strb	r2, [r3, #4]
1417:/opt/XMClib/XMC_Peripheral_Library_v2.1.16/XMCLib/src/xmc_usbd.c ****   ep->outOffset = 0U;
 821              		.loc 1 1417 0
 822 0032 9861     		str	r0, [r3, #24]
1418:/opt/XMClib/XMC_Peripheral_Library_v2.1.16/XMCLib/src/xmc_usbd.c ****   ep->xferLength = 0U;
1419:/opt/XMClib/XMC_Peripheral_Library_v2.1.16/XMCLib/src/xmc_usbd.c ****   ep->xferCount = 0U;
 823              		.loc 1 1419 0
 824 0034 C3E90A00 		strd	r0, r0, [r3, #40]
1420:/opt/XMClib/XMC_Peripheral_Library_v2.1.16/XMCLib/src/xmc_usbd.c ****   ep->xferTotal = 0U;
 825              		.loc 1 1420 0
 826 0038 1863     		str	r0, [r3, #48]
1421:/opt/XMClib/XMC_Peripheral_Library_v2.1.16/XMCLib/src/xmc_usbd.c **** 
1422:/opt/XMClib/XMC_Peripheral_Library_v2.1.16/XMCLib/src/xmc_usbd.c ****   return XMC_USBD_STATUS_OK;
1423:/opt/XMClib/XMC_Peripheral_Library_v2.1.16/XMCLib/src/xmc_usbd.c **** }
 827              		.loc 1 1423 0
 828 003a 7047     		bx	lr
 829              	.L73:
 830              		.align	2
 831              	.L72:
 832 003c 00000000 		.word	xmc_device
 833              		.cfi_endproc
 834              	.LFE197:
 836              		.section	.text.XMC_USBD_EndpointUnconfigure,"ax",%progbits
 837              		.align	1
 838              		.p2align 2,,3
 839              		.global	XMC_USBD_EndpointUnconfigure
 840              		.syntax unified
 841              		.thumb
 842              		.thumb_func
 843              		.fpu fpv4-sp-d16
 845              	XMC_USBD_EndpointUnconfigure:
 846              	.LFB199:
1424:/opt/XMClib/XMC_Peripheral_Library_v2.1.16/XMCLib/src/xmc_usbd.c **** 
1425:/opt/XMClib/XMC_Peripheral_Library_v2.1.16/XMCLib/src/xmc_usbd.c **** /**
1426:/opt/XMClib/XMC_Peripheral_Library_v2.1.16/XMCLib/src/xmc_usbd.c ****  * Configures the given endpoint
1427:/opt/XMClib/XMC_Peripheral_Library_v2.1.16/XMCLib/src/xmc_usbd.c ****  **/
1428:/opt/XMClib/XMC_Peripheral_Library_v2.1.16/XMCLib/src/xmc_usbd.c **** XMC_USBD_STATUS_t XMC_USBD_EndpointConfigure(const uint8_t ep_addr,
1429:/opt/XMClib/XMC_Peripheral_Library_v2.1.16/XMCLib/src/xmc_usbd.c **** 		                                     const XMC_USBD_ENDPOINT_TYPE_t ep_type,
1430:/opt/XMClib/XMC_Peripheral_Library_v2.1.16/XMCLib/src/xmc_usbd.c **** 		                                     const uint16_t ep_max_packet_size) 
1431:/opt/XMClib/XMC_Peripheral_Library_v2.1.16/XMCLib/src/xmc_usbd.c **** {
1432:/opt/XMClib/XMC_Peripheral_Library_v2.1.16/XMCLib/src/xmc_usbd.c ****   daint_data_t daintmsk;
1433:/opt/XMClib/XMC_Peripheral_Library_v2.1.16/XMCLib/src/xmc_usbd.c ****   XMC_USBD_EP_t *ep;
1434:/opt/XMClib/XMC_Peripheral_Library_v2.1.16/XMCLib/src/xmc_usbd.c ****   daintmsk.d32 = xmc_device.device_register->daintmsk;  
1435:/opt/XMClib/XMC_Peripheral_Library_v2.1.16/XMCLib/src/xmc_usbd.c ****   ep =&xmc_device.ep[ep_addr & (uint32_t)XMC_USBD_ENDPOINT_NUMBER_MASK];
1436:/opt/XMClib/XMC_Peripheral_Library_v2.1.16/XMCLib/src/xmc_usbd.c ****   memset((void*)ep,0x0U,sizeof(XMC_USBD_EP_t)); /* clear endpoint structure */
1437:/opt/XMClib/XMC_Peripheral_Library_v2.1.16/XMCLib/src/xmc_usbd.c ****   /* do ep configuration */
1438:/opt/XMClib/XMC_Peripheral_Library_v2.1.16/XMCLib/src/xmc_usbd.c ****   ep->address_u.address = ep_addr;
1439:/opt/XMClib/XMC_Peripheral_Library_v2.1.16/XMCLib/src/xmc_usbd.c ****   ep->isConfigured = 1U;
1440:/opt/XMClib/XMC_Peripheral_Library_v2.1.16/XMCLib/src/xmc_usbd.c ****   ep->maxPacketSize = (uint8_t)ep_max_packet_size;
1441:/opt/XMClib/XMC_Peripheral_Library_v2.1.16/XMCLib/src/xmc_usbd.c ****   if (ep->address_u.address != 0U)
1442:/opt/XMClib/XMC_Peripheral_Library_v2.1.16/XMCLib/src/xmc_usbd.c ****   {
1443:/opt/XMClib/XMC_Peripheral_Library_v2.1.16/XMCLib/src/xmc_usbd.c ****     ep->maxTransferSize = (uint32_t)XMC_USBD_MAX_TRANSFER_SIZE;
1444:/opt/XMClib/XMC_Peripheral_Library_v2.1.16/XMCLib/src/xmc_usbd.c ****   }
1445:/opt/XMClib/XMC_Peripheral_Library_v2.1.16/XMCLib/src/xmc_usbd.c ****   else
1446:/opt/XMClib/XMC_Peripheral_Library_v2.1.16/XMCLib/src/xmc_usbd.c ****   {
1447:/opt/XMClib/XMC_Peripheral_Library_v2.1.16/XMCLib/src/xmc_usbd.c ****     ep->maxTransferSize = (uint32_t)XMC_USBD_MAX_TRANSFER_SIZE_EP0;
1448:/opt/XMClib/XMC_Peripheral_Library_v2.1.16/XMCLib/src/xmc_usbd.c ****   }
1449:/opt/XMClib/XMC_Peripheral_Library_v2.1.16/XMCLib/src/xmc_usbd.c ****   /* transfer buffer */
1450:/opt/XMClib/XMC_Peripheral_Library_v2.1.16/XMCLib/src/xmc_usbd.c ****   ep->inBuffer = XMC_USBD_EP_IN_BUFFER[ep->address_u.address_st.number];
1451:/opt/XMClib/XMC_Peripheral_Library_v2.1.16/XMCLib/src/xmc_usbd.c ****   ep->outBuffer = XMC_USBD_EP_OUT_BUFFER[ep->address_u.address_st.number];
1452:/opt/XMClib/XMC_Peripheral_Library_v2.1.16/XMCLib/src/xmc_usbd.c ****   /* buffer size*/
1453:/opt/XMClib/XMC_Peripheral_Library_v2.1.16/XMCLib/src/xmc_usbd.c ****   ep->inBufferSize = XMC_USBD_EP_IN_BUFFERSIZE[ep->address_u.address_st.number];
1454:/opt/XMClib/XMC_Peripheral_Library_v2.1.16/XMCLib/src/xmc_usbd.c ****   ep->outBufferSize = XMC_USBD_EP_OUT_BUFFERSIZE[ep->address_u.address_st.number];
1455:/opt/XMClib/XMC_Peripheral_Library_v2.1.16/XMCLib/src/xmc_usbd.c ****   /* is in */
1456:/opt/XMClib/XMC_Peripheral_Library_v2.1.16/XMCLib/src/xmc_usbd.c ****   if ((ep->address_u.address_st.direction == 1U) || (ep_type == XMC_USBD_ENDPOINT_TYPE_CONTROL))
1457:/opt/XMClib/XMC_Peripheral_Library_v2.1.16/XMCLib/src/xmc_usbd.c ****   {
1458:/opt/XMClib/XMC_Peripheral_Library_v2.1.16/XMCLib/src/xmc_usbd.c ****     depctl_data_t data;
1459:/opt/XMClib/XMC_Peripheral_Library_v2.1.16/XMCLib/src/xmc_usbd.c ****     data.d32 = xmc_device.endpoint_in_register[ep->address_u.address_st.number]->diepctl;
1460:/opt/XMClib/XMC_Peripheral_Library_v2.1.16/XMCLib/src/xmc_usbd.c **** 		/*enable endpoint */
1461:/opt/XMClib/XMC_Peripheral_Library_v2.1.16/XMCLib/src/xmc_usbd.c **** 		data.b.usbactep = 1U;
1462:/opt/XMClib/XMC_Peripheral_Library_v2.1.16/XMCLib/src/xmc_usbd.c **** 		/* set ep type */
1463:/opt/XMClib/XMC_Peripheral_Library_v2.1.16/XMCLib/src/xmc_usbd.c **** 		data.b.eptype = (uint8_t)ep_type;
1464:/opt/XMClib/XMC_Peripheral_Library_v2.1.16/XMCLib/src/xmc_usbd.c **** 		/* set mps */
1465:/opt/XMClib/XMC_Peripheral_Library_v2.1.16/XMCLib/src/xmc_usbd.c ****     if (ep_type == XMC_USBD_ENDPOINT_TYPE_CONTROL)
1466:/opt/XMClib/XMC_Peripheral_Library_v2.1.16/XMCLib/src/xmc_usbd.c ****     {
1467:/opt/XMClib/XMC_Peripheral_Library_v2.1.16/XMCLib/src/xmc_usbd.c **** 			switch(ep_max_packet_size)
1468:/opt/XMClib/XMC_Peripheral_Library_v2.1.16/XMCLib/src/xmc_usbd.c **** 			{
1469:/opt/XMClib/XMC_Peripheral_Library_v2.1.16/XMCLib/src/xmc_usbd.c **** 				case (64U):
1470:/opt/XMClib/XMC_Peripheral_Library_v2.1.16/XMCLib/src/xmc_usbd.c **** 				data.b.mps = 0x0U;
1471:/opt/XMClib/XMC_Peripheral_Library_v2.1.16/XMCLib/src/xmc_usbd.c **** 				break;
1472:/opt/XMClib/XMC_Peripheral_Library_v2.1.16/XMCLib/src/xmc_usbd.c **** 				case (32U):
1473:/opt/XMClib/XMC_Peripheral_Library_v2.1.16/XMCLib/src/xmc_usbd.c **** 				data.b.mps = 0x1U;
1474:/opt/XMClib/XMC_Peripheral_Library_v2.1.16/XMCLib/src/xmc_usbd.c **** 				break;
1475:/opt/XMClib/XMC_Peripheral_Library_v2.1.16/XMCLib/src/xmc_usbd.c **** 				case (16U):
1476:/opt/XMClib/XMC_Peripheral_Library_v2.1.16/XMCLib/src/xmc_usbd.c **** 				data.b.mps = 0x2U;
1477:/opt/XMClib/XMC_Peripheral_Library_v2.1.16/XMCLib/src/xmc_usbd.c **** 				break;
1478:/opt/XMClib/XMC_Peripheral_Library_v2.1.16/XMCLib/src/xmc_usbd.c **** 				case (8U):
1479:/opt/XMClib/XMC_Peripheral_Library_v2.1.16/XMCLib/src/xmc_usbd.c **** 				data.b.mps = 0x3U;
1480:/opt/XMClib/XMC_Peripheral_Library_v2.1.16/XMCLib/src/xmc_usbd.c **** 				break;
1481:/opt/XMClib/XMC_Peripheral_Library_v2.1.16/XMCLib/src/xmc_usbd.c **** 				default:
1482:/opt/XMClib/XMC_Peripheral_Library_v2.1.16/XMCLib/src/xmc_usbd.c **** 				break;
1483:/opt/XMClib/XMC_Peripheral_Library_v2.1.16/XMCLib/src/xmc_usbd.c **** 			}
1484:/opt/XMClib/XMC_Peripheral_Library_v2.1.16/XMCLib/src/xmc_usbd.c **** 		}
1485:/opt/XMClib/XMC_Peripheral_Library_v2.1.16/XMCLib/src/xmc_usbd.c **** 		else
1486:/opt/XMClib/XMC_Peripheral_Library_v2.1.16/XMCLib/src/xmc_usbd.c **** 		{
1487:/opt/XMClib/XMC_Peripheral_Library_v2.1.16/XMCLib/src/xmc_usbd.c **** 			data.b.mps = ep_max_packet_size;
1488:/opt/XMClib/XMC_Peripheral_Library_v2.1.16/XMCLib/src/xmc_usbd.c **** 		}
1489:/opt/XMClib/XMC_Peripheral_Library_v2.1.16/XMCLib/src/xmc_usbd.c **** 		/* set first data0 pid */
1490:/opt/XMClib/XMC_Peripheral_Library_v2.1.16/XMCLib/src/xmc_usbd.c **** 		data.b.setd0pid = 1U;
1491:/opt/XMClib/XMC_Peripheral_Library_v2.1.16/XMCLib/src/xmc_usbd.c **** 		/* clear stall */
1492:/opt/XMClib/XMC_Peripheral_Library_v2.1.16/XMCLib/src/xmc_usbd.c **** 		data.b.stall = 0U;
1493:/opt/XMClib/XMC_Peripheral_Library_v2.1.16/XMCLib/src/xmc_usbd.c **** 		/* set tx fifo */
1494:/opt/XMClib/XMC_Peripheral_Library_v2.1.16/XMCLib/src/xmc_usbd.c **** 		ep->txFifoNum = XMC_USBD_lAssignTXFifo(); /* get tx fifo */
1495:/opt/XMClib/XMC_Peripheral_Library_v2.1.16/XMCLib/src/xmc_usbd.c **** 		data.b.txfnum = ep->txFifoNum;
1496:/opt/XMClib/XMC_Peripheral_Library_v2.1.16/XMCLib/src/xmc_usbd.c **** 		xmc_device.endpoint_in_register[ep->address_u.address_st.number]->diepctl = data.d32; /* configur
1497:/opt/XMClib/XMC_Peripheral_Library_v2.1.16/XMCLib/src/xmc_usbd.c **** 		daintmsk.ep.in |= (uint16_t)((uint16_t)1U << (uint8_t)ep->address_u.address_st.number); /* enable
1498:/opt/XMClib/XMC_Peripheral_Library_v2.1.16/XMCLib/src/xmc_usbd.c ****   }
1499:/opt/XMClib/XMC_Peripheral_Library_v2.1.16/XMCLib/src/xmc_usbd.c ****   if ((ep->address_u.address_st.direction == 0U) || (ep_type == XMC_USBD_ENDPOINT_TYPE_CONTROL))
1500:/opt/XMClib/XMC_Peripheral_Library_v2.1.16/XMCLib/src/xmc_usbd.c ****   {
1501:/opt/XMClib/XMC_Peripheral_Library_v2.1.16/XMCLib/src/xmc_usbd.c ****     /* is out */
1502:/opt/XMClib/XMC_Peripheral_Library_v2.1.16/XMCLib/src/xmc_usbd.c **** 		depctl_data_t data;
1503:/opt/XMClib/XMC_Peripheral_Library_v2.1.16/XMCLib/src/xmc_usbd.c **** 		data.d32 = xmc_device.endpoint_out_register[ep->address_u.address_st.number]->doepctl;
1504:/opt/XMClib/XMC_Peripheral_Library_v2.1.16/XMCLib/src/xmc_usbd.c **** 		/*enable endpoint */
1505:/opt/XMClib/XMC_Peripheral_Library_v2.1.16/XMCLib/src/xmc_usbd.c **** 		data.b.usbactep = 1U;
1506:/opt/XMClib/XMC_Peripheral_Library_v2.1.16/XMCLib/src/xmc_usbd.c **** 		/* set ep type */
1507:/opt/XMClib/XMC_Peripheral_Library_v2.1.16/XMCLib/src/xmc_usbd.c **** 		data.b.eptype = (uint8_t)ep_type;
1508:/opt/XMClib/XMC_Peripheral_Library_v2.1.16/XMCLib/src/xmc_usbd.c ****     /* set mps */
1509:/opt/XMClib/XMC_Peripheral_Library_v2.1.16/XMCLib/src/xmc_usbd.c ****     if (ep_type == XMC_USBD_ENDPOINT_TYPE_CONTROL)
1510:/opt/XMClib/XMC_Peripheral_Library_v2.1.16/XMCLib/src/xmc_usbd.c **** 		{
1511:/opt/XMClib/XMC_Peripheral_Library_v2.1.16/XMCLib/src/xmc_usbd.c **** 			switch(ep_max_packet_size)
1512:/opt/XMClib/XMC_Peripheral_Library_v2.1.16/XMCLib/src/xmc_usbd.c **** 			{
1513:/opt/XMClib/XMC_Peripheral_Library_v2.1.16/XMCLib/src/xmc_usbd.c **** 				case (64U):
1514:/opt/XMClib/XMC_Peripheral_Library_v2.1.16/XMCLib/src/xmc_usbd.c **** 					data.b.mps = 0x0U;
1515:/opt/XMClib/XMC_Peripheral_Library_v2.1.16/XMCLib/src/xmc_usbd.c **** 					break;
1516:/opt/XMClib/XMC_Peripheral_Library_v2.1.16/XMCLib/src/xmc_usbd.c **** 				case (32U):
1517:/opt/XMClib/XMC_Peripheral_Library_v2.1.16/XMCLib/src/xmc_usbd.c **** 					data.b.mps = 0x1U;
1518:/opt/XMClib/XMC_Peripheral_Library_v2.1.16/XMCLib/src/xmc_usbd.c **** 					break;
1519:/opt/XMClib/XMC_Peripheral_Library_v2.1.16/XMCLib/src/xmc_usbd.c **** 				case (16U):
1520:/opt/XMClib/XMC_Peripheral_Library_v2.1.16/XMCLib/src/xmc_usbd.c **** 					data.b.mps = 0x2U;
1521:/opt/XMClib/XMC_Peripheral_Library_v2.1.16/XMCLib/src/xmc_usbd.c **** 					break;
1522:/opt/XMClib/XMC_Peripheral_Library_v2.1.16/XMCLib/src/xmc_usbd.c **** 				case (8U):
1523:/opt/XMClib/XMC_Peripheral_Library_v2.1.16/XMCLib/src/xmc_usbd.c **** 					data.b.mps = 0x3U;
1524:/opt/XMClib/XMC_Peripheral_Library_v2.1.16/XMCLib/src/xmc_usbd.c **** 					break;
1525:/opt/XMClib/XMC_Peripheral_Library_v2.1.16/XMCLib/src/xmc_usbd.c **** 				default:
1526:/opt/XMClib/XMC_Peripheral_Library_v2.1.16/XMCLib/src/xmc_usbd.c **** 					break;
1527:/opt/XMClib/XMC_Peripheral_Library_v2.1.16/XMCLib/src/xmc_usbd.c **** 			}
1528:/opt/XMClib/XMC_Peripheral_Library_v2.1.16/XMCLib/src/xmc_usbd.c **** 		}
1529:/opt/XMClib/XMC_Peripheral_Library_v2.1.16/XMCLib/src/xmc_usbd.c **** 		else
1530:/opt/XMClib/XMC_Peripheral_Library_v2.1.16/XMCLib/src/xmc_usbd.c **** 		{
1531:/opt/XMClib/XMC_Peripheral_Library_v2.1.16/XMCLib/src/xmc_usbd.c **** 			data.b.mps = ep_max_packet_size;
1532:/opt/XMClib/XMC_Peripheral_Library_v2.1.16/XMCLib/src/xmc_usbd.c **** 		}
1533:/opt/XMClib/XMC_Peripheral_Library_v2.1.16/XMCLib/src/xmc_usbd.c **** 		/* set first data0 pid */
1534:/opt/XMClib/XMC_Peripheral_Library_v2.1.16/XMCLib/src/xmc_usbd.c **** 		data.b.setd0pid = 1U;
1535:/opt/XMClib/XMC_Peripheral_Library_v2.1.16/XMCLib/src/xmc_usbd.c **** 		/* clear stall */
1536:/opt/XMClib/XMC_Peripheral_Library_v2.1.16/XMCLib/src/xmc_usbd.c **** 		data.b.stall =(uint8_t) 0U;
1537:/opt/XMClib/XMC_Peripheral_Library_v2.1.16/XMCLib/src/xmc_usbd.c **** 		xmc_device.endpoint_out_register[ep->address_u.address_st.number]->doepctl = data.d32; /* configu
1538:/opt/XMClib/XMC_Peripheral_Library_v2.1.16/XMCLib/src/xmc_usbd.c **** 		daintmsk.ep.out |=(uint16_t) ((uint16_t)1U << (uint8_t)ep->address_u.address_st.number); /* enabl
1539:/opt/XMClib/XMC_Peripheral_Library_v2.1.16/XMCLib/src/xmc_usbd.c ****   }
1540:/opt/XMClib/XMC_Peripheral_Library_v2.1.16/XMCLib/src/xmc_usbd.c ****   xmc_device.device_register->daintmsk = daintmsk.d32;
1541:/opt/XMClib/XMC_Peripheral_Library_v2.1.16/XMCLib/src/xmc_usbd.c ****   return XMC_USBD_STATUS_OK;
1542:/opt/XMClib/XMC_Peripheral_Library_v2.1.16/XMCLib/src/xmc_usbd.c **** }
1543:/opt/XMClib/XMC_Peripheral_Library_v2.1.16/XMCLib/src/xmc_usbd.c **** 
1544:/opt/XMClib/XMC_Peripheral_Library_v2.1.16/XMCLib/src/xmc_usbd.c **** /**
1545:/opt/XMClib/XMC_Peripheral_Library_v2.1.16/XMCLib/src/xmc_usbd.c ****  * Unconfigure the selected endpoint.
1546:/opt/XMClib/XMC_Peripheral_Library_v2.1.16/XMCLib/src/xmc_usbd.c ****  **/
1547:/opt/XMClib/XMC_Peripheral_Library_v2.1.16/XMCLib/src/xmc_usbd.c **** XMC_USBD_STATUS_t XMC_USBD_EndpointUnconfigure(const uint8_t ep_addr) 
1548:/opt/XMClib/XMC_Peripheral_Library_v2.1.16/XMCLib/src/xmc_usbd.c **** {
 847              		.loc 1 1548 0
 848              		.cfi_startproc
 849              		@ args = 0, pretend = 0, frame = 0
 850              		@ frame_needed = 0, uses_anonymous_args = 0
 851              	.LVL74:
 852 0000 2DE9F043 		push	{r4, r5, r6, r7, r8, r9, lr}
 853              	.LCFI12:
 854              		.cfi_def_cfa_offset 28
 855              		.cfi_offset 4, -28
 856              		.cfi_offset 5, -24
 857              		.cfi_offset 6, -20
 858              		.cfi_offset 7, -16
 859              		.cfi_offset 8, -12
 860              		.cfi_offset 9, -8
 861              		.cfi_offset 14, -4
1549:/opt/XMClib/XMC_Peripheral_Library_v2.1.16/XMCLib/src/xmc_usbd.c ****   XMC_USBD_EP_t *ep = &xmc_device.ep[ep_addr & (uint8_t)XMC_USBD_ENDPOINT_NUMBER_MASK];
1550:/opt/XMClib/XMC_Peripheral_Library_v2.1.16/XMCLib/src/xmc_usbd.c ****   depctl_data_t data;
1551:/opt/XMClib/XMC_Peripheral_Library_v2.1.16/XMCLib/src/xmc_usbd.c **** 	daint_data_t daintmsk;
1552:/opt/XMClib/XMC_Peripheral_Library_v2.1.16/XMCLib/src/xmc_usbd.c **** 	XMC_USBD_STATUS_t result;
1553:/opt/XMClib/XMC_Peripheral_Library_v2.1.16/XMCLib/src/xmc_usbd.c **** 	uint32_t number_temp;
1554:/opt/XMClib/XMC_Peripheral_Library_v2.1.16/XMCLib/src/xmc_usbd.c ****   data.d32 = 0U;  
1555:/opt/XMClib/XMC_Peripheral_Library_v2.1.16/XMCLib/src/xmc_usbd.c ****   daintmsk.d32 = xmc_device.device_register->daintmsk;  
 862              		.loc 1 1555 0
 863 0004 3B4B     		ldr	r3, .L88
1549:/opt/XMClib/XMC_Peripheral_Library_v2.1.16/XMCLib/src/xmc_usbd.c ****   XMC_USBD_EP_t *ep = &xmc_device.ep[ep_addr & (uint8_t)XMC_USBD_ENDPOINT_NUMBER_MASK];
 864              		.loc 1 1549 0
 865 0006 00F00F00 		and	r0, r0, #15
 866              	.LVL75:
1556:/opt/XMClib/XMC_Peripheral_Library_v2.1.16/XMCLib/src/xmc_usbd.c ****   number_temp = (uint32_t)((uint32_t)1U << (uint8_t)ep->address_u.address_st.number);
1557:/opt/XMClib/XMC_Peripheral_Library_v2.1.16/XMCLib/src/xmc_usbd.c ****   /* if not configured return an error */
1558:/opt/XMClib/XMC_Peripheral_Library_v2.1.16/XMCLib/src/xmc_usbd.c ****   if (!ep->isConfigured)
 867              		.loc 1 1558 0
 868 000a 3421     		movs	r1, #52
 869 000c 01FB00F1 		mul	r1, r1, r0
 870 0010 5A18     		adds	r2, r3, r1
 871              	.LVL76:
1555:/opt/XMClib/XMC_Peripheral_Library_v2.1.16/XMCLib/src/xmc_usbd.c ****   number_temp = (uint32_t)((uint32_t)1U << (uint8_t)ep->address_u.address_st.number);
 872              		.loc 1 1555 0
 873 0012 D3F8A461 		ldr	r6, [r3, #420]
 874              		.loc 1 1558 0
 875 0016 1479     		ldrb	r4, [r2, #4]	@ zero_extendqisi2
1555:/opt/XMClib/XMC_Peripheral_Library_v2.1.16/XMCLib/src/xmc_usbd.c ****   number_temp = (uint32_t)((uint32_t)1U << (uint8_t)ep->address_u.address_st.number);
 876              		.loc 1 1555 0
 877 0018 D6F81CE0 		ldr	lr, [r6, #28]
 878              	.LVL77:
 879              		.loc 1 1558 0
 880 001c 6507     		lsls	r5, r4, #29
 881 001e 4AD5     		bpl	.L82
1559:/opt/XMClib/XMC_Peripheral_Library_v2.1.16/XMCLib/src/xmc_usbd.c ****   {
1560:/opt/XMClib/XMC_Peripheral_Library_v2.1.16/XMCLib/src/xmc_usbd.c ****      result = XMC_USBD_STATUS_ERROR;
1561:/opt/XMClib/XMC_Peripheral_Library_v2.1.16/XMCLib/src/xmc_usbd.c ****   }
1562:/opt/XMClib/XMC_Peripheral_Library_v2.1.16/XMCLib/src/xmc_usbd.c ****   else
1563:/opt/XMClib/XMC_Peripheral_Library_v2.1.16/XMCLib/src/xmc_usbd.c ****   {
1564:/opt/XMClib/XMC_Peripheral_Library_v2.1.16/XMCLib/src/xmc_usbd.c ****     /* disable the endpoint, deactivate it and only send naks */
1565:/opt/XMClib/XMC_Peripheral_Library_v2.1.16/XMCLib/src/xmc_usbd.c ****     data.b.usbactep = 0U;
1566:/opt/XMClib/XMC_Peripheral_Library_v2.1.16/XMCLib/src/xmc_usbd.c ****     data.b.epdis =  1U;
1567:/opt/XMClib/XMC_Peripheral_Library_v2.1.16/XMCLib/src/xmc_usbd.c ****     data.b.snak =  1U;
1568:/opt/XMClib/XMC_Peripheral_Library_v2.1.16/XMCLib/src/xmc_usbd.c ****     data.b.stall =  0U;
1569:/opt/XMClib/XMC_Peripheral_Library_v2.1.16/XMCLib/src/xmc_usbd.c ****     ep->isConfigured =  0U;
1570:/opt/XMClib/XMC_Peripheral_Library_v2.1.16/XMCLib/src/xmc_usbd.c ****     ep->isStalled =  0U;
 882              		.loc 1 1570 0
 883 0020 04F0FB04 		and	r4, r4, #251
 884 0024 6FF34514 		bfc	r4, #5, #1
1556:/opt/XMClib/XMC_Peripheral_Library_v2.1.16/XMCLib/src/xmc_usbd.c ****   /* if not configured return an error */
 885              		.loc 1 1556 0
 886 0028 13F80180 		ldrb	r8, [r3, r1]	@ zero_extendqisi2
 887              		.loc 1 1570 0
 888 002c 1471     		strb	r4, [r2, #4]
1571:/opt/XMClib/XMC_Peripheral_Library_v2.1.16/XMCLib/src/xmc_usbd.c ****     ep->outInUse =  0U;
 889              		.loc 1 1571 0
 890 002e 5468     		ldr	r4, [r2, #4]
 891 0030 6FF30414 		bfc	r4, #4, #1
 892 0034 5460     		str	r4, [r2, #4]
1572:/opt/XMClib/XMC_Peripheral_Library_v2.1.16/XMCLib/src/xmc_usbd.c ****     ep->inInUse =  0U;
 893              		.loc 1 1572 0
 894 0036 5468     		ldr	r4, [r2, #4]
 895 0038 6FF3C304 		bfc	r4, #3, #1
 896 003c 5460     		str	r4, [r2, #4]
1573:/opt/XMClib/XMC_Peripheral_Library_v2.1.16/XMCLib/src/xmc_usbd.c ****     /* chose register based on the direction. Control Endpoint need both */
1574:/opt/XMClib/XMC_Peripheral_Library_v2.1.16/XMCLib/src/xmc_usbd.c ****     if ((ep->address_u.address_st.direction == 1U) || (ep->type == (uint8_t)XMC_USBD_ENDPOINT_TYPE_
 897              		.loc 1 1574 0
 898 003e 13F90190 		ldrsb	r9, [r3, r1]
 899 0042 4FF0000C 		mov	ip, #0
 900              	.LVL78:
1556:/opt/XMClib/XMC_Peripheral_Library_v2.1.16/XMCLib/src/xmc_usbd.c ****   /* if not configured return an error */
 901              		.loc 1 1556 0
 902 0046 08F00F08 		and	r8, r8, #15
 903 004a 0125     		movs	r5, #1
 904              	.LVL79:
1565:/opt/XMClib/XMC_Peripheral_Library_v2.1.16/XMCLib/src/xmc_usbd.c ****     data.b.epdis =  1U;
 905              		.loc 1 1565 0
 906 004c 6CF3CF3C 		bfi	ip, ip, #15, #1
1556:/opt/XMClib/XMC_Peripheral_Library_v2.1.16/XMCLib/src/xmc_usbd.c ****   /* if not configured return an error */
 907              		.loc 1 1556 0
 908 0050 05FA08F1 		lsl	r1, r5, r8
1567:/opt/XMClib/XMC_Peripheral_Library_v2.1.16/XMCLib/src/xmc_usbd.c ****     data.b.stall =  0U;
 909              		.loc 1 1567 0
 910 0054 4CF0904C 		orr	ip, ip, #1207959552
 911              	.LVL80:
 912 0058 C943     		mvns	r1, r1
 913              		.loc 1 1574 0
 914 005a B9F1000F 		cmp	r9, #0
 915 005e 7746     		mov	r7, lr
 916              	.LVL81:
1568:/opt/XMClib/XMC_Peripheral_Library_v2.1.16/XMCLib/src/xmc_usbd.c ****     ep->isConfigured =  0U;
 917              		.loc 1 1568 0
 918 0060 6FF3555C 		bfc	ip, #21, #1
 919              	.LVL82:
 920 0064 8CB2     		uxth	r4, r1
 921              		.loc 1 1574 0
 922 0066 29DB     		blt	.L76
 923              		.loc 1 1574 0 is_stmt 0 discriminator 1
 924 0068 1279     		ldrb	r2, [r2, #4]	@ zero_extendqisi2
 925              	.LVL83:
 926 006a 9207     		lsls	r2, r2, #30
 927 006c 36D0     		beq	.L77
 928              	.LVL84:
 929              	.L80:
1575:/opt/XMClib/XMC_Peripheral_Library_v2.1.16/XMCLib/src/xmc_usbd.c ****     {
1576:/opt/XMClib/XMC_Peripheral_Library_v2.1.16/XMCLib/src/xmc_usbd.c ****       /* disable endpoint configuration */
1577:/opt/XMClib/XMC_Peripheral_Library_v2.1.16/XMCLib/src/xmc_usbd.c ****       xmc_device.endpoint_in_register[ep->address_u.address_st.number]->diepctl = data.d32;
1578:/opt/XMClib/XMC_Peripheral_Library_v2.1.16/XMCLib/src/xmc_usbd.c ****       /* disable interrupts */
1579:/opt/XMClib/XMC_Peripheral_Library_v2.1.16/XMCLib/src/xmc_usbd.c ****       daintmsk.ep.in = (uint16_t)((uint32_t)daintmsk.ep.in & (~(uint32_t)number_temp));
1580:/opt/XMClib/XMC_Peripheral_Library_v2.1.16/XMCLib/src/xmc_usbd.c ****     }
1581:/opt/XMClib/XMC_Peripheral_Library_v2.1.16/XMCLib/src/xmc_usbd.c ****     if ((ep->address_u.address_st.direction == 0U) || (ep->type == (uint8_t)XMC_USBD_ENDPOINT_TYPE_
1582:/opt/XMClib/XMC_Peripheral_Library_v2.1.16/XMCLib/src/xmc_usbd.c ****     {
1583:/opt/XMClib/XMC_Peripheral_Library_v2.1.16/XMCLib/src/xmc_usbd.c ****       xmc_device.endpoint_out_register[ep->address_u.address_st.number]->doepctl = data.d32;
1584:/opt/XMClib/XMC_Peripheral_Library_v2.1.16/XMCLib/src/xmc_usbd.c ****       daintmsk.ep.out = (uint16_t)((uint32_t)daintmsk.ep.out & (~(uint32_t)number_temp));
1585:/opt/XMClib/XMC_Peripheral_Library_v2.1.16/XMCLib/src/xmc_usbd.c ****       if(usbd_init->usbd_transfer_mode == XMC_USBD_USE_FIFO)
 930              		.loc 1 1585 0 is_stmt 1
 931 006e 224A     		ldr	r2, .L88+4
 932 0070 1268     		ldr	r2, [r2]
1583:/opt/XMClib/XMC_Peripheral_Library_v2.1.16/XMCLib/src/xmc_usbd.c ****       daintmsk.ep.out = (uint16_t)((uint32_t)daintmsk.ep.out & (~(uint32_t)number_temp));
 933              		.loc 1 1583 0
 934 0072 03EB8808 		add	r8, r3, r8, lsl #2
 935              		.loc 1 1585 0
 936 0076 527B     		ldrb	r2, [r2, #13]	@ zero_extendqisi2
1583:/opt/XMClib/XMC_Peripheral_Library_v2.1.16/XMCLib/src/xmc_usbd.c ****       daintmsk.ep.out = (uint16_t)((uint32_t)daintmsk.ep.out & (~(uint32_t)number_temp));
 937              		.loc 1 1583 0
 938 0078 D8F8C451 		ldr	r5, [r8, #452]
1584:/opt/XMClib/XMC_Peripheral_Library_v2.1.16/XMCLib/src/xmc_usbd.c ****       if(usbd_init->usbd_transfer_mode == XMC_USBD_USE_FIFO)
 939              		.loc 1 1584 0
 940 007c 04EA1E44 		and	r4, r4, lr, lsr #16
 941              		.loc 1 1585 0
 942 0080 012A     		cmp	r2, #1
1583:/opt/XMClib/XMC_Peripheral_Library_v2.1.16/XMCLib/src/xmc_usbd.c ****       daintmsk.ep.out = (uint16_t)((uint32_t)daintmsk.ep.out & (~(uint32_t)number_temp));
 943              		.loc 1 1583 0
 944 0082 C5F800C0 		str	ip, [r5]
1584:/opt/XMClib/XMC_Peripheral_Library_v2.1.16/XMCLib/src/xmc_usbd.c ****       if(usbd_init->usbd_transfer_mode == XMC_USBD_USE_FIFO)
 945              		.loc 1 1584 0
 946 0086 64F31F47 		bfi	r7, r4, #16, #16
 947              		.loc 1 1585 0
 948 008a 02D1     		bne	.L79
1586:/opt/XMClib/XMC_Peripheral_Library_v2.1.16/XMCLib/src/xmc_usbd.c ****       {
1587:/opt/XMClib/XMC_Peripheral_Library_v2.1.16/XMCLib/src/xmc_usbd.c ****         xmc_device.device_register->dtknqr4_fifoemptymsk &= ~number_temp;
 949              		.loc 1 1587 0
 950 008c 726B     		ldr	r2, [r6, #52]
 951 008e 1140     		ands	r1, r1, r2
 952 0090 7163     		str	r1, [r6, #52]
 953              	.L79:
1588:/opt/XMClib/XMC_Peripheral_Library_v2.1.16/XMCLib/src/xmc_usbd.c ****       }
1589:/opt/XMClib/XMC_Peripheral_Library_v2.1.16/XMCLib/src/xmc_usbd.c ****     }
1590:/opt/XMClib/XMC_Peripheral_Library_v2.1.16/XMCLib/src/xmc_usbd.c ****     xmc_device.device_register->daintmsk = daintmsk.d32;
1591:/opt/XMClib/XMC_Peripheral_Library_v2.1.16/XMCLib/src/xmc_usbd.c ****     XMC_USBD_lUnassignFifo(ep->txFifoNum); /* free fifo */
 954              		.loc 1 1591 0
 955 0092 3422     		movs	r2, #52
 956 0094 02FB0030 		mla	r0, r2, r0, r3
 957              	.LVL85:
1590:/opt/XMClib/XMC_Peripheral_Library_v2.1.16/XMCLib/src/xmc_usbd.c ****     XMC_USBD_lUnassignFifo(ep->txFifoNum); /* free fifo */
 958              		.loc 1 1590 0
 959 0098 F761     		str	r7, [r6, #28]
 960              	.LVL86:
 961              		.loc 1 1591 0
 962 009a 8188     		ldrh	r1, [r0, #4]
 963              	.LBB91:
 964              	.LBB92:
 384:/opt/XMClib/XMC_Peripheral_Library_v2.1.16/XMCLib/src/xmc_usbd.c **** }
 965              		.loc 1 384 0
 966 009c B3F8FC21 		ldrh	r2, [r3, #508]
 967 00a0 C1F38310 		ubfx	r0, r1, #6, #4
 968 00a4 0121     		movs	r1, #1
 969 00a6 8140     		lsls	r1, r1, r0
 970 00a8 22EA0102 		bic	r2, r2, r1
 971 00ac A3F8FC21 		strh	r2, [r3, #508]	@ movhi
 972              	.LVL87:
 973              	.LBE92:
 974              	.LBE91:
1592:/opt/XMClib/XMC_Peripheral_Library_v2.1.16/XMCLib/src/xmc_usbd.c ****     result = XMC_USBD_STATUS_OK;
 975              		.loc 1 1592 0
 976 00b0 0020     		movs	r0, #0
1593:/opt/XMClib/XMC_Peripheral_Library_v2.1.16/XMCLib/src/xmc_usbd.c ****   }
1594:/opt/XMClib/XMC_Peripheral_Library_v2.1.16/XMCLib/src/xmc_usbd.c ****   return result;
1595:/opt/XMClib/XMC_Peripheral_Library_v2.1.16/XMCLib/src/xmc_usbd.c **** }
 977              		.loc 1 1595 0
 978 00b2 BDE8F083 		pop	{r4, r5, r6, r7, r8, r9, pc}
 979              	.LVL88:
 980              	.L82:
1560:/opt/XMClib/XMC_Peripheral_Library_v2.1.16/XMCLib/src/xmc_usbd.c ****   }
 981              		.loc 1 1560 0
 982 00b6 0120     		movs	r0, #1
 983              	.LVL89:
 984              		.loc 1 1595 0
 985 00b8 BDE8F083 		pop	{r4, r5, r6, r7, r8, r9, pc}
 986              	.LVL90:
 987              	.L76:
1577:/opt/XMClib/XMC_Peripheral_Library_v2.1.16/XMCLib/src/xmc_usbd.c ****       /* disable interrupts */
 988              		.loc 1 1577 0
 989 00bc 08F16A09 		add	r9, r8, #106
1579:/opt/XMClib/XMC_Peripheral_Library_v2.1.16/XMCLib/src/xmc_usbd.c ****     }
 990              		.loc 1 1579 0
 991 00c0 04EA0E05 		and	r5, r4, lr
1577:/opt/XMClib/XMC_Peripheral_Library_v2.1.16/XMCLib/src/xmc_usbd.c ****       /* disable interrupts */
 992              		.loc 1 1577 0
 993 00c4 53F82990 		ldr	r9, [r3, r9, lsl #2]
 994 00c8 C9F800C0 		str	ip, [r9]
 995              	.LVL91:
1581:/opt/XMClib/XMC_Peripheral_Library_v2.1.16/XMCLib/src/xmc_usbd.c ****     {
 996              		.loc 1 1581 0
 997 00cc 92F80490 		ldrb	r9, [r2, #4]	@ zero_extendqisi2
 998 00d0 19F0030F 		tst	r9, #3
1579:/opt/XMClib/XMC_Peripheral_Library_v2.1.16/XMCLib/src/xmc_usbd.c ****     }
 999              		.loc 1 1579 0
 1000 00d4 65F30F07 		bfi	r7, r5, #0, #16
 1001              	.LVL92:
1581:/opt/XMClib/XMC_Peripheral_Library_v2.1.16/XMCLib/src/xmc_usbd.c ****     {
 1002              		.loc 1 1581 0
 1003 00d8 C9D0     		beq	.L80
 1004 00da DAE7     		b	.L79
 1005              	.LVL93:
 1006              	.L77:
1577:/opt/XMClib/XMC_Peripheral_Library_v2.1.16/XMCLib/src/xmc_usbd.c ****       /* disable interrupts */
 1007              		.loc 1 1577 0
 1008 00dc 08F16A05 		add	r5, r8, #106
1579:/opt/XMClib/XMC_Peripheral_Library_v2.1.16/XMCLib/src/xmc_usbd.c ****     }
 1009              		.loc 1 1579 0
 1010 00e0 04EA0E02 		and	r2, r4, lr
1577:/opt/XMClib/XMC_Peripheral_Library_v2.1.16/XMCLib/src/xmc_usbd.c ****       /* disable interrupts */
 1011              		.loc 1 1577 0
 1012 00e4 53F82550 		ldr	r5, [r3, r5, lsl #2]
1579:/opt/XMClib/XMC_Peripheral_Library_v2.1.16/XMCLib/src/xmc_usbd.c ****     }
 1013              		.loc 1 1579 0
 1014 00e8 62F30F07 		bfi	r7, r2, #0, #16
 1015              	.LVL94:
1577:/opt/XMClib/XMC_Peripheral_Library_v2.1.16/XMCLib/src/xmc_usbd.c ****       /* disable interrupts */
 1016              		.loc 1 1577 0
 1017 00ec C5F800C0 		str	ip, [r5]
 1018              	.LVL95:
 1019 00f0 BDE7     		b	.L80
 1020              	.L89:
 1021 00f2 00BF     		.align	2
 1022              	.L88:
 1023 00f4 00000000 		.word	xmc_device
 1024 00f8 00000000 		.word	usbd_init
 1025              		.cfi_endproc
 1026              	.LFE199:
 1028              		.section	.text.XMC_USBD_GetFrameNumber,"ax",%progbits
 1029              		.align	1
 1030              		.p2align 2,,3
 1031              		.global	XMC_USBD_GetFrameNumber
 1032              		.syntax unified
 1033              		.thumb
 1034              		.thumb_func
 1035              		.fpu fpv4-sp-d16
 1037              	XMC_USBD_GetFrameNumber:
 1038              	.LFB200:
1596:/opt/XMClib/XMC_Peripheral_Library_v2.1.16/XMCLib/src/xmc_usbd.c **** 
1597:/opt/XMClib/XMC_Peripheral_Library_v2.1.16/XMCLib/src/xmc_usbd.c **** /**
1598:/opt/XMClib/XMC_Peripheral_Library_v2.1.16/XMCLib/src/xmc_usbd.c ****  * Gets the current USB frame number
1599:/opt/XMClib/XMC_Peripheral_Library_v2.1.16/XMCLib/src/xmc_usbd.c ****  **/
1600:/opt/XMClib/XMC_Peripheral_Library_v2.1.16/XMCLib/src/xmc_usbd.c **** uint16_t XMC_USBD_GetFrameNumber(void) 
1601:/opt/XMClib/XMC_Peripheral_Library_v2.1.16/XMCLib/src/xmc_usbd.c **** {
 1039              		.loc 1 1601 0
 1040              		.cfi_startproc
 1041              		@ args = 0, pretend = 0, frame = 0
 1042              		@ frame_needed = 0, uses_anonymous_args = 0
 1043              		@ link register save eliminated.
1602:/opt/XMClib/XMC_Peripheral_Library_v2.1.16/XMCLib/src/xmc_usbd.c ****   uint16_t result;
1603:/opt/XMClib/XMC_Peripheral_Library_v2.1.16/XMCLib/src/xmc_usbd.c ****   dsts_data_t dsts;
1604:/opt/XMClib/XMC_Peripheral_Library_v2.1.16/XMCLib/src/xmc_usbd.c ****   dsts.d32 = xmc_device.device_register->dsts;
 1044              		.loc 1 1604 0
 1045 0000 034B     		ldr	r3, .L91
 1046 0002 D3F8A431 		ldr	r3, [r3, #420]
 1047 0006 9868     		ldr	r0, [r3, #8]
 1048              	.LVL96:
1605:/opt/XMClib/XMC_Peripheral_Library_v2.1.16/XMCLib/src/xmc_usbd.c ****   result = (uint16_t)dsts.b.soffn;
1606:/opt/XMClib/XMC_Peripheral_Library_v2.1.16/XMCLib/src/xmc_usbd.c ****   return result;
1607:/opt/XMClib/XMC_Peripheral_Library_v2.1.16/XMCLib/src/xmc_usbd.c **** }
 1049              		.loc 1 1607 0
 1050 0008 C0F30D20 		ubfx	r0, r0, #8, #14
 1051              	.LVL97:
 1052 000c 7047     		bx	lr
 1053              	.L92:
 1054 000e 00BF     		.align	2
 1055              	.L91:
 1056 0010 00000000 		.word	xmc_device
 1057              		.cfi_endproc
 1058              	.LFE200:
 1060              		.section	.text.XMC_USBD_IsEnumDone,"ax",%progbits
 1061              		.align	1
 1062              		.p2align 2,,3
 1063              		.global	XMC_USBD_IsEnumDone
 1064              		.syntax unified
 1065              		.thumb
 1066              		.thumb_func
 1067              		.fpu fpv4-sp-d16
 1069              	XMC_USBD_IsEnumDone:
 1070              	.LFB201:
1608:/opt/XMClib/XMC_Peripheral_Library_v2.1.16/XMCLib/src/xmc_usbd.c **** 
1609:/opt/XMClib/XMC_Peripheral_Library_v2.1.16/XMCLib/src/xmc_usbd.c **** /**
1610:/opt/XMClib/XMC_Peripheral_Library_v2.1.16/XMCLib/src/xmc_usbd.c ****  * Gets the USB speed enumeration completion status.
1611:/opt/XMClib/XMC_Peripheral_Library_v2.1.16/XMCLib/src/xmc_usbd.c ****  * This should not be used for the actual USB enumeration completion status. For the actual USB enu
1612:/opt/XMClib/XMC_Peripheral_Library_v2.1.16/XMCLib/src/xmc_usbd.c ****  * the application layer should check for the completion of USB standard request Set configuration.
1613:/opt/XMClib/XMC_Peripheral_Library_v2.1.16/XMCLib/src/xmc_usbd.c ****  **/
1614:/opt/XMClib/XMC_Peripheral_Library_v2.1.16/XMCLib/src/xmc_usbd.c **** uint32_t XMC_USBD_IsEnumDone(void)
1615:/opt/XMClib/XMC_Peripheral_Library_v2.1.16/XMCLib/src/xmc_usbd.c **** {
 1071              		.loc 1 1615 0
 1072              		.cfi_startproc
 1073              		@ args = 0, pretend = 0, frame = 0
 1074              		@ frame_needed = 0, uses_anonymous_args = 0
 1075              		@ link register save eliminated.
1616:/opt/XMClib/XMC_Peripheral_Library_v2.1.16/XMCLib/src/xmc_usbd.c ****   return (uint32_t)((uint8_t)xmc_device.IsConnected && (uint8_t)xmc_device.IsPowered);
 1076              		.loc 1 1616 0
 1077 0000 054B     		ldr	r3, .L94
 1078 0002 93F8FE01 		ldrb	r0, [r3, #510]	@ zero_extendqisi2
 1079 0006 00F00500 		and	r0, r0, #5
1617:/opt/XMClib/XMC_Peripheral_Library_v2.1.16/XMCLib/src/xmc_usbd.c **** }
 1080              		.loc 1 1617 0
 1081 000a A0F10500 		sub	r0, #5
 1082 000e B0FA80F0 		clz	r0, r0
 1083 0012 4009     		lsrs	r0, r0, #5
 1084 0014 7047     		bx	lr
 1085              	.L95:
 1086 0016 00BF     		.align	2
 1087              	.L94:
 1088 0018 00000000 		.word	xmc_device
 1089              		.cfi_endproc
 1090              	.LFE201:
 1092              		.section	.text.XMC_USBD_Uninitialize,"ax",%progbits
 1093              		.align	1
 1094              		.p2align 2,,3
 1095              		.global	XMC_USBD_Uninitialize
 1096              		.syntax unified
 1097              		.thumb
 1098              		.thumb_func
 1099              		.fpu fpv4-sp-d16
 1101              	XMC_USBD_Uninitialize:
 1102              	.LFB188:
1201:/opt/XMClib/XMC_Peripheral_Library_v2.1.16/XMCLib/src/xmc_usbd.c ****   /* Disconnect the device */
 1103              		.loc 1 1201 0
 1104              		.cfi_startproc
 1105              		@ args = 0, pretend = 0, frame = 0
 1106              		@ frame_needed = 0, uses_anonymous_args = 0
1204:/opt/XMClib/XMC_Peripheral_Library_v2.1.16/XMCLib/src/xmc_usbd.c ****   dctl.b.sftdiscon = 1U;
 1107              		.loc 1 1204 0
 1108 0000 0748     		ldr	r0, .L98
 1109 0002 D0F8A421 		ldr	r2, [r0, #420]
1201:/opt/XMClib/XMC_Peripheral_Library_v2.1.16/XMCLib/src/xmc_usbd.c ****   /* Disconnect the device */
 1110              		.loc 1 1201 0
 1111 0006 08B5     		push	{r3, lr}
 1112              	.LCFI13:
 1113              		.cfi_def_cfa_offset 8
 1114              		.cfi_offset 3, -8
 1115              		.cfi_offset 14, -4
1204:/opt/XMClib/XMC_Peripheral_Library_v2.1.16/XMCLib/src/xmc_usbd.c ****   dctl.b.sftdiscon = 1U;
 1116              		.loc 1 1204 0
 1117 0008 5368     		ldr	r3, [r2, #4]
1205:/opt/XMClib/XMC_Peripheral_Library_v2.1.16/XMCLib/src/xmc_usbd.c ****   xmc_device.device_register->dctl = dctl.d32;
 1118              		.loc 1 1205 0
 1119 000a 43F00203 		orr	r3, r3, #2
 1120              	.LVL98:
1206:/opt/XMClib/XMC_Peripheral_Library_v2.1.16/XMCLib/src/xmc_usbd.c ****   /* clean up */
 1121              		.loc 1 1206 0
 1122 000e 5360     		str	r3, [r2, #4]
1208:/opt/XMClib/XMC_Peripheral_Library_v2.1.16/XMCLib/src/xmc_usbd.c ****   return XMC_USBD_STATUS_OK;
 1123              		.loc 1 1208 0
 1124 0010 0021     		movs	r1, #0
 1125 0012 4FF40272 		mov	r2, #520
 1126 0016 FFF7FEFF 		bl	memset
 1127              	.LVL99:
1210:/opt/XMClib/XMC_Peripheral_Library_v2.1.16/XMCLib/src/xmc_usbd.c **** 
 1128              		.loc 1 1210 0
 1129 001a 0020     		movs	r0, #0
 1130 001c 08BD     		pop	{r3, pc}
 1131              	.L99:
 1132 001e 00BF     		.align	2
 1133              	.L98:
 1134 0020 00000000 		.word	xmc_device
 1135              		.cfi_endproc
 1136              	.LFE188:
 1138              		.section	.text.XMC_USBD_EndpointConfigure,"ax",%progbits
 1139              		.align	1
 1140              		.p2align 2,,3
 1141              		.global	XMC_USBD_EndpointConfigure
 1142              		.syntax unified
 1143              		.thumb
 1144              		.thumb_func
 1145              		.fpu fpv4-sp-d16
 1147              	XMC_USBD_EndpointConfigure:
 1148              	.LFB198:
1431:/opt/XMClib/XMC_Peripheral_Library_v2.1.16/XMCLib/src/xmc_usbd.c ****   daint_data_t daintmsk;
 1149              		.loc 1 1431 0
 1150              		.cfi_startproc
 1151              		@ args = 0, pretend = 0, frame = 8
 1152              		@ frame_needed = 0, uses_anonymous_args = 0
 1153              	.LVL100:
 1154 0000 2DE9F04F 		push	{r4, r5, r6, r7, r8, r9, r10, fp, lr}
 1155              	.LCFI14:
 1156              		.cfi_def_cfa_offset 36
 1157              		.cfi_offset 4, -36
 1158              		.cfi_offset 5, -32
 1159              		.cfi_offset 6, -28
 1160              		.cfi_offset 7, -24
 1161              		.cfi_offset 8, -20
 1162              		.cfi_offset 9, -16
 1163              		.cfi_offset 10, -12
 1164              		.cfi_offset 11, -8
 1165              		.cfi_offset 14, -4
1434:/opt/XMClib/XMC_Peripheral_Library_v2.1.16/XMCLib/src/xmc_usbd.c ****   ep =&xmc_device.ep[ep_addr & (uint32_t)XMC_USBD_ENDPOINT_NUMBER_MASK];
 1166              		.loc 1 1434 0
 1167 0004 964C     		ldr	r4, .L138
 1168 0006 00F00F05 		and	r5, r0, #15
 1169              	.LVL101:
1431:/opt/XMClib/XMC_Peripheral_Library_v2.1.16/XMCLib/src/xmc_usbd.c ****   daint_data_t daintmsk;
 1170              		.loc 1 1431 0
 1171 000a 8146     		mov	r9, r0
1435:/opt/XMClib/XMC_Peripheral_Library_v2.1.16/XMCLib/src/xmc_usbd.c ****   memset((void*)ep,0x0U,sizeof(XMC_USBD_EP_t)); /* clear endpoint structure */
 1172              		.loc 1 1435 0
 1173 000c 05EB4500 		add	r0, r5, r5, lsl #1
 1174              	.LVL102:
1434:/opt/XMClib/XMC_Peripheral_Library_v2.1.16/XMCLib/src/xmc_usbd.c ****   ep =&xmc_device.ep[ep_addr & (uint32_t)XMC_USBD_ENDPOINT_NUMBER_MASK];
 1175              		.loc 1 1434 0
 1176 0010 D4F8A431 		ldr	r3, [r4, #420]
1436:/opt/XMClib/XMC_Peripheral_Library_v2.1.16/XMCLib/src/xmc_usbd.c ****   /* do ep configuration */
 1177              		.loc 1 1436 0
 1178 0014 4FF0340A 		mov	r10, #52
1435:/opt/XMClib/XMC_Peripheral_Library_v2.1.16/XMCLib/src/xmc_usbd.c ****   memset((void*)ep,0x0U,sizeof(XMC_USBD_EP_t)); /* clear endpoint structure */
 1179              		.loc 1 1435 0
 1180 0018 05EB8000 		add	r0, r5, r0, lsl #2
1431:/opt/XMClib/XMC_Peripheral_Library_v2.1.16/XMCLib/src/xmc_usbd.c ****   daint_data_t daintmsk;
 1181              		.loc 1 1431 0
 1182 001c 1646     		mov	r6, r2
 1183 001e 83B0     		sub	sp, sp, #12
 1184              	.LCFI15:
 1185              		.cfi_def_cfa_offset 48
1436:/opt/XMClib/XMC_Peripheral_Library_v2.1.16/XMCLib/src/xmc_usbd.c ****   /* do ep configuration */
 1186              		.loc 1 1436 0
 1187 0020 5246     		mov	r2, r10
 1188              	.LVL103:
1431:/opt/XMClib/XMC_Peripheral_Library_v2.1.16/XMCLib/src/xmc_usbd.c ****   daint_data_t daintmsk;
 1189              		.loc 1 1431 0
 1190 0022 0F46     		mov	r7, r1
1436:/opt/XMClib/XMC_Peripheral_Library_v2.1.16/XMCLib/src/xmc_usbd.c ****   /* do ep configuration */
 1191              		.loc 1 1436 0
 1192 0024 04EB8000 		add	r0, r4, r0, lsl #2
 1193 0028 0021     		movs	r1, #0
 1194              	.LVL104:
1434:/opt/XMClib/XMC_Peripheral_Library_v2.1.16/XMCLib/src/xmc_usbd.c ****   ep =&xmc_device.ep[ep_addr & (uint32_t)XMC_USBD_ENDPOINT_NUMBER_MASK];
 1195              		.loc 1 1434 0
 1196 002a D3F81C80 		ldr	r8, [r3, #28]
1436:/opt/XMClib/XMC_Peripheral_Library_v2.1.16/XMCLib/src/xmc_usbd.c ****   /* do ep configuration */
 1197              		.loc 1 1436 0
 1198 002e FFF7FEFF 		bl	memset
 1199              	.LVL105:
1438:/opt/XMClib/XMC_Peripheral_Library_v2.1.16/XMCLib/src/xmc_usbd.c ****   ep->isConfigured = 1U;
 1200              		.loc 1 1438 0
 1201 0032 0AFB05F2 		mul	r2, r10, r5
 1202 0036 04EB020C 		add	ip, r4, r2
 1203 003a 04F80290 		strb	r9, [r4, r2]
1439:/opt/XMClib/XMC_Peripheral_Library_v2.1.16/XMCLib/src/xmc_usbd.c ****   ep->maxPacketSize = (uint8_t)ep_max_packet_size;
 1204              		.loc 1 1439 0
 1205 003e 9CF80430 		ldrb	r3, [ip, #4]	@ zero_extendqisi2
 1206 0042 43F00403 		orr	r3, r3, #4
 1207 0046 8CF80430 		strb	r3, [ip, #4]
1440:/opt/XMClib/XMC_Peripheral_Library_v2.1.16/XMCLib/src/xmc_usbd.c ****   if (ep->address_u.address != 0U)
 1208              		.loc 1 1440 0
 1209 004a DCF80430 		ldr	r3, [ip, #4]
 1210 004e 66F3D123 		bfi	r3, r6, #11, #7
 1211 0052 CCF80430 		str	r3, [ip, #4]
1434:/opt/XMClib/XMC_Peripheral_Library_v2.1.16/XMCLib/src/xmc_usbd.c ****   ep =&xmc_device.ep[ep_addr & (uint32_t)XMC_USBD_ENDPOINT_NUMBER_MASK];
 1212              		.loc 1 1434 0
 1213 0056 C246     		mov	r10, r8
 1214              	.LVL106:
 1215 0058 4FFA89FB 		sxtb	fp, r9
1441:/opt/XMClib/XMC_Peripheral_Library_v2.1.16/XMCLib/src/xmc_usbd.c ****   {
 1216              		.loc 1 1441 0
 1217 005c B9F1000F 		cmp	r9, #0
 1218 0060 6DD0     		beq	.L101
1443:/opt/XMClib/XMC_Peripheral_Library_v2.1.16/XMCLib/src/xmc_usbd.c ****   }
 1219              		.loc 1 1443 0
 1220 0062 DCF80810 		ldr	r1, [ip, #8]
1453:/opt/XMClib/XMC_Peripheral_Library_v2.1.16/XMCLib/src/xmc_usbd.c ****   ep->outBufferSize = XMC_USBD_EP_OUT_BUFFERSIZE[ep->address_u.address_st.number];
 1221              		.loc 1 1453 0
 1222 0066 DFF800E2 		ldr	lr, .L138+8
1443:/opt/XMClib/XMC_Peripheral_Library_v2.1.16/XMCLib/src/xmc_usbd.c ****   }
 1223              		.loc 1 1443 0
 1224 006a 4FF6C070 		movw	r0, #65472
 1225 006e 60F31201 		bfi	r1, r0, #0, #19
 1226 0072 CCF80810 		str	r1, [ip, #8]
1450:/opt/XMClib/XMC_Peripheral_Library_v2.1.16/XMCLib/src/xmc_usbd.c ****   ep->outBuffer = XMC_USBD_EP_OUT_BUFFER[ep->address_u.address_st.number];
 1227              		.loc 1 1450 0
 1228 0076 A15C     		ldrb	r1, [r4, r2]	@ zero_extendqisi2
 1229 0078 7A4A     		ldr	r2, .L138+4
 1230 007a 01F00F01 		and	r1, r1, #15
1454:/opt/XMClib/XMC_Peripheral_Library_v2.1.16/XMCLib/src/xmc_usbd.c ****   /* is in */
 1231              		.loc 1 1454 0
 1232 007e 0EEB8103 		add	r3, lr, r1, lsl #2
 1233 0082 0802     		lsls	r0, r1, #8
 1234 0084 DB69     		ldr	r3, [r3, #28]
 1235 0086 0193     		str	r3, [sp, #4]
1453:/opt/XMClib/XMC_Peripheral_Library_v2.1.16/XMCLib/src/xmc_usbd.c ****   ep->outBufferSize = XMC_USBD_EP_OUT_BUFFERSIZE[ep->address_u.address_st.number];
 1236              		.loc 1 1453 0
 1237 0088 5EF82130 		ldr	r3, [lr, r1, lsl #2]
 1238 008c CCF82030 		str	r3, [ip, #32]
1451:/opt/XMClib/XMC_Peripheral_Library_v2.1.16/XMCLib/src/xmc_usbd.c ****   /* buffer size*/
 1239              		.loc 1 1451 0
 1240 0090 02F5E06E 		add	lr, r2, #1792
1454:/opt/XMClib/XMC_Peripheral_Library_v2.1.16/XMCLib/src/xmc_usbd.c ****   /* is in */
 1241              		.loc 1 1454 0
 1242 0094 019B     		ldr	r3, [sp, #4]
 1243 0096 CCF81430 		str	r3, [ip, #20]
1450:/opt/XMClib/XMC_Peripheral_Library_v2.1.16/XMCLib/src/xmc_usbd.c ****   ep->outBuffer = XMC_USBD_EP_OUT_BUFFER[ep->address_u.address_st.number];
 1244              		.loc 1 1450 0
 1245 009a 1318     		adds	r3, r2, r0
1451:/opt/XMClib/XMC_Peripheral_Library_v2.1.16/XMCLib/src/xmc_usbd.c ****   /* buffer size*/
 1246              		.loc 1 1451 0
 1247 009c 0EEB0002 		add	r2, lr, r0
 1248 00a0 0120     		movs	r0, #1
 1249 00a2 8840     		lsls	r0, r0, r1
1456:/opt/XMClib/XMC_Peripheral_Library_v2.1.16/XMCLib/src/xmc_usbd.c ****   {
 1250              		.loc 1 1456 0
 1251 00a4 BBF1000F 		cmp	fp, #0
1450:/opt/XMClib/XMC_Peripheral_Library_v2.1.16/XMCLib/src/xmc_usbd.c ****   ep->outBuffer = XMC_USBD_EP_OUT_BUFFER[ep->address_u.address_st.number];
 1252              		.loc 1 1450 0
 1253 00a8 CCF81C30 		str	r3, [ip, #28]
1451:/opt/XMClib/XMC_Peripheral_Library_v2.1.16/XMCLib/src/xmc_usbd.c ****   /* buffer size*/
 1254              		.loc 1 1451 0
 1255 00ac CCF80C20 		str	r2, [ip, #12]
 1256 00b0 80B2     		uxth	r0, r0
1456:/opt/XMClib/XMC_Peripheral_Library_v2.1.16/XMCLib/src/xmc_usbd.c ****   {
 1257              		.loc 1 1456 0
 1258 00b2 69DA     		bge	.L103
 1259              	.LBB93:
1459:/opt/XMClib/XMC_Peripheral_Library_v2.1.16/XMCLib/src/xmc_usbd.c **** 		/*enable endpoint */
 1260              		.loc 1 1459 0
 1261 00b4 01F16A03 		add	r3, r1, #106
 1262 00b8 54F82330 		ldr	r3, [r4, r3, lsl #2]
 1263 00bc 0193     		str	r3, [sp, #4]
 1264 00be D3F800C0 		ldr	ip, [r3]
 1265              	.LVL107:
1461:/opt/XMClib/XMC_Peripheral_Library_v2.1.16/XMCLib/src/xmc_usbd.c **** 		/* set ep type */
 1266              		.loc 1 1461 0
 1267 00c2 4CF4004C 		orr	ip, ip, #32768
 1268              	.LVL108:
1463:/opt/XMClib/XMC_Peripheral_Library_v2.1.16/XMCLib/src/xmc_usbd.c **** 		/* set mps */
 1269              		.loc 1 1463 0
 1270 00c6 67F3934C 		bfi	ip, r7, #18, #2
 1271              	.LVL109:
1465:/opt/XMClib/XMC_Peripheral_Library_v2.1.16/XMCLib/src/xmc_usbd.c ****     {
 1272              		.loc 1 1465 0
 1273 00ca 002F     		cmp	r7, #0
 1274 00cc 00F08480 		beq	.L128
1487:/opt/XMClib/XMC_Peripheral_Library_v2.1.16/XMCLib/src/xmc_usbd.c **** 		}
 1275              		.loc 1 1487 0
 1276 00d0 66F30A0C 		bfi	ip, r6, #0, #11
 1277              	.L107:
1490:/opt/XMClib/XMC_Peripheral_Library_v2.1.16/XMCLib/src/xmc_usbd.c **** 		/* clear stall */
 1278              		.loc 1 1490 0
 1279 00d4 4CF0805C 		orr	ip, ip, #268435456
 1280              	.LVL110:
 1281              	.LBB94:
 1282              	.LBB95:
 363:/opt/XMClib/XMC_Peripheral_Library_v2.1.16/XMCLib/src/xmc_usbd.c ****   {
 1283              		.loc 1 363 0
 1284 00d8 B4F8FC91 		ldrh	r9, [r4, #508]
 1285              	.LBE95:
 1286              	.LBE94:
1492:/opt/XMClib/XMC_Peripheral_Library_v2.1.16/XMCLib/src/xmc_usbd.c **** 		/* set tx fifo */
 1287              		.loc 1 1492 0
 1288 00dc 6FF3555C 		bfc	ip, #21, #1
 1289              	.LVL111:
 1290              	.LBB98:
 1291              	.LBB96:
 363:/opt/XMClib/XMC_Peripheral_Library_v2.1.16/XMCLib/src/xmc_usbd.c ****   {
 1292              		.loc 1 363 0
 1293 00e0 0023     		movs	r3, #0
 360:/opt/XMClib/XMC_Peripheral_Library_v2.1.16/XMCLib/src/xmc_usbd.c ****   uint8_t i = 0U;
 1294              		.loc 1 360 0
 1295 00e2 0122     		movs	r2, #1
 1296              	.LVL112:
 1297              	.L113:
 363:/opt/XMClib/XMC_Peripheral_Library_v2.1.16/XMCLib/src/xmc_usbd.c ****   {
 1298              		.loc 1 363 0
 1299 00e4 19EA020F 		tst	r9, r2
 365:/opt/XMClib/XMC_Peripheral_Library_v2.1.16/XMCLib/src/xmc_usbd.c ****     i++;
 1300              		.loc 1 365 0
 1301 00e8 4FEA420E 		lsl	lr, r2, #1
 363:/opt/XMClib/XMC_Peripheral_Library_v2.1.16/XMCLib/src/xmc_usbd.c ****   {
 1302              		.loc 1 363 0
 1303 00ec 7FD0     		beq	.L135
 1304 00ee 0133     		adds	r3, r3, #1
 1305              	.LVL113:
 1306 00f0 072B     		cmp	r3, #7
 365:/opt/XMClib/XMC_Peripheral_Library_v2.1.16/XMCLib/src/xmc_usbd.c ****     i++;
 1307              		.loc 1 365 0
 1308 00f2 1FFA8EF2 		uxth	r2, lr
 1309              	.LVL114:
 363:/opt/XMClib/XMC_Peripheral_Library_v2.1.16/XMCLib/src/xmc_usbd.c ****   {
 1310              		.loc 1 363 0
 1311 00f6 F5D1     		bne	.L113
 368:/opt/XMClib/XMC_Peripheral_Library_v2.1.16/XMCLib/src/xmc_usbd.c ****   {
 1312              		.loc 1 368 0
 1313 00f8 12EA090F 		tst	r2, r9
 1314 00fc 79D0     		beq	.L116
 1315 00fe 0023     		movs	r3, #0
 1316              	.LVL115:
 1317              	.L117:
 1318              	.LBE96:
 1319              	.LBE98:
1494:/opt/XMClib/XMC_Peripheral_Library_v2.1.16/XMCLib/src/xmc_usbd.c **** 		data.b.txfnum = ep->txFifoNum;
 1320              		.loc 1 1494 0
 1321 0100 3422     		movs	r2, #52
 1322 0102 02FB0545 		mla	r5, r2, r5, r4
 1323              	.LVL116:
1495:/opt/XMClib/XMC_Peripheral_Library_v2.1.16/XMCLib/src/xmc_usbd.c **** 		xmc_device.endpoint_in_register[ep->address_u.address_st.number]->diepctl = data.d32; /* configur
 1324              		.loc 1 1495 0
 1325 0106 63F3995C 		bfi	ip, r3, #22, #4
1494:/opt/XMClib/XMC_Peripheral_Library_v2.1.16/XMCLib/src/xmc_usbd.c **** 		data.b.txfnum = ep->txFifoNum;
 1326              		.loc 1 1494 0
 1327 010a AA88     		ldrh	r2, [r5, #4]
 1328 010c 63F38912 		bfi	r2, r3, #6, #4
 1329 0110 AA80     		strh	r2, [r5, #4]	@ movhi
1497:/opt/XMClib/XMC_Peripheral_Library_v2.1.16/XMCLib/src/xmc_usbd.c ****   }
 1330              		.loc 1 1497 0
 1331 0112 40EA0803 		orr	r3, r0, r8
 1332 0116 63F30F0A 		bfi	r10, r3, #0, #16
 1333              	.LVL117:
1496:/opt/XMClib/XMC_Peripheral_Library_v2.1.16/XMCLib/src/xmc_usbd.c **** 		daintmsk.ep.in |= (uint16_t)((uint16_t)1U << (uint8_t)ep->address_u.address_st.number); /* enable
 1334              		.loc 1 1496 0
 1335 011a 019B     		ldr	r3, [sp, #4]
 1336              	.LBE93:
1499:/opt/XMClib/XMC_Peripheral_Library_v2.1.16/XMCLib/src/xmc_usbd.c ****   {
 1337              		.loc 1 1499 0
 1338 011c BBF1000F 		cmp	fp, #0
 1339              	.LBB100:
1496:/opt/XMClib/XMC_Peripheral_Library_v2.1.16/XMCLib/src/xmc_usbd.c **** 		daintmsk.ep.in |= (uint16_t)((uint16_t)1U << (uint8_t)ep->address_u.address_st.number); /* enable
 1340              		.loc 1 1496 0
 1341 0120 C3F800C0 		str	ip, [r3]
 1342              	.LBE100:
1499:/opt/XMClib/XMC_Peripheral_Library_v2.1.16/XMCLib/src/xmc_usbd.c ****   {
 1343              		.loc 1 1499 0
 1344 0124 6ADA     		bge	.L118
1499:/opt/XMClib/XMC_Peripheral_Library_v2.1.16/XMCLib/src/xmc_usbd.c ****   {
 1345              		.loc 1 1499 0 is_stmt 0 discriminator 1
 1346 0126 002F     		cmp	r7, #0
 1347 0128 43D1     		bne	.L120
 1348              	.LBB101:
1503:/opt/XMClib/XMC_Peripheral_Library_v2.1.16/XMCLib/src/xmc_usbd.c **** 		/*enable endpoint */
 1349              		.loc 1 1503 0 is_stmt 1
 1350 012a 04EB8101 		add	r1, r4, r1, lsl #2
 1351 012e D1F8C421 		ldr	r2, [r1, #452]
 1352 0132 1368     		ldr	r3, [r2]
 1353              	.LVL118:
1505:/opt/XMClib/XMC_Peripheral_Library_v2.1.16/XMCLib/src/xmc_usbd.c **** 		/* set ep type */
 1354              		.loc 1 1505 0
 1355 0134 43F40043 		orr	r3, r3, #32768
 1356              	.LVL119:
1507:/opt/XMClib/XMC_Peripheral_Library_v2.1.16/XMCLib/src/xmc_usbd.c ****     /* set mps */
 1357              		.loc 1 1507 0
 1358 0138 67F39343 		bfi	r3, r7, #18, #2
 1359              	.LVL120:
 1360 013c 69E0     		b	.L129
 1361              	.LVL121:
 1362              	.L101:
 1363              	.LBE101:
1447:/opt/XMClib/XMC_Peripheral_Library_v2.1.16/XMCLib/src/xmc_usbd.c ****   }
 1364              		.loc 1 1447 0
 1365 013e DCF80810 		ldr	r1, [ip, #8]
1453:/opt/XMClib/XMC_Peripheral_Library_v2.1.16/XMCLib/src/xmc_usbd.c ****   ep->outBufferSize = XMC_USBD_EP_OUT_BUFFERSIZE[ep->address_u.address_st.number];
 1366              		.loc 1 1453 0
 1367 0142 DFF824E1 		ldr	lr, .L138+8
1447:/opt/XMClib/XMC_Peripheral_Library_v2.1.16/XMCLib/src/xmc_usbd.c ****   }
 1368              		.loc 1 1447 0
 1369 0146 4020     		movs	r0, #64
 1370 0148 60F31201 		bfi	r1, r0, #0, #19
 1371 014c CCF80810 		str	r1, [ip, #8]
1450:/opt/XMClib/XMC_Peripheral_Library_v2.1.16/XMCLib/src/xmc_usbd.c ****   ep->outBuffer = XMC_USBD_EP_OUT_BUFFER[ep->address_u.address_st.number];
 1372              		.loc 1 1450 0
 1373 0150 A15C     		ldrb	r1, [r4, r2]	@ zero_extendqisi2
 1374 0152 444A     		ldr	r2, .L138+4
 1375 0154 01F00F01 		and	r1, r1, #15
1454:/opt/XMClib/XMC_Peripheral_Library_v2.1.16/XMCLib/src/xmc_usbd.c ****   /* is in */
 1376              		.loc 1 1454 0
 1377 0158 0EEB8103 		add	r3, lr, r1, lsl #2
 1378 015c 0802     		lsls	r0, r1, #8
 1379 015e DB69     		ldr	r3, [r3, #28]
 1380 0160 0193     		str	r3, [sp, #4]
1453:/opt/XMClib/XMC_Peripheral_Library_v2.1.16/XMCLib/src/xmc_usbd.c ****   ep->outBufferSize = XMC_USBD_EP_OUT_BUFFERSIZE[ep->address_u.address_st.number];
 1381              		.loc 1 1453 0
 1382 0162 5EF82130 		ldr	r3, [lr, r1, lsl #2]
 1383 0166 CCF82030 		str	r3, [ip, #32]
1451:/opt/XMClib/XMC_Peripheral_Library_v2.1.16/XMCLib/src/xmc_usbd.c ****   /* buffer size*/
 1384              		.loc 1 1451 0
 1385 016a 02F5E06E 		add	lr, r2, #1792
1454:/opt/XMClib/XMC_Peripheral_Library_v2.1.16/XMCLib/src/xmc_usbd.c ****   /* is in */
 1386              		.loc 1 1454 0
 1387 016e 019B     		ldr	r3, [sp, #4]
 1388 0170 CCF81430 		str	r3, [ip, #20]
1450:/opt/XMClib/XMC_Peripheral_Library_v2.1.16/XMCLib/src/xmc_usbd.c ****   ep->outBuffer = XMC_USBD_EP_OUT_BUFFER[ep->address_u.address_st.number];
 1389              		.loc 1 1450 0
 1390 0174 1318     		adds	r3, r2, r0
1451:/opt/XMClib/XMC_Peripheral_Library_v2.1.16/XMCLib/src/xmc_usbd.c ****   /* buffer size*/
 1391              		.loc 1 1451 0
 1392 0176 0EEB0002 		add	r2, lr, r0
 1393 017a 0120     		movs	r0, #1
 1394 017c 8840     		lsls	r0, r0, r1
1450:/opt/XMClib/XMC_Peripheral_Library_v2.1.16/XMCLib/src/xmc_usbd.c ****   ep->outBuffer = XMC_USBD_EP_OUT_BUFFER[ep->address_u.address_st.number];
 1395              		.loc 1 1450 0
 1396 017e CCF81C30 		str	r3, [ip, #28]
1451:/opt/XMClib/XMC_Peripheral_Library_v2.1.16/XMCLib/src/xmc_usbd.c ****   /* buffer size*/
 1397              		.loc 1 1451 0
 1398 0182 CCF80C20 		str	r2, [ip, #12]
 1399 0186 80B2     		uxth	r0, r0
 1400              	.L103:
1456:/opt/XMClib/XMC_Peripheral_Library_v2.1.16/XMCLib/src/xmc_usbd.c ****   {
 1401              		.loc 1 1456 0 discriminator 1
 1402 0188 DFB1     		cbz	r7, .L104
 1403              	.LBB102:
1503:/opt/XMClib/XMC_Peripheral_Library_v2.1.16/XMCLib/src/xmc_usbd.c **** 		/*enable endpoint */
 1404              		.loc 1 1503 0
 1405 018a 04EB8101 		add	r1, r4, r1, lsl #2
 1406 018e D1F8C421 		ldr	r2, [r1, #452]
 1407 0192 1368     		ldr	r3, [r2]
 1408              	.LVL122:
1505:/opt/XMClib/XMC_Peripheral_Library_v2.1.16/XMCLib/src/xmc_usbd.c **** 		/* set ep type */
 1409              		.loc 1 1505 0
 1410 0194 43F40043 		orr	r3, r3, #32768
 1411              	.LVL123:
1507:/opt/XMClib/XMC_Peripheral_Library_v2.1.16/XMCLib/src/xmc_usbd.c ****     /* set mps */
 1412              		.loc 1 1507 0
 1413 0198 67F39343 		bfi	r3, r7, #18, #2
 1414              	.LVL124:
 1415              	.L121:
1531:/opt/XMClib/XMC_Peripheral_Library_v2.1.16/XMCLib/src/xmc_usbd.c **** 		}
 1416              		.loc 1 1531 0
 1417 019c 66F30A03 		bfi	r3, r6, #0, #11
 1418              	.L122:
1534:/opt/XMClib/XMC_Peripheral_Library_v2.1.16/XMCLib/src/xmc_usbd.c **** 		/* clear stall */
 1419              		.loc 1 1534 0
 1420 01a0 43F08053 		orr	r3, r3, #268435456
 1421              	.LVL125:
1536:/opt/XMClib/XMC_Peripheral_Library_v2.1.16/XMCLib/src/xmc_usbd.c **** 		xmc_device.endpoint_out_register[ep->address_u.address_st.number]->doepctl = data.d32; /* configu
 1422              		.loc 1 1536 0
 1423 01a4 6FF35553 		bfc	r3, #21, #1
 1424              	.LVL126:
1538:/opt/XMClib/XMC_Peripheral_Library_v2.1.16/XMCLib/src/xmc_usbd.c ****   }
 1425              		.loc 1 1538 0
 1426 01a8 40EA1840 		orr	r0, r0, r8, lsr #16
1537:/opt/XMClib/XMC_Peripheral_Library_v2.1.16/XMCLib/src/xmc_usbd.c **** 		daintmsk.ep.out |=(uint16_t) ((uint16_t)1U << (uint8_t)ep->address_u.address_st.number); /* enabl
 1427              		.loc 1 1537 0
 1428 01ac 1360     		str	r3, [r2]
1538:/opt/XMClib/XMC_Peripheral_Library_v2.1.16/XMCLib/src/xmc_usbd.c ****   }
 1429              		.loc 1 1538 0
 1430 01ae 60F31F4A 		bfi	r10, r0, #16, #16
 1431              	.L120:
 1432              	.LBE102:
1540:/opt/XMClib/XMC_Peripheral_Library_v2.1.16/XMCLib/src/xmc_usbd.c ****   return XMC_USBD_STATUS_OK;
 1433              		.loc 1 1540 0
 1434 01b2 D4F8A431 		ldr	r3, [r4, #420]
 1435              	.LVL127:
1542:/opt/XMClib/XMC_Peripheral_Library_v2.1.16/XMCLib/src/xmc_usbd.c **** 
 1436              		.loc 1 1542 0
 1437 01b6 0020     		movs	r0, #0
1540:/opt/XMClib/XMC_Peripheral_Library_v2.1.16/XMCLib/src/xmc_usbd.c ****   return XMC_USBD_STATUS_OK;
 1438              		.loc 1 1540 0
 1439 01b8 C3F81CA0 		str	r10, [r3, #28]
1542:/opt/XMClib/XMC_Peripheral_Library_v2.1.16/XMCLib/src/xmc_usbd.c **** 
 1440              		.loc 1 1542 0
 1441 01bc 03B0     		add	sp, sp, #12
 1442              	.LCFI16:
 1443              		.cfi_remember_state
 1444              		.cfi_def_cfa_offset 36
 1445              		@ sp needed
 1446 01be BDE8F08F 		pop	{r4, r5, r6, r7, r8, r9, r10, fp, pc}
 1447              	.LVL128:
 1448              	.L104:
 1449              	.LCFI17:
 1450              		.cfi_restore_state
 1451              	.LBB103:
1459:/opt/XMClib/XMC_Peripheral_Library_v2.1.16/XMCLib/src/xmc_usbd.c **** 		/*enable endpoint */
 1452              		.loc 1 1459 0
 1453 01c2 01F16A03 		add	r3, r1, #106
 1454 01c6 54F82330 		ldr	r3, [r4, r3, lsl #2]
 1455 01ca 0193     		str	r3, [sp, #4]
 1456 01cc D3F800C0 		ldr	ip, [r3]
 1457              	.LVL129:
1461:/opt/XMClib/XMC_Peripheral_Library_v2.1.16/XMCLib/src/xmc_usbd.c **** 		/* set ep type */
 1458              		.loc 1 1461 0
 1459 01d0 4CF4004C 		orr	ip, ip, #32768
 1460              	.LVL130:
1463:/opt/XMClib/XMC_Peripheral_Library_v2.1.16/XMCLib/src/xmc_usbd.c **** 		/* set mps */
 1461              		.loc 1 1463 0
 1462 01d4 67F3934C 		bfi	ip, r7, #18, #2
 1463              	.LVL131:
 1464              	.L128:
1467:/opt/XMClib/XMC_Peripheral_Library_v2.1.16/XMCLib/src/xmc_usbd.c **** 			{
 1465              		.loc 1 1467 0
 1466 01d8 102E     		cmp	r6, #16
 1467 01da 39D0     		beq	.L108
 1468 01dc 23D9     		bls	.L136
 1469 01de 202E     		cmp	r6, #32
 1470 01e0 3AD0     		beq	.L111
 1471 01e2 402E     		cmp	r6, #64
 1472 01e4 7FF476AF 		bne	.L107
1470:/opt/XMClib/XMC_Peripheral_Library_v2.1.16/XMCLib/src/xmc_usbd.c **** 				break;
 1473              		.loc 1 1470 0
 1474 01e8 6FF30A0C 		bfc	ip, #0, #11
1471:/opt/XMClib/XMC_Peripheral_Library_v2.1.16/XMCLib/src/xmc_usbd.c **** 				case (32U):
 1475              		.loc 1 1471 0
 1476 01ec 72E7     		b	.L107
 1477              	.LVL132:
 1478              	.L135:
 1479 01ee 03F00F03 		and	r3, r3, #15
 1480              	.LVL133:
 1481              	.L116:
 1482              	.LBB99:
 1483              	.LBB97:
 370:/opt/XMClib/XMC_Peripheral_Library_v2.1.16/XMCLib/src/xmc_usbd.c ****     result=i;
 1484              		.loc 1 370 0
 1485 01f2 49EA0202 		orr	r2, r9, r2
 1486              	.LVL134:
 1487 01f6 A4F8FC21 		strh	r2, [r4, #508]	@ movhi
 1488              	.LVL135:
 1489 01fa 81E7     		b	.L117
 1490              	.LVL136:
 1491              	.L118:
 1492              	.LBE97:
 1493              	.LBE99:
 1494              	.LBE103:
 1495              	.LBB104:
1503:/opt/XMClib/XMC_Peripheral_Library_v2.1.16/XMCLib/src/xmc_usbd.c **** 		/*enable endpoint */
 1496              		.loc 1 1503 0
 1497 01fc 04EB8101 		add	r1, r4, r1, lsl #2
 1498 0200 D1F8C421 		ldr	r2, [r1, #452]
 1499 0204 1368     		ldr	r3, [r2]
 1500              	.LVL137:
1505:/opt/XMClib/XMC_Peripheral_Library_v2.1.16/XMCLib/src/xmc_usbd.c **** 		/* set ep type */
 1501              		.loc 1 1505 0
 1502 0206 43F40043 		orr	r3, r3, #32768
 1503              	.LVL138:
1507:/opt/XMClib/XMC_Peripheral_Library_v2.1.16/XMCLib/src/xmc_usbd.c ****     /* set mps */
 1504              		.loc 1 1507 0
 1505 020a 67F39343 		bfi	r3, r7, #18, #2
 1506              	.LVL139:
1509:/opt/XMClib/XMC_Peripheral_Library_v2.1.16/XMCLib/src/xmc_usbd.c **** 		{
 1507              		.loc 1 1509 0
 1508 020e 002F     		cmp	r7, #0
 1509 0210 C4D1     		bne	.L121
 1510              	.L129:
1511:/opt/XMClib/XMC_Peripheral_Library_v2.1.16/XMCLib/src/xmc_usbd.c **** 			{
 1511              		.loc 1 1511 0
 1512 0212 102E     		cmp	r6, #16
 1513 0214 18D0     		beq	.L123
 1514 0216 11D9     		bls	.L137
 1515 0218 202E     		cmp	r6, #32
 1516 021a 0BD0     		beq	.L126
 1517 021c 402E     		cmp	r6, #64
 1518 021e BFD1     		bne	.L122
1514:/opt/XMClib/XMC_Peripheral_Library_v2.1.16/XMCLib/src/xmc_usbd.c **** 					break;
 1519              		.loc 1 1514 0
 1520 0220 6FF30A03 		bfc	r3, #0, #11
1515:/opt/XMClib/XMC_Peripheral_Library_v2.1.16/XMCLib/src/xmc_usbd.c **** 				case (32U):
 1521              		.loc 1 1515 0
 1522 0224 BCE7     		b	.L122
 1523              	.LVL140:
 1524              	.L136:
 1525              	.LBE104:
 1526              	.LBB105:
1467:/opt/XMClib/XMC_Peripheral_Library_v2.1.16/XMCLib/src/xmc_usbd.c **** 			{
 1527              		.loc 1 1467 0
 1528 0226 082E     		cmp	r6, #8
 1529 0228 7FF454AF 		bne	.L107
1479:/opt/XMClib/XMC_Peripheral_Library_v2.1.16/XMCLib/src/xmc_usbd.c **** 				break;
 1530              		.loc 1 1479 0
 1531 022c 0323     		movs	r3, #3
 1532 022e 63F30A0C 		bfi	ip, r3, #0, #11
1480:/opt/XMClib/XMC_Peripheral_Library_v2.1.16/XMCLib/src/xmc_usbd.c **** 				default:
 1533              		.loc 1 1480 0
 1534 0232 4FE7     		b	.L107
 1535              	.LVL141:
 1536              	.L126:
 1537              	.LBE105:
 1538              	.LBB106:
1517:/opt/XMClib/XMC_Peripheral_Library_v2.1.16/XMCLib/src/xmc_usbd.c **** 					break;
 1539              		.loc 1 1517 0
 1540 0234 0121     		movs	r1, #1
 1541 0236 61F30A03 		bfi	r3, r1, #0, #11
1518:/opt/XMClib/XMC_Peripheral_Library_v2.1.16/XMCLib/src/xmc_usbd.c **** 				case (16U):
 1542              		.loc 1 1518 0
 1543 023a B1E7     		b	.L122
 1544              	.L137:
1511:/opt/XMClib/XMC_Peripheral_Library_v2.1.16/XMCLib/src/xmc_usbd.c **** 			{
 1545              		.loc 1 1511 0
 1546 023c 082E     		cmp	r6, #8
 1547 023e AFD1     		bne	.L122
1523:/opt/XMClib/XMC_Peripheral_Library_v2.1.16/XMCLib/src/xmc_usbd.c **** 					break;
 1548              		.loc 1 1523 0
 1549 0240 0321     		movs	r1, #3
 1550 0242 61F30A03 		bfi	r3, r1, #0, #11
1524:/opt/XMClib/XMC_Peripheral_Library_v2.1.16/XMCLib/src/xmc_usbd.c **** 				default:
 1551              		.loc 1 1524 0
 1552 0246 ABE7     		b	.L122
 1553              	.L123:
1520:/opt/XMClib/XMC_Peripheral_Library_v2.1.16/XMCLib/src/xmc_usbd.c **** 					break;
 1554              		.loc 1 1520 0
 1555 0248 0221     		movs	r1, #2
 1556 024a 61F30A03 		bfi	r3, r1, #0, #11
1521:/opt/XMClib/XMC_Peripheral_Library_v2.1.16/XMCLib/src/xmc_usbd.c **** 				case (8U):
 1557              		.loc 1 1521 0
 1558 024e A7E7     		b	.L122
 1559              	.LVL142:
 1560              	.L108:
 1561              	.LBE106:
 1562              	.LBB107:
1476:/opt/XMClib/XMC_Peripheral_Library_v2.1.16/XMCLib/src/xmc_usbd.c **** 				break;
 1563              		.loc 1 1476 0
 1564 0250 0223     		movs	r3, #2
 1565 0252 63F30A0C 		bfi	ip, r3, #0, #11
1477:/opt/XMClib/XMC_Peripheral_Library_v2.1.16/XMCLib/src/xmc_usbd.c **** 				case (8U):
 1566              		.loc 1 1477 0
 1567 0256 3DE7     		b	.L107
 1568              	.L111:
1473:/opt/XMClib/XMC_Peripheral_Library_v2.1.16/XMCLib/src/xmc_usbd.c **** 				break;
 1569              		.loc 1 1473 0
 1570 0258 0123     		movs	r3, #1
 1571 025a 63F30A0C 		bfi	ip, r3, #0, #11
1474:/opt/XMClib/XMC_Peripheral_Library_v2.1.16/XMCLib/src/xmc_usbd.c **** 				case (16U):
 1572              		.loc 1 1474 0
 1573 025e 39E7     		b	.L107
 1574              	.L139:
 1575              		.align	2
 1576              	.L138:
 1577 0260 00000000 		.word	xmc_device
 1578 0264 00000000 		.word	.LANCHOR0
 1579 0268 00000000 		.word	.LANCHOR1
 1580              	.LBE107:
 1581              		.cfi_endproc
 1582              	.LFE198:
 1584              		.section	.text.XMC_USBD_Init,"ax",%progbits
 1585              		.align	1
 1586              		.p2align 2,,3
 1587              		.global	XMC_USBD_Init
 1588              		.syntax unified
 1589              		.thumb
 1590              		.thumb_func
 1591              		.fpu fpv4-sp-d16
 1593              	XMC_USBD_Init:
 1594              	.LFB187:
1084:/opt/XMClib/XMC_Peripheral_Library_v2.1.16/XMCLib/src/xmc_usbd.c ****   uint8_t *XMC_USBD_BASE_ADDRESS;
 1595              		.loc 1 1084 0
 1596              		.cfi_startproc
 1597              		@ args = 0, pretend = 0, frame = 8
 1598              		@ frame_needed = 0, uses_anonymous_args = 0
 1599              	.LVL143:
 1600 0000 30B5     		push	{r4, r5, lr}
 1601              	.LCFI18:
 1602              		.cfi_def_cfa_offset 12
 1603              		.cfi_offset 4, -12
 1604              		.cfi_offset 5, -8
 1605              		.cfi_offset 14, -4
 1606 0002 0446     		mov	r4, r0
 1607 0004 83B0     		sub	sp, sp, #12
 1608              	.LCFI19:
 1609              		.cfi_def_cfa_offset 24
 1610              	.LBB108:
 1611              	.LBB109:
 947:/opt/XMClib/XMC_Peripheral_Library_v2.1.16/XMCLib/src/xmc_usbd.c ****   XMC_SCU_POWER_EnableUsb();
 1612              		.loc 1 947 0
 1613 0006 4C48     		ldr	r0, .L157
 1614              	.LVL144:
 1615 0008 FFF7FEFF 		bl	XMC_SCU_RESET_DeassertPeripheralReset
 1616              	.LVL145:
 948:/opt/XMClib/XMC_Peripheral_Library_v2.1.16/XMCLib/src/xmc_usbd.c **** }
 1617              		.loc 1 948 0
 1618 000c FFF7FEFF 		bl	XMC_SCU_POWER_EnableUsb
 1619              	.LVL146:
 1620              	.LBE109:
 1621              	.LBE108:
1098:/opt/XMClib/XMC_Peripheral_Library_v2.1.16/XMCLib/src/xmc_usbd.c **** 
 1622              		.loc 1 1098 0
 1623 0010 4A4A     		ldr	r2, .L157+4
 1624 0012 4B4B     		ldr	r3, .L157+8
 1625 0014 1460     		str	r4, [r2]
 1626              	.LVL147:
 1627 0016 A3F11C01 		sub	r1, r3, #28
 1628 001a 03F11C00 		add	r0, r3, #28
1103:/opt/XMClib/XMC_Peripheral_Library_v2.1.16/XMCLib/src/xmc_usbd.c **** 	  XMC_USBD_EP_IN_BUFFERSIZE[i] 	= XMC_USBD_EP0_BUFFER_SIZE;
 1629              		.loc 1 1103 0
 1630 001e 4022     		movs	r2, #64
 1631              	.LVL148:
 1632              	.L141:
1103:/opt/XMClib/XMC_Peripheral_Library_v2.1.16/XMCLib/src/xmc_usbd.c **** 	  XMC_USBD_EP_IN_BUFFERSIZE[i] 	= XMC_USBD_EP0_BUFFER_SIZE;
 1633              		.loc 1 1103 0 is_stmt 0 discriminator 3
 1634 0020 43F8042F 		str	r2, [r3, #4]!
1101:/opt/XMClib/XMC_Peripheral_Library_v2.1.16/XMCLib/src/xmc_usbd.c ****   {
 1635              		.loc 1 1101 0 is_stmt 1 discriminator 3
 1636 0024 8342     		cmp	r3, r0
1104:/opt/XMClib/XMC_Peripheral_Library_v2.1.16/XMCLib/src/xmc_usbd.c ****   }
 1637              		.loc 1 1104 0 discriminator 3
 1638 0026 41F8042F 		str	r2, [r1, #4]!
1101:/opt/XMClib/XMC_Peripheral_Library_v2.1.16/XMCLib/src/xmc_usbd.c ****   {
 1639              		.loc 1 1101 0 discriminator 3
 1640 002a F9D1     		bne	.L141
1108:/opt/XMClib/XMC_Peripheral_Library_v2.1.16/XMCLib/src/xmc_usbd.c **** 
 1641              		.loc 1 1108 0
 1642 002c 454D     		ldr	r5, .L157+12
 1643 002e 4FF40272 		mov	r2, #520
 1644 0032 2846     		mov	r0, r5
 1645 0034 0021     		movs	r1, #0
 1646 0036 FFF7FEFF 		bl	memset
 1647              	.LVL149:
1111:/opt/XMClib/XMC_Peripheral_Library_v2.1.16/XMCLib/src/xmc_usbd.c ****   xmc_device.EndpointEvent_cb = obj->cb_endpoint_event;
 1648              		.loc 1 1111 0
 1649 003a D4E90032 		ldrd	r3, r2, [r4]
1112:/opt/XMClib/XMC_Peripheral_Library_v2.1.16/XMCLib/src/xmc_usbd.c ****   XMC_USBD_BASE_ADDRESS = (uint8_t *)(obj->usbd);
 1650              		.loc 1 1112 0
 1651 003e A168     		ldr	r1, [r4, #8]
1111:/opt/XMClib/XMC_Peripheral_Library_v2.1.16/XMCLib/src/xmc_usbd.c ****   xmc_device.EndpointEvent_cb = obj->cb_endpoint_event;
 1652              		.loc 1 1111 0
 1653 0040 C5F80022 		str	r2, [r5, #512]
1116:/opt/XMClib/XMC_Peripheral_Library_v2.1.16/XMCLib/src/xmc_usbd.c ****   for (i = 0U;i < (uint32_t)XMC_USBD_NUM_EPS;i++)
 1654              		.loc 1 1116 0
 1655 0044 03F50062 		add	r2, r3, #2048
1112:/opt/XMClib/XMC_Peripheral_Library_v2.1.16/XMCLib/src/xmc_usbd.c ****   XMC_USBD_BASE_ADDRESS = (uint8_t *)(obj->usbd);
 1656              		.loc 1 1112 0
 1657 0048 C5F80412 		str	r1, [r5, #516]
1116:/opt/XMClib/XMC_Peripheral_Library_v2.1.16/XMCLib/src/xmc_usbd.c ****   for (i = 0U;i < (uint32_t)XMC_USBD_NUM_EPS;i++)
 1658              		.loc 1 1116 0
 1659 004c C5F8A421 		str	r2, [r5, #420]
 1660              	.LVL150:
1115:/opt/XMClib/XMC_Peripheral_Library_v2.1.16/XMCLib/src/xmc_usbd.c ****   xmc_device.device_register = ((dwc_otg_device_global_regs_t*)(XMC_USBD_BASE_ADDRESS + DWC_DEV_GLO
 1661              		.loc 1 1115 0
 1662 0050 C5F8A031 		str	r3, [r5, #416]
 1663 0054 05F5D472 		add	r2, r5, #424
 1664 0058 03F51061 		add	r1, r3, #2304
 1665 005c 05F5E275 		add	r5, r5, #452
 1666              	.LVL151:
 1667              	.L142:
1119:/opt/XMClib/XMC_Peripheral_Library_v2.1.16/XMCLib/src/xmc_usbd.c ****     ((uint32_t)DWC_EP_REG_OFFSET*i));
 1668              		.loc 1 1119 0 discriminator 3
 1669 0060 42F8041B 		str	r1, [r2], #4
1117:/opt/XMClib/XMC_Peripheral_Library_v2.1.16/XMCLib/src/xmc_usbd.c ****   {
 1670              		.loc 1 1117 0 discriminator 3
 1671 0064 AA42     		cmp	r2, r5
 1672 0066 01F12001 		add	r1, r1, #32
 1673 006a F9D1     		bne	.L142
 1674 006c 364A     		ldr	r2, .L157+16
 1675 006e 03F53061 		add	r1, r3, #2816
 1676 0072 02F11C00 		add	r0, r2, #28
 1677              	.L143:
1124:/opt/XMClib/XMC_Peripheral_Library_v2.1.16/XMCLib/src/xmc_usbd.c ****     									  DWC_DEV_OUT_EP_REG_OFFSET +
 1678              		.loc 1 1124 0 discriminator 3
 1679 0076 42F8041B 		str	r1, [r2], #4
1122:/opt/XMClib/XMC_Peripheral_Library_v2.1.16/XMCLib/src/xmc_usbd.c ****   {
 1680              		.loc 1 1122 0 discriminator 3
 1681 007a 8242     		cmp	r2, r0
 1682 007c 01F12001 		add	r1, r1, #32
 1683 0080 F9D1     		bne	.L143
 1684 0082 324A     		ldr	r2, .L157+20
 1685 0084 03F58051 		add	r1, r3, #4096
 1686 0088 02F11C00 		add	r0, r2, #28
 1687              	.L144:
1130:/opt/XMClib/XMC_Peripheral_Library_v2.1.16/XMCLib/src/xmc_usbd.c ****     						XMC_USBD_TX_FIFO_REG_OFFSET +
 1688              		.loc 1 1130 0 discriminator 3
 1689 008c 42F8041B 		str	r1, [r2], #4
1128:/opt/XMClib/XMC_Peripheral_Library_v2.1.16/XMCLib/src/xmc_usbd.c ****   {
 1690              		.loc 1 1128 0 discriminator 3
 1691 0090 8242     		cmp	r2, r0
 1692 0092 01F58051 		add	r1, r1, #4096
 1693 0096 F9D1     		bne	.L144
1137:/opt/XMClib/XMC_Peripheral_Library_v2.1.16/XMCLib/src/xmc_usbd.c ****   gahbcfg.b.glblintrmsk = 1U; /* enable interrupts ( global mask ) */
 1694              		.loc 1 1137 0
 1695 0098 9A68     		ldr	r2, [r3, #8]
 1696              	.LVL152:
1140:/opt/XMClib/XMC_Peripheral_Library_v2.1.16/XMCLib/src/xmc_usbd.c ****   {
 1697              		.loc 1 1140 0
 1698 009a 617B     		ldrb	r1, [r4, #13]	@ zero_extendqisi2
1139:/opt/XMClib/XMC_Peripheral_Library_v2.1.16/XMCLib/src/xmc_usbd.c ****   if(obj->usbd_transfer_mode == XMC_USBD_USE_DMA)
 1699              		.loc 1 1139 0
 1700 009c 42F08102 		orr	r2, r2, #129
 1701              	.LVL153:
1140:/opt/XMClib/XMC_Peripheral_Library_v2.1.16/XMCLib/src/xmc_usbd.c ****   {
 1702              		.loc 1 1140 0
 1703 00a0 0029     		cmp	r1, #0
 1704 00a2 46D1     		bne	.L145
 1705              	.LVL154:
1143:/opt/XMClib/XMC_Peripheral_Library_v2.1.16/XMCLib/src/xmc_usbd.c ****   }
 1706              		.loc 1 1143 0
 1707 00a4 42F02002 		orr	r2, r2, #32
 1708              	.LVL155:
 1709              	.L146:
1149:/opt/XMClib/XMC_Peripheral_Library_v2.1.16/XMCLib/src/xmc_usbd.c ****   /* configure usb details */  
 1710              		.loc 1 1149 0
 1711 00a8 9A60     		str	r2, [r3, #8]
1151:/opt/XMClib/XMC_Peripheral_Library_v2.1.16/XMCLib/src/xmc_usbd.c ****   gusbcfg.b.force_dev_mode = 1U; /* force us into device mode */
 1712              		.loc 1 1151 0
 1713 00aa DA68     		ldr	r2, [r3, #12]
 1714              	.LVL156:
1153:/opt/XMClib/XMC_Peripheral_Library_v2.1.16/XMCLib/src/xmc_usbd.c ****   xmc_device.global_register->gusbcfg = gusbcfg.d32;
 1715              		.loc 1 1153 0
 1716 00ac 42F08042 		orr	r2, r2, #1073741824
 1717              	.LVL157:
 1718 00b0 42F48072 		orr	r2, r2, #256
 1719              	.LVL158:
1154:/opt/XMClib/XMC_Peripheral_Library_v2.1.16/XMCLib/src/xmc_usbd.c **** 
 1720              		.loc 1 1154 0
 1721 00b4 DA60     		str	r2, [r3, #12]
1158:/opt/XMClib/XMC_Peripheral_Library_v2.1.16/XMCLib/src/xmc_usbd.c ****   dcfg.b.devspd = XMC_USBD_DCFG_DEVSPD_FS;
 1722              		.loc 1 1158 0
 1723 00b6 D3F80028 		ldr	r2, [r3, #2048]
 1724              	.LVL159:
1159:/opt/XMClib/XMC_Peripheral_Library_v2.1.16/XMCLib/src/xmc_usbd.c ****   dcfg.b.descdma = 0U;
 1725              		.loc 1 1159 0
 1726 00ba 42F00302 		orr	r2, r2, #3
 1727              	.LVL160:
1160:/opt/XMClib/XMC_Peripheral_Library_v2.1.16/XMCLib/src/xmc_usbd.c ****   xmc_device.device_register->dcfg = dcfg.d32;
 1728              		.loc 1 1160 0
 1729 00be 6FF3D752 		bfc	r2, #23, #1
 1730              	.LVL161:
1161:/opt/XMClib/XMC_Peripheral_Library_v2.1.16/XMCLib/src/xmc_usbd.c ****   /* configure device functions */  
 1731              		.loc 1 1161 0
 1732 00c2 C3F80028 		str	r2, [r3, #2048]
1163:/opt/XMClib/XMC_Peripheral_Library_v2.1.16/XMCLib/src/xmc_usbd.c ****   dctl.b.sftdiscon = 1U; /* disconnect the device until its connected by the user */
 1733              		.loc 1 1163 0
 1734 00c6 D3F80428 		ldr	r2, [r3, #2052]
 1735              	.LVL162:
 1736              	.LBB110:
 1737              	.LBB111:
 306:/opt/XMClib/XMC_Peripheral_Library_v2.1.16/XMCLib/src/xmc_usbd.c ****   /*flush fifo */
 1738              		.loc 1 306 0
 1739 00ca 0020     		movs	r0, #0
 1740              	.LBE111:
 1741              	.LBE110:
1164:/opt/XMClib/XMC_Peripheral_Library_v2.1.16/XMCLib/src/xmc_usbd.c ****   /* all other config is done by default register value */
 1742              		.loc 1 1164 0
 1743 00cc 42F00202 		orr	r2, r2, #2
 1744              	.LVL163:
1166:/opt/XMClib/XMC_Peripheral_Library_v2.1.16/XMCLib/src/xmc_usbd.c ****   /* flush the fifos for proper operation */
 1745              		.loc 1 1166 0
 1746 00d0 C3F80428 		str	r2, [r3, #2052]
 1747              	.LVL164:
 1748              	.LBB113:
 1749              	.LBB112:
 306:/opt/XMClib/XMC_Peripheral_Library_v2.1.16/XMCLib/src/xmc_usbd.c ****   /*flush fifo */
 1750              		.loc 1 306 0
 1751 00d4 0190     		str	r0, [sp, #4]
 308:/opt/XMClib/XMC_Peripheral_Library_v2.1.16/XMCLib/src/xmc_usbd.c ****   data.b.txfnum = fifo_num;
 1752              		.loc 1 308 0
 1753 00d6 019A     		ldr	r2, [sp, #4]
 1754              	.LVL165:
 1755 00d8 42F02002 		orr	r2, r2, #32
 1756 00dc 0192     		str	r2, [sp, #4]
 309:/opt/XMClib/XMC_Peripheral_Library_v2.1.16/XMCLib/src/xmc_usbd.c ****   xmc_device.global_register->grstctl = data.d32;
 1757              		.loc 1 309 0
 1758 00de 019A     		ldr	r2, [sp, #4]
 1759 00e0 1020     		movs	r0, #16
 1760 00e2 60F38A12 		bfi	r2, r0, #6, #5
 1761 00e6 0192     		str	r2, [sp, #4]
 310:/opt/XMClib/XMC_Peripheral_Library_v2.1.16/XMCLib/src/xmc_usbd.c ****   for (count = 0U;count < 1000U; count++){}
 1762              		.loc 1 310 0
 1763 00e8 019A     		ldr	r2, [sp, #4]
 1764 00ea 1A61     		str	r2, [r3, #16]
 1765              	.LVL166:
 1766              	.L147:
 314:/opt/XMClib/XMC_Peripheral_Library_v2.1.16/XMCLib/src/xmc_usbd.c ****   } while (data.b.txfflsh);
 1767              		.loc 1 314 0
 1768 00ec 1A69     		ldr	r2, [r3, #16]
 1769 00ee 0192     		str	r2, [sp, #4]
 315:/opt/XMClib/XMC_Peripheral_Library_v2.1.16/XMCLib/src/xmc_usbd.c ****     count = 0U;
 1770              		.loc 1 315 0
 1771 00f0 019A     		ldr	r2, [sp, #4]
 1772 00f2 C2F34012 		ubfx	r2, r2, #5, #1
 1773 00f6 002A     		cmp	r2, #0
 1774 00f8 F8D1     		bne	.L147
 1775              	.LVL167:
 1776              	.LBE112:
 1777              	.LBE113:
 1778              	.LBB114:
 1779              	.LBB115:
 331:/opt/XMClib/XMC_Peripheral_Library_v2.1.16/XMCLib/src/xmc_usbd.c ****   data.b.rxfflsh = 1U;
 1780              		.loc 1 331 0
 1781 00fa 0092     		str	r2, [sp]
 332:/opt/XMClib/XMC_Peripheral_Library_v2.1.16/XMCLib/src/xmc_usbd.c ****   /* flush FIFO */
 1782              		.loc 1 332 0
 1783 00fc 009A     		ldr	r2, [sp]
 1784 00fe 42F01002 		orr	r2, r2, #16
 1785 0102 0092     		str	r2, [sp]
 334:/opt/XMClib/XMC_Peripheral_Library_v2.1.16/XMCLib/src/xmc_usbd.c ****   do
 1786              		.loc 1 334 0
 1787 0104 009A     		ldr	r2, [sp]
 1788 0106 1A61     		str	r2, [r3, #16]
 1789              	.L148:
 1790              	.LVL168:
 338:/opt/XMClib/XMC_Peripheral_Library_v2.1.16/XMCLib/src/xmc_usbd.c ****   } while (data.b.rxfflsh);
 1791              		.loc 1 338 0
 1792 0108 1A69     		ldr	r2, [r3, #16]
 1793 010a 0092     		str	r2, [sp]
 339:/opt/XMClib/XMC_Peripheral_Library_v2.1.16/XMCLib/src/xmc_usbd.c ****   count = 0U;
 1794              		.loc 1 339 0
 1795 010c 0098     		ldr	r0, [sp]
 1796 010e C0F30010 		ubfx	r0, r0, #4, #1
 1797 0112 0028     		cmp	r0, #0
 1798 0114 F8D1     		bne	.L148
 1799              	.LVL169:
 1800              	.LBE115:
 1801              	.LBE114:
1189:/opt/XMClib/XMC_Peripheral_Library_v2.1.16/XMCLib/src/xmc_usbd.c ****   }
 1802              		.loc 1 1189 0
 1803 0116 0E4C     		ldr	r4, .L157+24
 1804              	.LVL170:
1175:/opt/XMClib/XMC_Peripheral_Library_v2.1.16/XMCLib/src/xmc_usbd.c ****   /* enable common interrupts */
 1805              		.loc 1 1175 0
 1806 0118 0E4A     		ldr	r2, .L157+28
 1807              	.LVL171:
1172:/opt/XMClib/XMC_Peripheral_Library_v2.1.16/XMCLib/src/xmc_usbd.c ****   xmc_device.global_register->gintsts = 0xFFFFFFFFU; /* clear all interrupts */
 1808              		.loc 1 1172 0
 1809 011a 9861     		str	r0, [r3, #24]
 1810              	.LVL172:
1189:/opt/XMClib/XMC_Peripheral_Library_v2.1.16/XMCLib/src/xmc_usbd.c ****   }
 1811              		.loc 1 1189 0
 1812 011c 0129     		cmp	r1, #1
 1813 011e 08BF     		it	eq
 1814 0120 2246     		moveq	r2, r4
 1815              	.LVL173:
1192:/opt/XMClib/XMC_Peripheral_Library_v2.1.16/XMCLib/src/xmc_usbd.c ****   xmc_device.global_register->gintmsk = gintmsk.d32;
 1816              		.loc 1 1192 0
 1817 0122 42F44022 		orr	r2, r2, #786432
 1818              	.LVL174:
1173:/opt/XMClib/XMC_Peripheral_Library_v2.1.16/XMCLib/src/xmc_usbd.c ****  
 1819              		.loc 1 1173 0
 1820 0126 4FF0FF31 		mov	r1, #-1
 1821 012a 5961     		str	r1, [r3, #20]
 1822              	.LVL175:
1193:/opt/XMClib/XMC_Peripheral_Library_v2.1.16/XMCLib/src/xmc_usbd.c ****   return XMC_USBD_STATUS_OK;
 1823              		.loc 1 1193 0
 1824 012c 9A61     		str	r2, [r3, #24]
1195:/opt/XMClib/XMC_Peripheral_Library_v2.1.16/XMCLib/src/xmc_usbd.c **** 
 1825              		.loc 1 1195 0
 1826 012e 03B0     		add	sp, sp, #12
 1827              	.LCFI20:
 1828              		.cfi_remember_state
 1829              		.cfi_def_cfa_offset 12
 1830              		@ sp needed
 1831 0130 30BD     		pop	{r4, r5, pc}
 1832              	.LVL176:
 1833              	.L145:
 1834              	.LCFI21:
 1835              		.cfi_restore_state
1147:/opt/XMClib/XMC_Peripheral_Library_v2.1.16/XMCLib/src/xmc_usbd.c ****   }
 1836              		.loc 1 1147 0
 1837 0132 6FF34512 		bfc	r2, #5, #1
 1838              	.LVL177:
 1839 0136 B7E7     		b	.L146
 1840              	.L158:
 1841              		.align	2
 1842              	.L157:
 1843 0138 80000020 		.word	536871040
 1844 013c 00000000 		.word	usbd_init
 1845 0140 18000000 		.word	.LANCHOR1+24
 1846 0144 00000000 		.word	xmc_device
 1847 0148 C4010000 		.word	xmc_device+452
 1848 014c E0010000 		.word	xmc_device+480
 1849 0150 1E3C00C0 		.word	-1073726434
 1850 0154 0E3C00C0 		.word	-1073726450
 1851              		.cfi_endproc
 1852              	.LFE187:
 1854              		.section	.text.XMC_USBD_EndpointRead,"ax",%progbits
 1855              		.align	1
 1856              		.p2align 2,,3
 1857              		.global	XMC_USBD_EndpointRead
 1858              		.syntax unified
 1859              		.thumb
 1860              		.thumb_func
 1861              		.fpu fpv4-sp-d16
 1863              	XMC_USBD_EndpointRead:
 1864              	.LFB193:
1285:/opt/XMClib/XMC_Peripheral_Library_v2.1.16/XMCLib/src/xmc_usbd.c ****   XMC_USBD_EP_t *ep = &xmc_device.ep[ep_num];
 1865              		.loc 1 1285 0
 1866              		.cfi_startproc
 1867              		@ args = 0, pretend = 0, frame = 0
 1868              		@ frame_needed = 0, uses_anonymous_args = 0
 1869              	.LVL178:
1287:/opt/XMClib/XMC_Peripheral_Library_v2.1.16/XMCLib/src/xmc_usbd.c ****   {
 1870              		.loc 1 1287 0
 1871 0000 0D4B     		ldr	r3, .L164
1285:/opt/XMClib/XMC_Peripheral_Library_v2.1.16/XMCLib/src/xmc_usbd.c ****   XMC_USBD_EP_t *ep = &xmc_device.ep[ep_num];
 1872              		.loc 1 1285 0
 1873 0002 70B5     		push	{r4, r5, r6, lr}
 1874              	.LCFI22:
 1875              		.cfi_def_cfa_offset 16
 1876              		.cfi_offset 4, -16
 1877              		.cfi_offset 5, -12
 1878              		.cfi_offset 6, -8
 1879              		.cfi_offset 14, -4
1287:/opt/XMClib/XMC_Peripheral_Library_v2.1.16/XMCLib/src/xmc_usbd.c ****   {
 1880              		.loc 1 1287 0
 1881 0004 3424     		movs	r4, #52
 1882 0006 04FB0034 		mla	r4, r4, r0, r3
 1883              	.LVL179:
1291:/opt/XMClib/XMC_Peripheral_Library_v2.1.16/XMCLib/src/xmc_usbd.c ****   ep->outBytesAvailable -= length;
 1884              		.loc 1 1291 0
 1885 000a D4E90365 		ldrd	r6, r5, [r4, #12]
 1886 000e A369     		ldr	r3, [r4, #24]
 1887 0010 9542     		cmp	r5, r2
 1888 0012 28BF     		it	cs
 1889 0014 1546     		movcs	r5, r2
 1890              	.LVL180:
 1891 0016 0846     		mov	r0, r1
 1892              	.LVL181:
 1893 0018 2A46     		mov	r2, r5
 1894 001a F118     		adds	r1, r6, r3
 1895              	.LVL182:
 1896 001c FFF7FEFF 		bl	memcpy
 1897              	.LVL183:
1292:/opt/XMClib/XMC_Peripheral_Library_v2.1.16/XMCLib/src/xmc_usbd.c ****   if (ep->outBytesAvailable)
 1898              		.loc 1 1292 0
 1899 0020 2369     		ldr	r3, [r4, #16]
 1900 0022 5B1B     		subs	r3, r3, r5
 1901 0024 2361     		str	r3, [r4, #16]
1293:/opt/XMClib/XMC_Peripheral_Library_v2.1.16/XMCLib/src/xmc_usbd.c ****   {
 1902              		.loc 1 1293 0
 1903 0026 13B9     		cbnz	r3, .L163
1299:/opt/XMClib/XMC_Peripheral_Library_v2.1.16/XMCLib/src/xmc_usbd.c ****   }
 1904              		.loc 1 1299 0
 1905 0028 A361     		str	r3, [r4, #24]
1302:/opt/XMClib/XMC_Peripheral_Library_v2.1.16/XMCLib/src/xmc_usbd.c **** 
 1906              		.loc 1 1302 0
 1907 002a 2846     		mov	r0, r5
 1908 002c 70BD     		pop	{r4, r5, r6, pc}
 1909              	.LVL184:
 1910              	.L163:
1295:/opt/XMClib/XMC_Peripheral_Library_v2.1.16/XMCLib/src/xmc_usbd.c ****   }
 1911              		.loc 1 1295 0
 1912 002e A369     		ldr	r3, [r4, #24]
 1913 0030 2B44     		add	r3, r3, r5
 1914 0032 A361     		str	r3, [r4, #24]
1302:/opt/XMClib/XMC_Peripheral_Library_v2.1.16/XMCLib/src/xmc_usbd.c **** 
 1915              		.loc 1 1302 0
 1916 0034 2846     		mov	r0, r5
 1917 0036 70BD     		pop	{r4, r5, r6, pc}
 1918              	.LVL185:
 1919              	.L165:
 1920              		.align	2
 1921              	.L164:
 1922 0038 00000000 		.word	xmc_device
 1923              		.cfi_endproc
 1924              	.LFE193:
 1926              		.section	.text.XMC_USBD_EndpointWrite,"ax",%progbits
 1927              		.align	1
 1928              		.p2align 2,,3
 1929              		.global	XMC_USBD_EndpointWrite
 1930              		.syntax unified
 1931              		.thumb
 1932              		.thumb_func
 1933              		.fpu fpv4-sp-d16
 1935              	XMC_USBD_EndpointWrite:
 1936              	.LFB194:
1308:/opt/XMClib/XMC_Peripheral_Library_v2.1.16/XMCLib/src/xmc_usbd.c ****   XMC_USBD_EP_t * ep = &xmc_device.ep[ep_num & (uint8_t)XMC_USBD_EP_NUM_MASK];
 1937              		.loc 1 1308 0
 1938              		.cfi_startproc
 1939              		@ args = 0, pretend = 0, frame = 0
 1940              		@ frame_needed = 0, uses_anonymous_args = 0
 1941              	.LVL186:
 1942 0000 F8B5     		push	{r3, r4, r5, r6, r7, lr}
 1943              	.LCFI23:
 1944              		.cfi_def_cfa_offset 24
 1945              		.cfi_offset 3, -24
 1946              		.cfi_offset 4, -20
 1947              		.cfi_offset 5, -16
 1948              		.cfi_offset 6, -12
 1949              		.cfi_offset 7, -8
 1950              		.cfi_offset 14, -4
1311:/opt/XMClib/XMC_Peripheral_Library_v2.1.16/XMCLib/src/xmc_usbd.c ****   {
 1951              		.loc 1 1311 0
 1952 0002 164F     		ldr	r7, .L171
 1953 0004 00F00F06 		and	r6, r0, #15
 1954              	.LVL187:
 1955 0008 3424     		movs	r4, #52
 1956 000a 04FB0674 		mla	r4, r4, r6, r7
 1957 000e 2379     		ldrb	r3, [r4, #4]	@ zero_extendqisi2
 1958 0010 5807     		lsls	r0, r3, #29
 1959              	.LVL188:
 1960 0012 1ED5     		bpl	.L168
1315:/opt/XMClib/XMC_Peripheral_Library_v2.1.16/XMCLib/src/xmc_usbd.c ****   {
 1961              		.loc 1 1315 0
 1962 0014 6368     		ldr	r3, [r4, #4]
 1963 0016 1B07     		lsls	r3, r3, #28
 1964 0018 1DD4     		bmi	.L169
1326:/opt/XMClib/XMC_Peripheral_Library_v2.1.16/XMCLib/src/xmc_usbd.c **** 		ep->xferBuffer = ep->inBuffer;
 1965              		.loc 1 1326 0
 1966 001a D4E90705 		ldrd	r0, r5, [r4, #28]
 1967 001e 9542     		cmp	r5, r2
 1968 0020 28BF     		it	cs
 1969 0022 1546     		movcs	r5, r2
 1970              	.LVL189:
 1971 0024 2A46     		mov	r2, r5
 1972 0026 FFF7FEFF 		bl	memcpy
 1973              	.LVL190:
1332:/opt/XMClib/XMC_Peripheral_Library_v2.1.16/XMCLib/src/xmc_usbd.c ****     /* start the transfer */
 1974              		.loc 1 1332 0
 1975 002a 6368     		ldr	r3, [r4, #4]
1327:/opt/XMClib/XMC_Peripheral_Library_v2.1.16/XMCLib/src/xmc_usbd.c ****     ep->xferTotal = length;
 1976              		.loc 1 1327 0
 1977 002c E269     		ldr	r2, [r4, #28]
1328:/opt/XMClib/XMC_Peripheral_Library_v2.1.16/XMCLib/src/xmc_usbd.c ****     /* set transfer values */
 1978              		.loc 1 1328 0
 1979 002e 2563     		str	r5, [r4, #48]
1309:/opt/XMClib/XMC_Peripheral_Library_v2.1.16/XMCLib/src/xmc_usbd.c ****   int32_t result;
 1980              		.loc 1 1309 0
 1981 0030 06EB4600 		add	r0, r6, r6, lsl #1
1330:/opt/XMClib/XMC_Peripheral_Library_v2.1.16/XMCLib/src/xmc_usbd.c ****     ep->xferCount = 0U;
 1982              		.loc 1 1330 0
 1983 0034 0021     		movs	r1, #0
1332:/opt/XMClib/XMC_Peripheral_Library_v2.1.16/XMCLib/src/xmc_usbd.c ****     /* start the transfer */
 1984              		.loc 1 1332 0
 1985 0036 43F00803 		orr	r3, r3, #8
1309:/opt/XMClib/XMC_Peripheral_Library_v2.1.16/XMCLib/src/xmc_usbd.c ****   int32_t result;
 1986              		.loc 1 1309 0
 1987 003a 06EB8000 		add	r0, r6, r0, lsl #2
1334:/opt/XMClib/XMC_Peripheral_Library_v2.1.16/XMCLib/src/xmc_usbd.c ****     result=(int32_t)ep->xferTotal;
 1988              		.loc 1 1334 0
 1989 003e 07EB8000 		add	r0, r7, r0, lsl #2
1332:/opt/XMClib/XMC_Peripheral_Library_v2.1.16/XMCLib/src/xmc_usbd.c ****     /* start the transfer */
 1990              		.loc 1 1332 0
 1991 0042 6360     		str	r3, [r4, #4]
1330:/opt/XMClib/XMC_Peripheral_Library_v2.1.16/XMCLib/src/xmc_usbd.c ****     ep->xferCount = 0U;
 1992              		.loc 1 1330 0
 1993 0044 C4E90921 		strd	r2, r1, [r4, #36]
1331:/opt/XMClib/XMC_Peripheral_Library_v2.1.16/XMCLib/src/xmc_usbd.c ****     ep->inInUse = 1U;
 1994              		.loc 1 1331 0
 1995 0048 E162     		str	r1, [r4, #44]
1334:/opt/XMClib/XMC_Peripheral_Library_v2.1.16/XMCLib/src/xmc_usbd.c ****     result=(int32_t)ep->xferTotal;
 1996              		.loc 1 1334 0
 1997 004a FFF7FEFF 		bl	XMC_USBD_lStartWriteXfer
 1998              	.LVL191:
1335:/opt/XMClib/XMC_Peripheral_Library_v2.1.16/XMCLib/src/xmc_usbd.c ****   }
 1999              		.loc 1 1335 0
 2000 004e 206B     		ldr	r0, [r4, #48]
 2001              	.LVL192:
1338:/opt/XMClib/XMC_Peripheral_Library_v2.1.16/XMCLib/src/xmc_usbd.c **** 
 2002              		.loc 1 1338 0
 2003 0050 F8BD     		pop	{r3, r4, r5, r6, r7, pc}
 2004              	.LVL193:
 2005              	.L168:
1313:/opt/XMClib/XMC_Peripheral_Library_v2.1.16/XMCLib/src/xmc_usbd.c ****   }
 2006              		.loc 1 1313 0
 2007 0052 0120     		movs	r0, #1
1338:/opt/XMClib/XMC_Peripheral_Library_v2.1.16/XMCLib/src/xmc_usbd.c **** 
 2008              		.loc 1 1338 0
 2009 0054 F8BD     		pop	{r3, r4, r5, r6, r7, pc}
 2010              	.LVL194:
 2011              	.L169:
1317:/opt/XMClib/XMC_Peripheral_Library_v2.1.16/XMCLib/src/xmc_usbd.c ****   }
 2012              		.loc 1 1317 0
 2013 0056 0020     		movs	r0, #0
 2014              	.LVL195:
1338:/opt/XMClib/XMC_Peripheral_Library_v2.1.16/XMCLib/src/xmc_usbd.c **** 
 2015              		.loc 1 1338 0
 2016 0058 F8BD     		pop	{r3, r4, r5, r6, r7, pc}
 2017              	.LVL196:
 2018              	.L172:
 2019 005a 00BF     		.align	2
 2020              	.L171:
 2021 005c 00000000 		.word	xmc_device
 2022              		.cfi_endproc
 2023              	.LFE194:
 2025              		.section	.text.XMC_USBD_lReadFifo,"ax",%progbits
 2026              		.align	1
 2027              		.p2align 2,,3
 2028              		.syntax unified
 2029              		.thumb
 2030              		.thumb_func
 2031              		.fpu fpv4-sp-d16
 2033              	XMC_USBD_lReadFifo:
 2034              	.LFB163:
 206:/opt/XMClib/XMC_Peripheral_Library_v2.1.16/XMCLib/src/xmc_usbd.c ****   XMC_USBD_EP_t * ep = &xmc_device.ep[ep_num];
 2035              		.loc 1 206 0
 2036              		.cfi_startproc
 2037              		@ args = 0, pretend = 0, frame = 0
 2038              		@ frame_needed = 0, uses_anonymous_args = 0
 2039              	.LVL197:
 2040 0000 2DE9F041 		push	{r4, r5, r6, r7, r8, lr}
 2041              	.LCFI24:
 2042              		.cfi_def_cfa_offset 24
 2043              		.cfi_offset 4, -24
 2044              		.cfi_offset 5, -20
 2045              		.cfi_offset 6, -16
 2046              		.cfi_offset 7, -12
 2047              		.cfi_offset 8, -8
 2048              		.cfi_offset 14, -4
 214:/opt/XMClib/XMC_Peripheral_Library_v2.1.16/XMCLib/src/xmc_usbd.c ****   word_count = (byte_count >> 2U );
 2049              		.loc 1 214 0
 2050 0004 234E     		ldr	r6, .L190
 2051              	.LVL198:
 2052 0006 06EB8003 		add	r3, r6, r0, lsl #2
 2053 000a D3F8C431 		ldr	r3, [r3, #452]
 2054 000e 1B68     		ldr	r3, [r3]
 2055              	.LVL199:
 218:/opt/XMClib/XMC_Peripheral_Library_v2.1.16/XMCLib/src/xmc_usbd.c ****   {
 2056              		.loc 1 218 0
 2057 0010 1B04     		lsls	r3, r3, #16
 2058              	.LVL200:
 2059 0012 01D4     		bmi	.L188
 2060              	.L173:
 247:/opt/XMClib/XMC_Peripheral_Library_v2.1.16/XMCLib/src/xmc_usbd.c **** 
 2061              		.loc 1 247 0
 2062 0014 BDE8F081 		pop	{r4, r5, r6, r7, r8, pc}
 2063              	.L188:
 222:/opt/XMClib/XMC_Peripheral_Library_v2.1.16/XMCLib/src/xmc_usbd.c ****   {
 2064              		.loc 1 222 0
 2065 0018 3425     		movs	r5, #52
 2066 001a 05FB0065 		mla	r5, r5, r0, r6
 2067 001e 6A6A     		ldr	r2, [r5, #36]
 2068 0020 002A     		cmp	r2, #0
 2069 0022 F7D0     		beq	.L173
 2070              	.LVL201:
 229:/opt/XMClib/XMC_Peripheral_Library_v2.1.16/XMCLib/src/xmc_usbd.c ****     {
 2071              		.loc 1 229 0
 2072 0024 8C08     		lsrs	r4, r1, #2
 211:/opt/XMClib/XMC_Peripheral_Library_v2.1.16/XMCLib/src/xmc_usbd.c ****   uint32_t i;
 2073              		.loc 1 211 0
 2074 0026 D6F8E0C1 		ldr	ip, [r6, #480]
 229:/opt/XMClib/XMC_Peripheral_Library_v2.1.16/XMCLib/src/xmc_usbd.c ****     {
 2075              		.loc 1 229 0
 2076 002a 0AD0     		beq	.L175
 2077 002c 4FEA840E 		lsl	lr, r4, #2
 2078 0030 0023     		movs	r3, #0
 2079 0032 00E0     		b	.L176
 2080              	.LVL202:
 2081              	.L189:
 2082 0034 6A6A     		ldr	r2, [r5, #36]
 2083              	.L176:
 231:/opt/XMClib/XMC_Peripheral_Library_v2.1.16/XMCLib/src/xmc_usbd.c ****     }
 2084              		.loc 1 231 0 discriminator 3
 2085 0036 DCF80070 		ldr	r7, [ip]
 2086 003a D750     		str	r7, [r2, r3]
 2087 003c 0433     		adds	r3, r3, #4
 229:/opt/XMClib/XMC_Peripheral_Library_v2.1.16/XMCLib/src/xmc_usbd.c ****     {
 2088              		.loc 1 229 0 discriminator 3
 2089 003e 9E45     		cmp	lr, r3
 2090 0040 F8D1     		bne	.L189
 2091              	.L175:
 216:/opt/XMClib/XMC_Peripheral_Library_v2.1.16/XMCLib/src/xmc_usbd.c ****   /* Check if ep is enabled and has buffer */
 2092              		.loc 1 216 0
 2093 0042 21F00307 		bic	r7, r1, #3
 234:/opt/XMClib/XMC_Peripheral_Library_v2.1.16/XMCLib/src/xmc_usbd.c ****     {
 2094              		.loc 1 234 0
 2095 0046 B942     		cmp	r1, r7
 2096 0048 19D0     		beq	.L177
 236:/opt/XMClib/XMC_Peripheral_Library_v2.1.16/XMCLib/src/xmc_usbd.c ****       for (i = 0U;(temp_word_count + i) < byte_count;i++)
 2097              		.loc 1 236 0
 2098 004a DCF80050 		ldr	r5, [ip]
 2099              	.LVL203:
 237:/opt/XMClib/XMC_Peripheral_Library_v2.1.16/XMCLib/src/xmc_usbd.c ****       {
 2100              		.loc 1 237 0
 2101 004e 16D9     		bls	.L177
 2102 0050 CF1B     		subs	r7, r1, r7
 239:/opt/XMClib/XMC_Peripheral_Library_v2.1.16/XMCLib/src/xmc_usbd.c ****       }
 2103              		.loc 1 239 0
 2104 0052 4FF0340C 		mov	ip, #52
 2105 0056 4FEAC70E 		lsl	lr, r7, #3
 2106 005a A400     		lsls	r4, r4, #2
 2107 005c 0CFB006C 		mla	ip, ip, r0, r6
 2108 0060 0022     		movs	r2, #0
 2109 0062 4FF0FF08 		mov	r8, #255
 2110              	.LVL204:
 2111              	.L178:
 239:/opt/XMClib/XMC_Peripheral_Library_v2.1.16/XMCLib/src/xmc_usbd.c ****       }
 2112              		.loc 1 239 0 is_stmt 0 discriminator 3
 2113 0066 08FA02F3 		lsl	r3, r8, r2
 2114 006a 2B40     		ands	r3, r3, r5
 2115 006c D340     		lsrs	r3, r3, r2
 2116 006e DCF82470 		ldr	r7, [ip, #36]
 2117 0072 0832     		adds	r2, r2, #8
 237:/opt/XMClib/XMC_Peripheral_Library_v2.1.16/XMCLib/src/xmc_usbd.c ****       {
 2118              		.loc 1 237 0 is_stmt 1 discriminator 3
 2119 0074 7245     		cmp	r2, lr
 239:/opt/XMClib/XMC_Peripheral_Library_v2.1.16/XMCLib/src/xmc_usbd.c ****       }
 2120              		.loc 1 239 0 discriminator 3
 2121 0076 3B55     		strb	r3, [r7, r4]
 2122              	.LVL205:
 2123 0078 04F10104 		add	r4, r4, #1
 237:/opt/XMClib/XMC_Peripheral_Library_v2.1.16/XMCLib/src/xmc_usbd.c ****       {
 2124              		.loc 1 237 0 discriminator 3
 2125 007c F3D1     		bne	.L178
 2126              	.LVL206:
 2127              	.L177:
 2128              	.LBB118:
 2129              	.LBB119:
 244:/opt/XMClib/XMC_Peripheral_Library_v2.1.16/XMCLib/src/xmc_usbd.c ****     ep->xferBuffer += byte_count;
 2130              		.loc 1 244 0
 2131 007e 3423     		movs	r3, #52
 2132 0080 03FB0060 		mla	r0, r3, r0, r6
 2133              	.LVL207:
 2134 0084 C26A     		ldr	r2, [r0, #44]
 245:/opt/XMClib/XMC_Peripheral_Library_v2.1.16/XMCLib/src/xmc_usbd.c ****   }
 2135              		.loc 1 245 0
 2136 0086 436A     		ldr	r3, [r0, #36]
 244:/opt/XMClib/XMC_Peripheral_Library_v2.1.16/XMCLib/src/xmc_usbd.c ****     ep->xferBuffer += byte_count;
 2137              		.loc 1 244 0
 2138 0088 0A44     		add	r2, r2, r1
 245:/opt/XMClib/XMC_Peripheral_Library_v2.1.16/XMCLib/src/xmc_usbd.c ****   }
 2139              		.loc 1 245 0
 2140 008a 1944     		add	r1, r1, r3
 2141              	.LVL208:
 244:/opt/XMClib/XMC_Peripheral_Library_v2.1.16/XMCLib/src/xmc_usbd.c ****     ep->xferBuffer += byte_count;
 2142              		.loc 1 244 0
 2143 008c C262     		str	r2, [r0, #44]
 245:/opt/XMClib/XMC_Peripheral_Library_v2.1.16/XMCLib/src/xmc_usbd.c ****   }
 2144              		.loc 1 245 0
 2145 008e 4162     		str	r1, [r0, #36]
 2146              	.LBE119:
 2147              	.LBE118:
 247:/opt/XMClib/XMC_Peripheral_Library_v2.1.16/XMCLib/src/xmc_usbd.c **** 
 2148              		.loc 1 247 0
 2149 0090 BDE8F081 		pop	{r4, r5, r6, r7, r8, pc}
 2150              	.L191:
 2151              		.align	2
 2152              	.L190:
 2153 0094 00000000 		.word	xmc_device
 2154              		.cfi_endproc
 2155              	.LFE163:
 2157              		.section	.text.XMC_USBD_lDeviceActive,"ax",%progbits
 2158              		.align	1
 2159              		.p2align 2,,3
 2160              		.global	XMC_USBD_lDeviceActive
 2161              		.syntax unified
 2162              		.thumb
 2163              		.thumb_func
 2164              		.fpu fpv4-sp-d16
 2166              	XMC_USBD_lDeviceActive:
 2167              	.LFB162:
 181:/opt/XMClib/XMC_Peripheral_Library_v2.1.16/XMCLib/src/xmc_usbd.c ****   uint8_t i;
 2168              		.loc 1 181 0
 2169              		.cfi_startproc
 2170              		@ args = 0, pretend = 0, frame = 0
 2171              		@ frame_needed = 0, uses_anonymous_args = 0
 2172              		@ link register save eliminated.
 2173              	.LVL209:
 2174 0000 70B4     		push	{r4, r5, r6}
 2175              	.LCFI25:
 2176              		.cfi_def_cfa_offset 12
 2177              		.cfi_offset 4, -12
 2178              		.cfi_offset 5, -8
 2179              		.cfi_offset 6, -4
 184:/opt/XMClib/XMC_Peripheral_Library_v2.1.16/XMCLib/src/xmc_usbd.c ****   {
 2180              		.loc 1 184 0
 2181 0002 047B     		ldrb	r4, [r0, #12]	@ zero_extendqisi2
 2182 0004 D4B1     		cbz	r4, .L196
 2183 0006 0023     		movs	r3, #0
 2184 0008 0E4E     		ldr	r6, .L202
 183:/opt/XMClib/XMC_Peripheral_Library_v2.1.16/XMCLib/src/xmc_usbd.c ****   for (i = 0U; i < (uint8_t)obj->usbd_max_num_eps; i++)
 2185              		.loc 1 183 0
 2186 000a 1846     		mov	r0, r3
 2187              	.LVL210:
 186:/opt/XMClib/XMC_Peripheral_Library_v2.1.16/XMCLib/src/xmc_usbd.c ****     {
 2188              		.loc 1 186 0
 2189 000c 3425     		movs	r5, #52
 2190 000e 08E0     		b	.L195
 2191              	.LVL211:
 2192              	.L201:
 186:/opt/XMClib/XMC_Peripheral_Library_v2.1.16/XMCLib/src/xmc_usbd.c ****     {
 2193              		.loc 1 186 0 is_stmt 0 discriminator 1
 2194 0010 5268     		ldr	r2, [r2, #4]
 2195 0012 0133     		adds	r3, r3, #1
 2196              	.LVL212:
 188:/opt/XMClib/XMC_Peripheral_Library_v2.1.16/XMCLib/src/xmc_usbd.c ****     }
 2197              		.loc 1 188 0 is_stmt 1 discriminator 1
 2198 0014 12F0100F 		tst	r2, #16
 184:/opt/XMClib/XMC_Peripheral_Library_v2.1.16/XMCLib/src/xmc_usbd.c ****   {
 2199              		.loc 1 184 0 discriminator 1
 2200 0018 DAB2     		uxtb	r2, r3
 188:/opt/XMClib/XMC_Peripheral_Library_v2.1.16/XMCLib/src/xmc_usbd.c ****     }
 2201              		.loc 1 188 0 discriminator 1
 2202 001a 18BF     		it	ne
 2203 001c 0120     		movne	r0, #1
 2204              	.LVL213:
 184:/opt/XMClib/XMC_Peripheral_Library_v2.1.16/XMCLib/src/xmc_usbd.c ****   {
 2205              		.loc 1 184 0 discriminator 1
 2206 001e A242     		cmp	r2, r4
 2207 0020 0AD2     		bcs	.L193
 2208              	.LVL214:
 2209              	.L195:
 186:/opt/XMClib/XMC_Peripheral_Library_v2.1.16/XMCLib/src/xmc_usbd.c ****     {
 2210              		.loc 1 186 0
 2211 0022 05FB0362 		mla	r2, r5, r3, r6
 2212 0026 5168     		ldr	r1, [r2, #4]
 2213 0028 0907     		lsls	r1, r1, #28
 2214 002a F1D5     		bpl	.L201
 2215 002c 0133     		adds	r3, r3, #1
 2216              	.LVL215:
 184:/opt/XMClib/XMC_Peripheral_Library_v2.1.16/XMCLib/src/xmc_usbd.c ****   {
 2217              		.loc 1 184 0
 2218 002e DAB2     		uxtb	r2, r3
 2219 0030 A242     		cmp	r2, r4
 188:/opt/XMClib/XMC_Peripheral_Library_v2.1.16/XMCLib/src/xmc_usbd.c ****     }
 2220              		.loc 1 188 0
 2221 0032 4FF00100 		mov	r0, #1
 2222              	.LVL216:
 184:/opt/XMClib/XMC_Peripheral_Library_v2.1.16/XMCLib/src/xmc_usbd.c ****   {
 2223              		.loc 1 184 0
 2224 0036 F4D3     		bcc	.L195
 2225              	.L193:
 192:/opt/XMClib/XMC_Peripheral_Library_v2.1.16/XMCLib/src/xmc_usbd.c **** 
 2226              		.loc 1 192 0
 2227 0038 70BC     		pop	{r4, r5, r6}
 2228              	.LCFI26:
 2229              		.cfi_remember_state
 2230              		.cfi_restore 6
 2231              		.cfi_restore 5
 2232              		.cfi_restore 4
 2233              		.cfi_def_cfa_offset 0
 2234 003a 7047     		bx	lr
 2235              	.LVL217:
 2236              	.L196:
 2237              	.LCFI27:
 2238              		.cfi_restore_state
 183:/opt/XMClib/XMC_Peripheral_Library_v2.1.16/XMCLib/src/xmc_usbd.c ****   for (i = 0U; i < (uint8_t)obj->usbd_max_num_eps; i++)
 2239              		.loc 1 183 0
 2240 003c 2046     		mov	r0, r4
 2241              	.LVL218:
 192:/opt/XMClib/XMC_Peripheral_Library_v2.1.16/XMCLib/src/xmc_usbd.c **** 
 2242              		.loc 1 192 0
 2243 003e 70BC     		pop	{r4, r5, r6}
 2244              	.LCFI28:
 2245              		.cfi_restore 6
 2246              		.cfi_restore 5
 2247              		.cfi_restore 4
 2248              		.cfi_def_cfa_offset 0
 2249 0040 7047     		bx	lr
 2250              	.L203:
 2251 0042 00BF     		.align	2
 2252              	.L202:
 2253 0044 00000000 		.word	xmc_device
 2254              		.cfi_endproc
 2255              	.LFE162:
 2257              		.section	.text.XMC_USBD_IRQHandler,"ax",%progbits
 2258              		.align	1
 2259              		.p2align 2,,3
 2260              		.global	XMC_USBD_IRQHandler
 2261              		.syntax unified
 2262              		.thumb
 2263              		.thumb_func
 2264              		.fpu fpv4-sp-d16
 2266              	XMC_USBD_IRQHandler:
 2267              	.LFB177:
 867:/opt/XMClib/XMC_Peripheral_Library_v2.1.16/XMCLib/src/xmc_usbd.c ****   gintmsk_data_t gintmsk;
 2268              		.loc 1 867 0
 2269              		.cfi_startproc
 2270              		@ args = 0, pretend = 0, frame = 56
 2271              		@ frame_needed = 0, uses_anonymous_args = 0
 2272              	.LVL219:
 2273 0000 2DE9F04F 		push	{r4, r5, r6, r7, r8, r9, r10, fp, lr}
 2274              	.LCFI29:
 2275              		.cfi_def_cfa_offset 36
 2276              		.cfi_offset 4, -36
 2277              		.cfi_offset 5, -32
 2278              		.cfi_offset 6, -28
 2279              		.cfi_offset 7, -24
 2280              		.cfi_offset 8, -20
 2281              		.cfi_offset 9, -16
 2282              		.cfi_offset 10, -12
 2283              		.cfi_offset 11, -8
 2284              		.cfi_offset 14, -4
 871:/opt/XMClib/XMC_Peripheral_Library_v2.1.16/XMCLib/src/xmc_usbd.c ****   data.d32 = xmc_device.global_register->gintsts & gintmsk.d32;
 2285              		.loc 1 871 0
 2286 0004 934C     		ldr	r4, .L334
 2287 0006 D4F8A031 		ldr	r3, [r4, #416]
 2288 000a 9E69     		ldr	r6, [r3, #24]
 2289              	.LVL220:
 872:/opt/XMClib/XMC_Peripheral_Library_v2.1.16/XMCLib/src/xmc_usbd.c **** 	
 2290              		.loc 1 872 0
 2291 000c 5D69     		ldr	r5, [r3, #20]
 2292 000e 3540     		ands	r5, r5, r6
 2293              	.LVL221:
 2294 0010 5FFA85FB 		uxtb	fp, r5
 874:/opt/XMClib/XMC_Peripheral_Library_v2.1.16/XMCLib/src/xmc_usbd.c ****   {
 2295              		.loc 1 874 0
 2296 0014 1BF0080F 		tst	fp, #8
 867:/opt/XMClib/XMC_Peripheral_Library_v2.1.16/XMCLib/src/xmc_usbd.c ****   gintmsk_data_t gintmsk;
 2297              		.loc 1 867 0
 2298 0018 8FB0     		sub	sp, sp, #60
 2299              	.LCFI30:
 2300              		.cfi_def_cfa_offset 96
 867:/opt/XMClib/XMC_Peripheral_Library_v2.1.16/XMCLib/src/xmc_usbd.c ****   gintmsk_data_t gintmsk;
 2301              		.loc 1 867 0
 2302 001a 8146     		mov	r9, r0
 874:/opt/XMClib/XMC_Peripheral_Library_v2.1.16/XMCLib/src/xmc_usbd.c ****   {
 2303              		.loc 1 874 0
 2304 001c 07D0     		beq	.L205
 876:/opt/XMClib/XMC_Peripheral_Library_v2.1.16/XMCLib/src/xmc_usbd.c ****     XMC_USBD_ClearEvent(XMC_USBD_EVENT_SOF);
 2305              		.loc 1 876 0
 2306 001e D4F80032 		ldr	r3, [r4, #512]
 2307 0022 0920     		movs	r0, #9
 2308              	.LVL222:
 2309 0024 9847     		blx	r3
 2310              	.LVL223:
 2311              	.LBB173:
 2312              	.LBB174:
1003:/opt/XMClib/XMC_Peripheral_Library_v2.1.16/XMCLib/src/xmc_usbd.c **** }
 2313              		.loc 1 1003 0
 2314 0026 D4F8A031 		ldr	r3, [r4, #416]
 970:/opt/XMClib/XMC_Peripheral_Library_v2.1.16/XMCLib/src/xmc_usbd.c ****   switch(event)
 2315              		.loc 1 970 0
 2316 002a 0822     		movs	r2, #8
 2317              	.LVL224:
1003:/opt/XMClib/XMC_Peripheral_Library_v2.1.16/XMCLib/src/xmc_usbd.c **** }
 2318              		.loc 1 1003 0
 2319 002c 5A61     		str	r2, [r3, #20]
 2320              	.LVL225:
 2321              	.L205:
 2322              	.LBE174:
 2323              	.LBE173:
 879:/opt/XMClib/XMC_Peripheral_Library_v2.1.16/XMCLib/src/xmc_usbd.c ****   {
 2324              		.loc 1 879 0
 2325 002e 99F80D30 		ldrb	r3, [r9, #13]	@ zero_extendqisi2
 2326 0032 012B     		cmp	r3, #1
 2327 0034 59D0     		beq	.L327
 2328              	.LVL226:
 2329              	.L206:
 2330 0036 C5F30726 		ubfx	r6, r5, #8, #8
 2331              	.LVL227:
 891:/opt/XMClib/XMC_Peripheral_Library_v2.1.16/XMCLib/src/xmc_usbd.c ****   {
 2332              		.loc 1 891 0
 2333 003a 7007     		lsls	r0, r6, #29
 2334              	.LVL228:
 2335 003c 04D5     		bpl	.L209
 2336              	.LVL229:
 2337              	.LBB175:
 2338              	.LBB176:
1003:/opt/XMClib/XMC_Peripheral_Library_v2.1.16/XMCLib/src/xmc_usbd.c **** }
 2339              		.loc 1 1003 0
 2340 003e D4F8A031 		ldr	r3, [r4, #416]
 970:/opt/XMClib/XMC_Peripheral_Library_v2.1.16/XMCLib/src/xmc_usbd.c ****   switch(event)
 2341              		.loc 1 970 0
 2342 0042 4FF48062 		mov	r2, #1024
 2343              	.LVL230:
1003:/opt/XMClib/XMC_Peripheral_Library_v2.1.16/XMCLib/src/xmc_usbd.c **** }
 2344              		.loc 1 1003 0
 2345 0046 5A61     		str	r2, [r3, #20]
 2346              	.LVL231:
 2347              	.L209:
 2348              	.LBE176:
 2349              	.LBE175:
 895:/opt/XMClib/XMC_Peripheral_Library_v2.1.16/XMCLib/src/xmc_usbd.c ****   {
 2350              		.loc 1 895 0
 2351 0048 3107     		lsls	r1, r6, #28
 2352 004a 08D5     		bpl	.L210
 897:/opt/XMClib/XMC_Peripheral_Library_v2.1.16/XMCLib/src/xmc_usbd.c ****     XMC_USBD_ClearEvent(XMC_USBD_EVENT_SUSPEND);
 2353              		.loc 1 897 0
 2354 004c D4F80032 		ldr	r3, [r4, #512]
 2355 0050 0620     		movs	r0, #6
 2356 0052 9847     		blx	r3
 2357              	.LVL232:
 2358              	.LBB177:
 2359              	.LBB178:
1003:/opt/XMClib/XMC_Peripheral_Library_v2.1.16/XMCLib/src/xmc_usbd.c **** }
 2360              		.loc 1 1003 0
 2361 0054 D4F8A031 		ldr	r3, [r4, #416]
 970:/opt/XMClib/XMC_Peripheral_Library_v2.1.16/XMCLib/src/xmc_usbd.c ****   switch(event)
 2362              		.loc 1 970 0
 2363 0058 4FF40062 		mov	r2, #2048
 2364              	.LVL233:
1003:/opt/XMClib/XMC_Peripheral_Library_v2.1.16/XMCLib/src/xmc_usbd.c **** }
 2365              		.loc 1 1003 0
 2366 005c 5A61     		str	r2, [r3, #20]
 2367              	.LVL234:
 2368              	.L210:
 2369 005e C5F30763 		ubfx	r3, r5, #24, #8
 2370              	.LBE178:
 2371              	.LBE177:
 900:/opt/XMClib/XMC_Peripheral_Library_v2.1.16/XMCLib/src/xmc_usbd.c ****   {
 2372              		.loc 1 900 0
 2373 0062 1A06     		lsls	r2, r3, #24
 2374              	.LVL235:
 2375 0064 DFB2     		uxtb	r7, r3
 2376 0066 08D5     		bpl	.L211
 902:/opt/XMClib/XMC_Peripheral_Library_v2.1.16/XMCLib/src/xmc_usbd.c ****     XMC_USBD_ClearEvent(XMC_USBD_EVENT_REMOTE_WAKEUP);
 2377              		.loc 1 902 0
 2378 0068 D4F80032 		ldr	r3, [r4, #512]
 2379 006c 0820     		movs	r0, #8
 2380 006e 9847     		blx	r3
 2381              	.LVL236:
 2382              	.LBB179:
 2383              	.LBB180:
1003:/opt/XMClib/XMC_Peripheral_Library_v2.1.16/XMCLib/src/xmc_usbd.c **** }
 2384              		.loc 1 1003 0
 2385 0070 D4F8A031 		ldr	r3, [r4, #416]
 970:/opt/XMClib/XMC_Peripheral_Library_v2.1.16/XMCLib/src/xmc_usbd.c ****   switch(event)
 2386              		.loc 1 970 0
 2387 0074 4FF00042 		mov	r2, #-2147483648
 2388              	.LVL237:
1003:/opt/XMClib/XMC_Peripheral_Library_v2.1.16/XMCLib/src/xmc_usbd.c **** }
 2389              		.loc 1 1003 0
 2390 0078 5A61     		str	r2, [r3, #20]
 2391              	.LVL238:
 2392              	.L211:
 2393              	.LBE180:
 2394              	.LBE179:
 905:/opt/XMClib/XMC_Peripheral_Library_v2.1.16/XMCLib/src/xmc_usbd.c ****   {
 2395              		.loc 1 905 0
 2396 007a 7B06     		lsls	r3, r7, #25
 2397 007c 0ED5     		bpl	.L212
 907:/opt/XMClib/XMC_Peripheral_Library_v2.1.16/XMCLib/src/xmc_usbd.c ****     xmc_device.DeviceEvent_cb(XMC_USBD_EVENT_POWER_ON);
 2398              		.loc 1 907 0
 2399 007e 94F8FE31 		ldrb	r3, [r4, #510]	@ zero_extendqisi2
 908:/opt/XMClib/XMC_Peripheral_Library_v2.1.16/XMCLib/src/xmc_usbd.c ****     XMC_USBD_ClearEvent(XMC_USBD_EVENT_POWER_ON);
 2400              		.loc 1 908 0
 2401 0082 D4F80022 		ldr	r2, [r4, #512]
 2402              	.LVL239:
 907:/opt/XMClib/XMC_Peripheral_Library_v2.1.16/XMCLib/src/xmc_usbd.c ****     xmc_device.DeviceEvent_cb(XMC_USBD_EVENT_POWER_ON);
 2403              		.loc 1 907 0
 2404 0086 43F00403 		orr	r3, r3, #4
 2405 008a 84F8FE31 		strb	r3, [r4, #510]
 908:/opt/XMClib/XMC_Peripheral_Library_v2.1.16/XMCLib/src/xmc_usbd.c ****     XMC_USBD_ClearEvent(XMC_USBD_EVENT_POWER_ON);
 2406              		.loc 1 908 0
 2407 008e 0020     		movs	r0, #0
 2408 0090 9047     		blx	r2
 2409              	.LVL240:
 2410              	.LBB181:
 2411              	.LBB182:
1003:/opt/XMClib/XMC_Peripheral_Library_v2.1.16/XMCLib/src/xmc_usbd.c **** }
 2412              		.loc 1 1003 0
 2413 0092 D4F8A031 		ldr	r3, [r4, #416]
 970:/opt/XMClib/XMC_Peripheral_Library_v2.1.16/XMCLib/src/xmc_usbd.c ****   switch(event)
 2414              		.loc 1 970 0
 2415 0096 4FF08042 		mov	r2, #1073741824
 2416              	.LVL241:
1003:/opt/XMClib/XMC_Peripheral_Library_v2.1.16/XMCLib/src/xmc_usbd.c **** }
 2417              		.loc 1 1003 0
 2418 009a 5A61     		str	r2, [r3, #20]
 2419              	.LVL242:
 2420              	.L212:
 2421              	.LBE182:
 2422              	.LBE181:
 911:/opt/XMClib/XMC_Peripheral_Library_v2.1.16/XMCLib/src/xmc_usbd.c ****   {
 2423              		.loc 1 911 0
 2424 009c F706     		lsls	r7, r6, #27
 2425 009e 00F1DB80 		bmi	.L328
 915:/opt/XMClib/XMC_Peripheral_Library_v2.1.16/XMCLib/src/xmc_usbd.c ****   {
 2426              		.loc 1 915 0
 2427 00a2 B606     		lsls	r6, r6, #26
 2428 00a4 00F16181 		bmi	.L329
 2429              	.LVL243:
 2430              	.L219:
 2431 00a8 C5F3074A 		ubfx	r10, r5, #16, #8
 919:/opt/XMClib/XMC_Peripheral_Library_v2.1.16/XMCLib/src/xmc_usbd.c ****   {
 2432              		.loc 1 919 0
 2433 00ac 1AF0040F 		tst	r10, #4
 2434 00b0 40F07B81 		bne	.L330
 2435              	.LVL244:
 2436              	.L220:
 923:/opt/XMClib/XMC_Peripheral_Library_v2.1.16/XMCLib/src/xmc_usbd.c ****   {
 2437              		.loc 1 923 0
 2438 00b4 1AF0080F 		tst	r10, #8
 2439 00b8 2CD1     		bne	.L331
 2440              	.LVL245:
 2441              	.L234:
 927:/opt/XMClib/XMC_Peripheral_Library_v2.1.16/XMCLib/src/xmc_usbd.c ****   {
 2442              		.loc 1 927 0
 2443 00ba 1BF0040F 		tst	fp, #4
 2444 00be 11D0     		beq	.L204
 2445              	.LBB183:
 2446              	.LBB184:
 606:/opt/XMClib/XMC_Peripheral_Library_v2.1.16/XMCLib/src/xmc_usbd.c ****   if (data.b.sesenddet)
 2447              		.loc 1 606 0
 2448 00c0 D4F8A031 		ldr	r3, [r4, #416]
 2449              	.LVL246:
 2450 00c4 5D68     		ldr	r5, [r3, #4]
 2451              	.LVL247:
 607:/opt/XMClib/XMC_Peripheral_Library_v2.1.16/XMCLib/src/xmc_usbd.c ****   {
 2452              		.loc 1 607 0
 2453 00c6 6907     		lsls	r1, r5, #29
 2454              	.LVL248:
 2455 00c8 0BD5     		bpl	.L246
 609:/opt/XMClib/XMC_Peripheral_Library_v2.1.16/XMCLib/src/xmc_usbd.c **** 		xmc_device.DeviceEvent_cb(XMC_USBD_EVENT_POWER_OFF);
 2456              		.loc 1 609 0
 2457 00ca 94F8FE31 		ldrb	r3, [r4, #510]	@ zero_extendqisi2
 610:/opt/XMClib/XMC_Peripheral_Library_v2.1.16/XMCLib/src/xmc_usbd.c ****   }
 2458              		.loc 1 610 0
 2459 00ce D4F80022 		ldr	r2, [r4, #512]
 2460              	.LVL249:
 609:/opt/XMClib/XMC_Peripheral_Library_v2.1.16/XMCLib/src/xmc_usbd.c **** 		xmc_device.DeviceEvent_cb(XMC_USBD_EVENT_POWER_OFF);
 2461              		.loc 1 609 0
 2462 00d2 6FF38203 		bfc	r3, #2, #1
 2463 00d6 84F8FE31 		strb	r3, [r4, #510]
 610:/opt/XMClib/XMC_Peripheral_Library_v2.1.16/XMCLib/src/xmc_usbd.c ****   }
 2464              		.loc 1 610 0
 2465 00da 0120     		movs	r0, #1
 2466 00dc 9047     		blx	r2
 2467              	.LVL250:
 2468 00de D4F8A031 		ldr	r3, [r4, #416]
 2469              	.LVL251:
 2470              	.L246:
 2471              	.LBB185:
 2472              	.LBB186:
1013:/opt/XMClib/XMC_Peripheral_Library_v2.1.16/XMCLib/src/xmc_usbd.c **** }
 2473              		.loc 1 1013 0
 2474 00e2 5D60     		str	r5, [r3, #4]
 2475              	.LVL252:
 2476              	.L204:
 2477              	.LBE186:
 2478              	.LBE185:
 2479              	.LBE184:
 2480              	.LBE183:
 932:/opt/XMClib/XMC_Peripheral_Library_v2.1.16/XMCLib/src/xmc_usbd.c **** 
 2481              		.loc 1 932 0
 2482 00e4 0FB0     		add	sp, sp, #60
 2483              	.LCFI31:
 2484              		.cfi_remember_state
 2485              		.cfi_def_cfa_offset 36
 2486              		@ sp needed
 2487 00e6 BDE8F08F 		pop	{r4, r5, r6, r7, r8, r9, r10, fp, pc}
 2488              	.LVL253:
 2489              	.L327:
 2490              	.LCFI32:
 2491              		.cfi_restore_state
 881:/opt/XMClib/XMC_Peripheral_Library_v2.1.16/XMCLib/src/xmc_usbd.c ****     {
 2492              		.loc 1 881 0
 2493 00ea 1BF0100F 		tst	fp, #16
 2494 00ee A2D0     		beq	.L206
 885:/opt/XMClib/XMC_Peripheral_Library_v2.1.16/XMCLib/src/xmc_usbd.c ****       XMC_USBD_lHandleRxFLvl(); /* handle the interrupt */
 2495              		.loc 1 885 0
 2496 00f0 D4F8A031 		ldr	r3, [r4, #416]
 884:/opt/XMClib/XMC_Peripheral_Library_v2.1.16/XMCLib/src/xmc_usbd.c ****       xmc_device.global_register->gintmsk = gintmsk.d32;
 2497              		.loc 1 884 0
 2498 00f4 6FF30416 		bfc	r6, #4, #1
 885:/opt/XMClib/XMC_Peripheral_Library_v2.1.16/XMCLib/src/xmc_usbd.c ****       XMC_USBD_lHandleRxFLvl(); /* handle the interrupt */
 2499              		.loc 1 885 0
 2500 00f8 9E61     		str	r6, [r3, #24]
 2501              	.LBB187:
 2502              	.LBB188:
 838:/opt/XMClib/XMC_Peripheral_Library_v2.1.16/XMCLib/src/xmc_usbd.c **** 
 2503              		.loc 1 838 0
 2504 00fa 186A     		ldr	r0, [r3, #32]
 2505              	.LVL254:
 840:/opt/XMClib/XMC_Peripheral_Library_v2.1.16/XMCLib/src/xmc_usbd.c **** 	{
 2506              		.loc 1 840 0
 2507 00fc C0F34342 		ubfx	r2, r0, #17, #4
 2508              	.LVL255:
 2509 0100 022A     		cmp	r2, #2
 2510 0102 00F03282 		beq	.L208
 2511 0106 062A     		cmp	r2, #6
 2512 0108 00F02F82 		beq	.L208
 2513              	.L207:
 2514              	.LBE188:
 2515              	.LBE187:
 887:/opt/XMClib/XMC_Peripheral_Library_v2.1.16/XMCLib/src/xmc_usbd.c ****       xmc_device.global_register->gintmsk = gintmsk.d32;
 2516              		.loc 1 887 0
 2517 010c 46F01006 		orr	r6, r6, #16
 2518              	.LVL256:
 888:/opt/XMClib/XMC_Peripheral_Library_v2.1.16/XMCLib/src/xmc_usbd.c ****     }
 2519              		.loc 1 888 0
 2520 0110 9E61     		str	r6, [r3, #24]
 2521 0112 90E7     		b	.L206
 2522              	.LVL257:
 2523              	.L331:
 2524              	.LBB190:
 2525              	.LBB191:
 667:/opt/XMClib/XMC_Peripheral_Library_v2.1.16/XMCLib/src/xmc_usbd.c ****   
 2526              		.loc 1 667 0
 2527 0114 D4F8A431 		ldr	r3, [r4, #420]
 2528              	.LVL258:
 2529 0118 9A69     		ldr	r2, [r3, #24]
 2530              	.LVL259:
 669:/opt/XMClib/XMC_Peripheral_Library_v2.1.16/XMCLib/src/xmc_usbd.c ****   
 2531              		.loc 1 669 0
 2532 011a DF69     		ldr	r7, [r3, #28]
 671:/opt/XMClib/XMC_Peripheral_Library_v2.1.16/XMCLib/src/xmc_usbd.c ****   
 2533              		.loc 1 671 0
 2534 011c 5B69     		ldr	r3, [r3, #20]
 2535 011e 0093     		str	r3, [sp]
 2536              	.LVL260:
 673:/opt/XMClib/XMC_Peripheral_Library_v2.1.16/XMCLib/src/xmc_usbd.c ****   ep_num = 0U;
 2537              		.loc 1 673 0
 2538 0120 C7F30F47 		ubfx	r7, r7, #16, #16
 2539              	.LVL261:
 675:/opt/XMClib/XMC_Peripheral_Library_v2.1.16/XMCLib/src/xmc_usbd.c ****  
 2540              		.loc 1 675 0
 2541 0124 0021     		movs	r1, #0
 2542              	.LVL262:
 677:/opt/XMClib/XMC_Peripheral_Library_v2.1.16/XMCLib/src/xmc_usbd.c ****   {
 2543              		.loc 1 677 0
 2544 0126 17EA1247 		ands	r7, r7, r2, lsr #16
 2545              	.LVL263:
 675:/opt/XMClib/XMC_Peripheral_Library_v2.1.16/XMCLib/src/xmc_usbd.c ****  
 2546              		.loc 1 675 0
 2547 012a 0191     		str	r1, [sp, #4]
 677:/opt/XMClib/XMC_Peripheral_Library_v2.1.16/XMCLib/src/xmc_usbd.c ****   {
 2548              		.loc 1 677 0
 2549 012c 62D0     		beq	.L235
 2550 012e 3B46     		mov	r3, r7
 2551              	.LVL264:
 674:/opt/XMClib/XMC_Peripheral_Library_v2.1.16/XMCLib/src/xmc_usbd.c ****   doeptsiz.d32 = 0U;
 2552              		.loc 1 674 0
 2553 0130 0D46     		mov	r5, r1
 677:/opt/XMClib/XMC_Peripheral_Library_v2.1.16/XMCLib/src/xmc_usbd.c ****   {
 2554              		.loc 1 677 0
 2555 0132 0E46     		mov	r6, r1
 694:/opt/XMClib/XMC_Peripheral_Library_v2.1.16/XMCLib/src/xmc_usbd.c ****         if(obj->usbd_transfer_mode == XMC_USBD_USE_DMA)
 2556              		.loc 1 694 0
 2557 0134 CDF808B0 		str	fp, [sp, #8]
 2558 0138 B846     		mov	r8, r7
 2559              	.LVL265:
 2560              	.L244:
 681:/opt/XMClib/XMC_Peripheral_Library_v2.1.16/XMCLib/src/xmc_usbd.c ****     {
 2561              		.loc 1 681 0
 2562 013a D907     		lsls	r1, r3, #31
 2563              	.LVL266:
 2564 013c 52D5     		bpl	.L236
 2565              	.LVL267:
 685:/opt/XMClib/XMC_Peripheral_Library_v2.1.16/XMCLib/src/xmc_usbd.c ****       if(obj->usbd_transfer_mode == XMC_USBD_USE_DMA)
 2566              		.loc 1 685 0
 2567 013e 06F1700A 		add	r10, r6, #112
 2568 0142 04EB8A03 		add	r3, r4, r10, lsl #2
 2569              	.LVL268:
 2570 0146 009A     		ldr	r2, [sp]
 2571 0148 5B68     		ldr	r3, [r3, #4]
 686:/opt/XMClib/XMC_Peripheral_Library_v2.1.16/XMCLib/src/xmc_usbd.c ****       {
 2572              		.loc 1 686 0
 2573 014a 99F80D00 		ldrb	r0, [r9, #13]	@ zero_extendqisi2
 685:/opt/XMClib/XMC_Peripheral_Library_v2.1.16/XMCLib/src/xmc_usbd.c ****       if(obj->usbd_transfer_mode == XMC_USBD_USE_DMA)
 2574              		.loc 1 685 0
 2575 014e 9F68     		ldr	r7, [r3, #8]
 2576 0150 1740     		ands	r7, r7, r2
 2577              	.LVL269:
 2578 0152 F9B2     		uxtb	r1, r7
 2579 0154 01F0010B 		and	fp, r1, #1
 686:/opt/XMClib/XMC_Peripheral_Library_v2.1.16/XMCLib/src/xmc_usbd.c ****       {
 2580              		.loc 1 686 0
 2581 0158 0028     		cmp	r0, #0
 2582 015a 64D1     		bne	.L237
 688:/opt/XMClib/XMC_Peripheral_Library_v2.1.16/XMCLib/src/xmc_usbd.c ****       }
 2583              		.loc 1 688 0
 2584 015c 1A69     		ldr	r2, [r3, #16]
 2585              	.LVL270:
 2586 015e 0192     		str	r2, [sp, #4]
 691:/opt/XMClib/XMC_Peripheral_Library_v2.1.16/XMCLib/src/xmc_usbd.c ****       {
 2587              		.loc 1 691 0
 2588 0160 0A07     		lsls	r2, r1, #28
 2589              	.LVL271:
 2590 0162 4DD5     		bpl	.L324
 694:/opt/XMClib/XMC_Peripheral_Library_v2.1.16/XMCLib/src/xmc_usbd.c ****         if(obj->usbd_transfer_mode == XMC_USBD_USE_DMA)
 2591              		.loc 1 694 0
 2592 0164 3423     		movs	r3, #52
 2593 0166 03FB0641 		mla	r1, r3, r6, r4
 699:/opt/XMClib/XMC_Peripheral_Library_v2.1.16/XMCLib/src/xmc_usbd.c ****         }
 2594              		.loc 1 699 0
 2595 016a 019B     		ldr	r3, [sp, #4]
 694:/opt/XMClib/XMC_Peripheral_Library_v2.1.16/XMCLib/src/xmc_usbd.c ****         if(obj->usbd_transfer_mode == XMC_USBD_USE_DMA)
 2596              		.loc 1 694 0
 2597 016c 91F804C0 		ldrb	ip, [r1, #4]	@ zero_extendqisi2
 2598              	.LVL272:
 699:/opt/XMClib/XMC_Peripheral_Library_v2.1.16/XMCLib/src/xmc_usbd.c ****         }
 2599              		.loc 1 699 0
 2600 0170 C3F34173 		ubfx	r3, r3, #29, #2
 2601              	.LVL273:
 698:/opt/XMClib/XMC_Peripheral_Library_v2.1.16/XMCLib/src/xmc_usbd.c **** 		  (uint32_t)((deptsiz0_data_t*)&doeptsiz)->b.supcnt)*(uint32_t)XMC_USBD_SETUP_SIZE);
 2602              		.loc 1 698 0
 2603 0174 C3EB4373 		rsb	r3, r3, r3, lsl #29
 2604 0178 DB00     		lsls	r3, r3, #3
 2605 017a 1833     		adds	r3, r3, #24
 694:/opt/XMClib/XMC_Peripheral_Library_v2.1.16/XMCLib/src/xmc_usbd.c ****         if(obj->usbd_transfer_mode == XMC_USBD_USE_DMA)
 2606              		.loc 1 694 0
 2607 017c 60F3451C 		bfi	ip, r0, #5, #1
 698:/opt/XMClib/XMC_Peripheral_Library_v2.1.16/XMCLib/src/xmc_usbd.c **** 		  (uint32_t)((deptsiz0_data_t*)&doeptsiz)->b.supcnt)*(uint32_t)XMC_USBD_SETUP_SIZE);
 2608              		.loc 1 698 0
 2609 0180 0B61     		str	r3, [r1, #16]
 694:/opt/XMClib/XMC_Peripheral_Library_v2.1.16/XMCLib/src/xmc_usbd.c ****         if(obj->usbd_transfer_mode == XMC_USBD_USE_DMA)
 2610              		.loc 1 694 0
 2611 0182 81F804C0 		strb	ip, [r1, #4]
 2612              	.L247:
 705:/opt/XMClib/XMC_Peripheral_Library_v2.1.16/XMCLib/src/xmc_usbd.c **** 		xmc_device.EndpointEvent_cb(0U,XMC_USBD_EP_EVENT_SETUP); /* signal endpoint event */
 2613              		.loc 1 705 0
 2614 0186 3423     		movs	r3, #52
 2615 0188 03FB0643 		mla	r3, r3, r6, r4
 706:/opt/XMClib/XMC_Peripheral_Library_v2.1.16/XMCLib/src/xmc_usbd.c **** 				/* clear the interrupt */
 2616              		.loc 1 706 0
 2617 018c 0021     		movs	r1, #0
 705:/opt/XMClib/XMC_Peripheral_Library_v2.1.16/XMCLib/src/xmc_usbd.c **** 		xmc_device.EndpointEvent_cb(0U,XMC_USBD_EP_EVENT_SETUP); /* signal endpoint event */
 2618              		.loc 1 705 0
 2619 018e 5868     		ldr	r0, [r3, #4]
 2620 0190 6FF30410 		bfc	r0, #4, #1
 2621 0194 5860     		str	r0, [r3, #4]
 706:/opt/XMClib/XMC_Peripheral_Library_v2.1.16/XMCLib/src/xmc_usbd.c **** 				/* clear the interrupt */
 2622              		.loc 1 706 0
 2623 0196 D4F80432 		ldr	r3, [r4, #516]
 2624 019a 0846     		mov	r0, r1
 2625 019c 9847     		blx	r3
 2626              	.LVL274:
 2627              	.LBB192:
 2628              	.LBB193:
1033:/opt/XMClib/XMC_Peripheral_Library_v2.1.16/XMCLib/src/xmc_usbd.c **** }
 2629              		.loc 1 1033 0
 2630 019e 04EB8A03 		add	r3, r4, r10, lsl #2
 2631 01a2 0821     		movs	r1, #8
 2632 01a4 5B68     		ldr	r3, [r3, #4]
 2633 01a6 9960     		str	r1, [r3, #8]
 2634              	.LVL275:
 2635              	.LBE193:
 2636              	.LBE192:
 710:/opt/XMClib/XMC_Peripheral_Library_v2.1.16/XMCLib/src/xmc_usbd.c ****       {
 2637              		.loc 1 710 0
 2638 01a8 BBF1000F 		cmp	fp, #0
 2639 01ac 19D0     		beq	.L240
 712:/opt/XMClib/XMC_Peripheral_Library_v2.1.16/XMCLib/src/xmc_usbd.c ****         {
 2640              		.loc 1 712 0
 2641 01ae 99F80D30 		ldrb	r3, [r9, #13]	@ zero_extendqisi2
 2642 01b2 43B3     		cbz	r3, .L241
 2643              	.LVL276:
 2644              	.L242:
 718:/opt/XMClib/XMC_Peripheral_Library_v2.1.16/XMCLib/src/xmc_usbd.c ****         {
 2645              		.loc 1 718 0
 2646 01b4 3423     		movs	r3, #52
 2647 01b6 03FB0640 		mla	r0, r3, r6, r4
 2648 01ba 026B     		ldr	r2, [r0, #48]
 2649 01bc 836A     		ldr	r3, [r0, #40]
 2650 01be 9A42     		cmp	r2, r3
 2651 01c0 40F0DC81 		bne	.L243
 721:/opt/XMClib/XMC_Peripheral_Library_v2.1.16/XMCLib/src/xmc_usbd.c ****           xmc_device.EndpointEvent_cb(ep_num,XMC_USBD_EP_EVENT_OUT);
 2652              		.loc 1 721 0
 2653 01c4 4268     		ldr	r2, [r0, #4]
 720:/opt/XMClib/XMC_Peripheral_Library_v2.1.16/XMCLib/src/xmc_usbd.c ****           ep->outInUse = 0U;
 2654              		.loc 1 720 0
 2655 01c6 C36A     		ldr	r3, [r0, #44]
 2656 01c8 0361     		str	r3, [r0, #16]
 721:/opt/XMClib/XMC_Peripheral_Library_v2.1.16/XMCLib/src/xmc_usbd.c ****           xmc_device.EndpointEvent_cb(ep_num,XMC_USBD_EP_EVENT_OUT);
 2657              		.loc 1 721 0
 2658 01ca 6FF30412 		bfc	r2, #4, #1
 2659 01ce 4260     		str	r2, [r0, #4]
 2660 01d0 04EB8A0A 		add	r10, r4, r10, lsl #2
 722:/opt/XMClib/XMC_Peripheral_Library_v2.1.16/XMCLib/src/xmc_usbd.c ****         }
 2661              		.loc 1 722 0
 2662 01d4 D4F80432 		ldr	r3, [r4, #516]
 2663 01d8 0121     		movs	r1, #1
 2664 01da 2846     		mov	r0, r5
 2665 01dc 9847     		blx	r3
 2666              	.LVL277:
 2667 01de DAF80430 		ldr	r3, [r10, #4]
 2668              	.L240:
 2669              	.LVL278:
 2670              	.LBB194:
 2671              	.LBB195:
1033:/opt/XMClib/XMC_Peripheral_Library_v2.1.16/XMCLib/src/xmc_usbd.c **** }
 2672              		.loc 1 1033 0
 2673 01e2 9F60     		str	r7, [r3, #8]
 2674              	.LVL279:
 2675              	.L236:
 2676              	.LBE195:
 2677              	.LBE194:
 733:/opt/XMClib/XMC_Peripheral_Library_v2.1.16/XMCLib/src/xmc_usbd.c ****   }
 2678              		.loc 1 733 0
 2679 01e4 0135     		adds	r5, r5, #1
 2680              	.LVL280:
 2681 01e6 EDB2     		uxtb	r5, r5
 2682              	.LVL281:
 677:/opt/XMClib/XMC_Peripheral_Library_v2.1.16/XMCLib/src/xmc_usbd.c ****   {
 2683              		.loc 1 677 0
 2684 01e8 58FA05F3 		asrs	r3, r8, r5
 2685 01ec 2E46     		mov	r6, r5
 2686 01ee A4D1     		bne	.L244
 2687 01f0 DDF808B0 		ldr	fp, [sp, #8]
 2688              	.LVL282:
 2689              	.L235:
 2690              	.LBB196:
 2691              	.LBB197:
1003:/opt/XMClib/XMC_Peripheral_Library_v2.1.16/XMCLib/src/xmc_usbd.c **** }
 2692              		.loc 1 1003 0
 2693 01f4 D4F8A031 		ldr	r3, [r4, #416]
 970:/opt/XMClib/XMC_Peripheral_Library_v2.1.16/XMCLib/src/xmc_usbd.c ****   switch(event)
 2694              		.loc 1 970 0
 2695 01f8 4FF40022 		mov	r2, #524288
 2696              	.LVL283:
1003:/opt/XMClib/XMC_Peripheral_Library_v2.1.16/XMCLib/src/xmc_usbd.c **** }
 2697              		.loc 1 1003 0
 2698 01fc 5A61     		str	r2, [r3, #20]
 2699              	.LVL284:
 2700 01fe 5CE7     		b	.L234
 2701              	.LVL285:
 2702              	.L324:
 2703              	.LBE197:
 2704              	.LBE196:
 710:/opt/XMClib/XMC_Peripheral_Library_v2.1.16/XMCLib/src/xmc_usbd.c ****       {
 2705              		.loc 1 710 0
 2706 0200 BBF1000F 		cmp	fp, #0
 2707 0204 EDD0     		beq	.L240
 2708              	.L241:
 2709              	.LBB198:
 714:/opt/XMClib/XMC_Peripheral_Library_v2.1.16/XMCLib/src/xmc_usbd.c ****           ep->xferCount += bytes;
 2710              		.loc 1 714 0
 2711 0206 3423     		movs	r3, #52
 2712 0208 03FB0640 		mla	r0, r3, r6, r4
 2713 020c 019B     		ldr	r3, [sp, #4]
 2714              	.LVL286:
 2715 020e C3F31201 		ubfx	r1, r3, #0, #19
 2716 0212 D0E90A23 		ldrd	r2, r3, [r0, #40]
 2717              	.LVL287:
 2718 0216 D21A     		subs	r2, r2, r3
 2719 0218 521A     		subs	r2, r2, r1
 2720              	.LVL288:
 715:/opt/XMClib/XMC_Peripheral_Library_v2.1.16/XMCLib/src/xmc_usbd.c ****           ep->xferBuffer += bytes;
 2721              		.loc 1 715 0
 2722 021a 9918     		adds	r1, r3, r2
 716:/opt/XMClib/XMC_Peripheral_Library_v2.1.16/XMCLib/src/xmc_usbd.c **** 				}
 2723              		.loc 1 716 0
 2724 021c 436A     		ldr	r3, [r0, #36]
 715:/opt/XMClib/XMC_Peripheral_Library_v2.1.16/XMCLib/src/xmc_usbd.c ****           ep->xferBuffer += bytes;
 2725              		.loc 1 715 0
 2726 021e C162     		str	r1, [r0, #44]
 716:/opt/XMClib/XMC_Peripheral_Library_v2.1.16/XMCLib/src/xmc_usbd.c **** 				}
 2727              		.loc 1 716 0
 2728 0220 1A44     		add	r2, r2, r3
 2729              	.LVL289:
 2730 0222 4262     		str	r2, [r0, #36]
 2731 0224 C6E7     		b	.L242
 2732              	.L237:
 2733              	.LBE198:
 691:/opt/XMClib/XMC_Peripheral_Library_v2.1.16/XMCLib/src/xmc_usbd.c ****       {
 2734              		.loc 1 691 0
 2735 0226 0A07     		lsls	r2, r1, #28
 2736 0228 40F18181 		bpl	.L332
 694:/opt/XMClib/XMC_Peripheral_Library_v2.1.16/XMCLib/src/xmc_usbd.c ****         if(obj->usbd_transfer_mode == XMC_USBD_USE_DMA)
 2737              		.loc 1 694 0
 2738 022c 3423     		movs	r3, #52
 2739 022e 03FB064C 		mla	ip, r3, r6, r4
 701:/opt/XMClib/XMC_Peripheral_Library_v2.1.16/XMCLib/src/xmc_usbd.c **** 		{
 2740              		.loc 1 701 0
 2741 0232 0128     		cmp	r0, #1
 694:/opt/XMClib/XMC_Peripheral_Library_v2.1.16/XMCLib/src/xmc_usbd.c ****         if(obj->usbd_transfer_mode == XMC_USBD_USE_DMA)
 2742              		.loc 1 694 0
 2743 0234 9CF80430 		ldrb	r3, [ip, #4]	@ zero_extendqisi2
 2744 0238 6FF34513 		bfc	r3, #5, #1
 2745 023c 8CF80430 		strb	r3, [ip, #4]
 701:/opt/XMClib/XMC_Peripheral_Library_v2.1.16/XMCLib/src/xmc_usbd.c **** 		{
 2746              		.loc 1 701 0
 2747 0240 A1D1     		bne	.L247
 703:/opt/XMClib/XMC_Peripheral_Library_v2.1.16/XMCLib/src/xmc_usbd.c **** 		}
 2748              		.loc 1 703 0
 2749 0242 DCF81030 		ldr	r3, [ip, #16]
 2750 0246 DCF82C10 		ldr	r1, [ip, #44]
 2751 024a 0B44     		add	r3, r3, r1
 2752 024c CCF81030 		str	r3, [ip, #16]
 2753 0250 99E7     		b	.L247
 2754              	.L335:
 2755 0252 00BF     		.align	2
 2756              	.L334:
 2757 0254 00000000 		.word	xmc_device
 2758              	.LVL290:
 2759              	.L328:
 2760              	.LBE191:
 2761              	.LBE190:
 2762              	.LBB201:
 2763              	.LBB202:
 530:/opt/XMClib/XMC_Peripheral_Library_v2.1.16/XMCLib/src/xmc_usbd.c ****   dctl.b.rmtwkupsig = 1U;
 2764              		.loc 1 530 0
 2765 0258 D4F8A411 		ldr	r1, [r4, #420]
 2766 025c B64A     		ldr	r2, .L336
 2767              	.LVL291:
 2768 025e 4B68     		ldr	r3, [r1, #4]
 531:/opt/XMClib/XMC_Peripheral_Library_v2.1.16/XMCLib/src/xmc_usbd.c ****   xmc_device.device_register->dctl = dctl.d32;
 2769              		.loc 1 531 0
 2770 0260 43F00103 		orr	r3, r3, #1
 2771              	.LVL292:
 532:/opt/XMClib/XMC_Peripheral_Library_v2.1.16/XMCLib/src/xmc_usbd.c **** 
 2772              		.loc 1 532 0
 2773 0264 4B60     		str	r3, [r1, #4]
 2774              	.LVL293:
 2775 0266 02F11C07 		add	r7, r2, #28
 2776              	.LVL294:
 2777              	.L214:
 537:/opt/XMClib/XMC_Peripheral_Library_v2.1.16/XMCLib/src/xmc_usbd.c **** 		epctl.b.snak = 1U;
 2778              		.loc 1 537 0
 2779 026a 52F8040B 		ldr	r0, [r2], #4
 2780 026e 0368     		ldr	r3, [r0]
 2781              	.LVL295:
 538:/opt/XMClib/XMC_Peripheral_Library_v2.1.16/XMCLib/src/xmc_usbd.c **** 		epctl.b.stall = 0U;
 2782              		.loc 1 538 0
 2783 0270 43F00063 		orr	r3, r3, #134217728
 539:/opt/XMClib/XMC_Peripheral_Library_v2.1.16/XMCLib/src/xmc_usbd.c **** 		xmc_device.endpoint_out_register[i]->doepctl = epctl.d32;
 2784              		.loc 1 539 0
 2785 0274 6FF35553 		bfc	r3, #21, #1
 2786              	.LVL296:
 535:/opt/XMClib/XMC_Peripheral_Library_v2.1.16/XMCLib/src/xmc_usbd.c ****   {
 2787              		.loc 1 535 0
 2788 0278 9742     		cmp	r7, r2
 540:/opt/XMClib/XMC_Peripheral_Library_v2.1.16/XMCLib/src/xmc_usbd.c ****   }
 2789              		.loc 1 540 0
 2790 027a 0360     		str	r3, [r0]
 535:/opt/XMClib/XMC_Peripheral_Library_v2.1.16/XMCLib/src/xmc_usbd.c ****   {
 2791              		.loc 1 535 0
 2792 027c F5D1     		bne	.L214
 545:/opt/XMClib/XMC_Peripheral_Library_v2.1.16/XMCLib/src/xmc_usbd.c ****   /* Calculate the size of the tx fifo for ep 0 */  
 2793              		.loc 1 545 0
 2794 027e D4F8A031 		ldr	r3, [r4, #416]
 2795              	.LVL297:
 549:/opt/XMClib/XMC_Peripheral_Library_v2.1.16/XMCLib/src/xmc_usbd.c ****   xmc_device.global_register->gnptxfsiz = gnptxfsiz.d32;
 2796              		.loc 1 549 0
 2797 0282 AE48     		ldr	r0, .L336+4
 2798              	.LVL298:
 554:/opt/XMClib/XMC_Peripheral_Library_v2.1.16/XMCLib/src/xmc_usbd.c ****   }
 2799              		.loc 1 554 0
 2800 0284 AE4A     		ldr	r2, .L336+8
 2801 0286 AF4F     		ldr	r7, .L336+12
 545:/opt/XMClib/XMC_Peripheral_Library_v2.1.16/XMCLib/src/xmc_usbd.c ****   /* Calculate the size of the tx fifo for ep 0 */  
 2802              		.loc 1 545 0
 2803 0288 4FF0400C 		mov	ip, #64
 2804 028c C3F824C0 		str	ip, [r3, #36]
 2805              	.LVL299:
 550:/opt/XMClib/XMC_Peripheral_Library_v2.1.16/XMCLib/src/xmc_usbd.c ****   /* calculate the size for the rest */
 2806              		.loc 1 550 0
 2807 0290 9862     		str	r0, [r3, #40]
 2808              	.LVL300:
 554:/opt/XMClib/XMC_Peripheral_Library_v2.1.16/XMCLib/src/xmc_usbd.c ****   }
 2809              		.loc 1 554 0
 2810 0292 C3F80421 		str	r2, [r3, #260]
 2811              	.LVL301:
 2812 0296 3030     		adds	r0, r0, #48
 2813              	.LVL302:
 2814 0298 3032     		adds	r2, r2, #48
 2815 029a C3F80871 		str	r7, [r3, #264]
 2816              	.LVL303:
 2817 029e C3F80C01 		str	r0, [r3, #268]
 2818              	.LVL304:
 2819 02a2 3037     		adds	r7, r7, #48
 2820 02a4 C3F81021 		str	r2, [r3, #272]
 2821              	.LVL305:
 2822 02a8 3030     		adds	r0, r0, #48
 2823              	.LBB203:
 2824              	.LBB204:
 306:/opt/XMClib/XMC_Peripheral_Library_v2.1.16/XMCLib/src/xmc_usbd.c ****   /*flush fifo */
 2825              		.loc 1 306 0
 2826 02aa 0022     		movs	r2, #0
 2827              	.LBE204:
 2828              	.LBE203:
 554:/opt/XMClib/XMC_Peripheral_Library_v2.1.16/XMCLib/src/xmc_usbd.c ****   }
 2829              		.loc 1 554 0
 2830 02ac C3F81471 		str	r7, [r3, #276]
 2831              	.LVL306:
 2832 02b0 C3F81801 		str	r0, [r3, #280]
 2833              	.LVL307:
 2834              	.LBB206:
 2835              	.LBB205:
 306:/opt/XMClib/XMC_Peripheral_Library_v2.1.16/XMCLib/src/xmc_usbd.c ****   /*flush fifo */
 2836              		.loc 1 306 0
 2837 02b4 0B92     		str	r2, [sp, #44]
 308:/opt/XMClib/XMC_Peripheral_Library_v2.1.16/XMCLib/src/xmc_usbd.c ****   data.b.txfnum = fifo_num;
 2838              		.loc 1 308 0
 2839 02b6 0B9A     		ldr	r2, [sp, #44]
 2840 02b8 42F02002 		orr	r2, r2, #32
 2841 02bc 0B92     		str	r2, [sp, #44]
 309:/opt/XMClib/XMC_Peripheral_Library_v2.1.16/XMCLib/src/xmc_usbd.c ****   xmc_device.global_register->grstctl = data.d32;
 2842              		.loc 1 309 0
 2843 02be 0B9A     		ldr	r2, [sp, #44]
 2844 02c0 1020     		movs	r0, #16
 2845 02c2 60F38A12 		bfi	r2, r0, #6, #5
 2846 02c6 0B92     		str	r2, [sp, #44]
 310:/opt/XMClib/XMC_Peripheral_Library_v2.1.16/XMCLib/src/xmc_usbd.c ****   for (count = 0U;count < 1000U; count++){}
 2847              		.loc 1 310 0
 2848 02c8 0B9A     		ldr	r2, [sp, #44]
 2849 02ca 1A61     		str	r2, [r3, #16]
 2850              	.LVL308:
 2851              	.L215:
 314:/opt/XMClib/XMC_Peripheral_Library_v2.1.16/XMCLib/src/xmc_usbd.c ****   } while (data.b.txfflsh);
 2852              		.loc 1 314 0
 2853 02cc 1A69     		ldr	r2, [r3, #16]
 2854 02ce 0B92     		str	r2, [sp, #44]
 315:/opt/XMClib/XMC_Peripheral_Library_v2.1.16/XMCLib/src/xmc_usbd.c ****     count = 0U;
 2855              		.loc 1 315 0
 2856 02d0 0B9A     		ldr	r2, [sp, #44]
 2857 02d2 C2F34012 		ubfx	r2, r2, #5, #1
 2858 02d6 002A     		cmp	r2, #0
 2859 02d8 F8D1     		bne	.L215
 2860              	.LVL309:
 2861              	.LBE205:
 2862              	.LBE206:
 2863              	.LBB207:
 2864              	.LBB208:
 306:/opt/XMClib/XMC_Peripheral_Library_v2.1.16/XMCLib/src/xmc_usbd.c ****   /*flush fifo */
 2865              		.loc 1 306 0
 2866 02da 0C92     		str	r2, [sp, #48]
 308:/opt/XMClib/XMC_Peripheral_Library_v2.1.16/XMCLib/src/xmc_usbd.c ****   data.b.txfnum = fifo_num;
 2867              		.loc 1 308 0
 2868 02dc 0C98     		ldr	r0, [sp, #48]
 2869 02de 40F02000 		orr	r0, r0, #32
 2870 02e2 0C90     		str	r0, [sp, #48]
 309:/opt/XMClib/XMC_Peripheral_Library_v2.1.16/XMCLib/src/xmc_usbd.c ****   xmc_device.global_register->grstctl = data.d32;
 2871              		.loc 1 309 0
 2872 02e4 0C98     		ldr	r0, [sp, #48]
 2873 02e6 62F38A10 		bfi	r0, r2, #6, #5
 2874 02ea 0C90     		str	r0, [sp, #48]
 310:/opt/XMClib/XMC_Peripheral_Library_v2.1.16/XMCLib/src/xmc_usbd.c ****   for (count = 0U;count < 1000U; count++){}
 2875              		.loc 1 310 0
 2876 02ec 0C9A     		ldr	r2, [sp, #48]
 2877 02ee 1A61     		str	r2, [r3, #16]
 2878              	.LVL310:
 2879              	.L216:
 314:/opt/XMClib/XMC_Peripheral_Library_v2.1.16/XMCLib/src/xmc_usbd.c ****   } while (data.b.txfflsh);
 2880              		.loc 1 314 0
 2881 02f0 1A69     		ldr	r2, [r3, #16]
 2882 02f2 0C92     		str	r2, [sp, #48]
 315:/opt/XMClib/XMC_Peripheral_Library_v2.1.16/XMCLib/src/xmc_usbd.c ****     count = 0U;
 2883              		.loc 1 315 0
 2884 02f4 0C9A     		ldr	r2, [sp, #48]
 2885 02f6 C2F34012 		ubfx	r2, r2, #5, #1
 2886 02fa 002A     		cmp	r2, #0
 2887 02fc F8D1     		bne	.L216
 2888              	.LVL311:
 2889              	.LBE208:
 2890              	.LBE207:
 2891              	.LBB209:
 2892              	.LBB210:
 331:/opt/XMClib/XMC_Peripheral_Library_v2.1.16/XMCLib/src/xmc_usbd.c ****   data.b.rxfflsh = 1U;
 2893              		.loc 1 331 0
 2894 02fe 0D92     		str	r2, [sp, #52]
 332:/opt/XMClib/XMC_Peripheral_Library_v2.1.16/XMCLib/src/xmc_usbd.c ****   /* flush FIFO */
 2895              		.loc 1 332 0
 2896 0300 0D9A     		ldr	r2, [sp, #52]
 2897 0302 42F01002 		orr	r2, r2, #16
 2898 0306 0D92     		str	r2, [sp, #52]
 334:/opt/XMClib/XMC_Peripheral_Library_v2.1.16/XMCLib/src/xmc_usbd.c ****   do
 2899              		.loc 1 334 0
 2900 0308 0D9A     		ldr	r2, [sp, #52]
 2901 030a 1A61     		str	r2, [r3, #16]
 2902              	.L217:
 2903              	.LVL312:
 338:/opt/XMClib/XMC_Peripheral_Library_v2.1.16/XMCLib/src/xmc_usbd.c ****   } while (data.b.rxfflsh);
 2904              		.loc 1 338 0
 2905 030c 1A69     		ldr	r2, [r3, #16]
 2906 030e 0D92     		str	r2, [sp, #52]
 339:/opt/XMClib/XMC_Peripheral_Library_v2.1.16/XMCLib/src/xmc_usbd.c ****   count = 0U;
 2907              		.loc 1 339 0
 2908 0310 0D9A     		ldr	r2, [sp, #52]
 2909 0312 C2F30012 		ubfx	r2, r2, #4, #1
 2910 0316 002A     		cmp	r2, #0
 2911 0318 F8D1     		bne	.L217
 2912              	.LVL313:
 2913              	.LBE210:
 2914              	.LBE209:
 563:/opt/XMClib/XMC_Peripheral_Library_v2.1.16/XMCLib/src/xmc_usbd.c ****   daint.b.inep0 = 1U;
 2915              		.loc 1 563 0
 2916 031a 4FF00113 		mov	r3, #65537
 2917              	.LVL314:
 566:/opt/XMClib/XMC_Peripheral_Library_v2.1.16/XMCLib/src/xmc_usbd.c **** 
 2918              		.loc 1 566 0
 2919 031e CB61     		str	r3, [r1, #28]
 2920              	.LVL315:
 2921              	.LBB211:
 2922              	.LBB212:
1043:/opt/XMClib/XMC_Peripheral_Library_v2.1.16/XMCLib/src/xmc_usbd.c **** }
 2923              		.loc 1 1043 0
 2924 0320 4B69     		ldr	r3, [r1, #20]
 2925              	.LVL316:
 2926              	.LBE212:
 2927              	.LBE211:
 583:/opt/XMClib/XMC_Peripheral_Library_v2.1.16/XMCLib/src/xmc_usbd.c ****   {
 2928              		.loc 1 583 0
 2929 0322 99F80D00 		ldrb	r0, [r9, #13]	@ zero_extendqisi2
 2930              	.LBB214:
 2931              	.LBB213:
1043:/opt/XMClib/XMC_Peripheral_Library_v2.1.16/XMCLib/src/xmc_usbd.c **** }
 2932              		.loc 1 1043 0
 2933 0326 43F00F03 		orr	r3, r3, #15
 2934 032a 4B61     		str	r3, [r1, #20]
 2935              	.LVL317:
 2936              	.LBE213:
 2937              	.LBE214:
 2938              	.LBB215:
 2939              	.LBB216:
1053:/opt/XMClib/XMC_Peripheral_Library_v2.1.16/XMCLib/src/xmc_usbd.c **** }
 2940              		.loc 1 1053 0
 2941 032c 0B69     		ldr	r3, [r1, #16]
 2942 032e 43F00F03 		orr	r3, r3, #15
 2943 0332 0B61     		str	r3, [r1, #16]
 2944              	.LVL318:
 2945              	.LBE216:
 2946              	.LBE215:
 579:/opt/XMClib/XMC_Peripheral_Library_v2.1.16/XMCLib/src/xmc_usbd.c ****   dcfg.b.devaddr = 0U;
 2947              		.loc 1 579 0
 2948 0334 0B68     		ldr	r3, [r1]
 583:/opt/XMClib/XMC_Peripheral_Library_v2.1.16/XMCLib/src/xmc_usbd.c ****   {
 2949              		.loc 1 583 0
 2950 0336 0128     		cmp	r0, #1
 580:/opt/XMClib/XMC_Peripheral_Library_v2.1.16/XMCLib/src/xmc_usbd.c ****   xmc_device.device_register->dcfg = dcfg.d32;
 2951              		.loc 1 580 0
 2952 0338 62F30A13 		bfi	r3, r2, #4, #7
 2953              	.LVL319:
 581:/opt/XMClib/XMC_Peripheral_Library_v2.1.16/XMCLib/src/xmc_usbd.c **** 
 2954              		.loc 1 581 0
 2955 033c 0B60     		str	r3, [r1]
 586:/opt/XMClib/XMC_Peripheral_Library_v2.1.16/XMCLib/src/xmc_usbd.c ****   }
 2956              		.loc 1 586 0
 2957 033e 08BF     		it	eq
 2958 0340 4A63     		streq	r2, [r1, #52]
 589:/opt/XMClib/XMC_Peripheral_Library_v2.1.16/XMCLib/src/xmc_usbd.c ****   xmc_device.ep[0U].inInUse = 0U;
 2959              		.loc 1 589 0
 2960 0342 6368     		ldr	r3, [r4, #4]
 2961              	.LVL320:
 592:/opt/XMClib/XMC_Peripheral_Library_v2.1.16/XMCLib/src/xmc_usbd.c **** 
 2962              		.loc 1 592 0
 2963 0344 D4F80022 		ldr	r2, [r4, #512]
 589:/opt/XMClib/XMC_Peripheral_Library_v2.1.16/XMCLib/src/xmc_usbd.c ****   xmc_device.ep[0U].inInUse = 0U;
 2964              		.loc 1 589 0
 2965 0348 6FF30413 		bfc	r3, #4, #1
 2966 034c 6360     		str	r3, [r4, #4]
 590:/opt/XMClib/XMC_Peripheral_Library_v2.1.16/XMCLib/src/xmc_usbd.c **** 
 2967              		.loc 1 590 0
 2968 034e 6368     		ldr	r3, [r4, #4]
 2969 0350 6FF3C303 		bfc	r3, #3, #1
 2970 0354 6360     		str	r3, [r4, #4]
 592:/opt/XMClib/XMC_Peripheral_Library_v2.1.16/XMCLib/src/xmc_usbd.c **** 
 2971              		.loc 1 592 0
 2972 0356 0420     		movs	r0, #4
 2973 0358 9047     		blx	r2
 2974              	.LVL321:
 2975              	.LBB217:
 2976              	.LBB218:
1003:/opt/XMClib/XMC_Peripheral_Library_v2.1.16/XMCLib/src/xmc_usbd.c **** }
 2977              		.loc 1 1003 0
 2978 035a D4F8A031 		ldr	r3, [r4, #416]
 970:/opt/XMClib/XMC_Peripheral_Library_v2.1.16/XMCLib/src/xmc_usbd.c ****   switch(event)
 2979              		.loc 1 970 0
 2980 035e 4FF48052 		mov	r2, #4096
 2981              	.LBE218:
 2982              	.LBE217:
 2983              	.LBE202:
 2984              	.LBE201:
 915:/opt/XMClib/XMC_Peripheral_Library_v2.1.16/XMCLib/src/xmc_usbd.c ****   {
 2985              		.loc 1 915 0
 2986 0362 B606     		lsls	r6, r6, #26
 2987              	.LVL322:
 2988              	.LBB222:
 2989              	.LBB221:
 2990              	.LBB220:
 2991              	.LBB219:
1003:/opt/XMClib/XMC_Peripheral_Library_v2.1.16/XMCLib/src/xmc_usbd.c **** }
 2992              		.loc 1 1003 0
 2993 0364 5A61     		str	r2, [r3, #20]
 2994              	.LVL323:
 2995              	.LBE219:
 2996              	.LBE220:
 2997              	.LBE221:
 2998              	.LBE222:
 915:/opt/XMClib/XMC_Peripheral_Library_v2.1.16/XMCLib/src/xmc_usbd.c ****   {
 2999              		.loc 1 915 0
 3000 0366 7FF59FAE 		bpl	.L219
 3001              	.LVL324:
 3002              	.L329:
 3003              	.LBB223:
 3004              	.LBB224:
 628:/opt/XMClib/XMC_Peripheral_Library_v2.1.16/XMCLib/src/xmc_usbd.c ****   epctl.b.mps = 0x00U; /* 64 Byte, this is also automatically set for out ep */
 3005              		.loc 1 628 0
 3006 036a D4F8A821 		ldr	r2, [r4, #424]
 3007              	.LVL325:
 636:/opt/XMClib/XMC_Peripheral_Library_v2.1.16/XMCLib/src/xmc_usbd.c **** 
 3008              		.loc 1 636 0
 3009 036e D4F80012 		ldr	r1, [r4, #512]
 628:/opt/XMClib/XMC_Peripheral_Library_v2.1.16/XMCLib/src/xmc_usbd.c ****   epctl.b.mps = 0x00U; /* 64 Byte, this is also automatically set for out ep */
 3010              		.loc 1 628 0
 3011 0372 1368     		ldr	r3, [r2]
 629:/opt/XMClib/XMC_Peripheral_Library_v2.1.16/XMCLib/src/xmc_usbd.c ****   xmc_device.endpoint_in_register[0U]->diepctl = epctl.d32;
 3012              		.loc 1 629 0
 3013 0374 6FF30A03 		bfc	r3, #0, #11
 3014              	.LVL326:
 630:/opt/XMClib/XMC_Peripheral_Library_v2.1.16/XMCLib/src/xmc_usbd.c **** 
 3015              		.loc 1 630 0
 3016 0378 1360     		str	r3, [r2]
 633:/opt/XMClib/XMC_Peripheral_Library_v2.1.16/XMCLib/src/xmc_usbd.c ****   xmc_device.IsPowered = 1U;
 3017              		.loc 1 633 0
 3018 037a 94F8FE31 		ldrb	r3, [r4, #510]	@ zero_extendqisi2
 3019              	.LVL327:
 634:/opt/XMClib/XMC_Peripheral_Library_v2.1.16/XMCLib/src/xmc_usbd.c **** 
 3020              		.loc 1 634 0
 3021 037e 43F00503 		orr	r3, r3, #5
 3022 0382 84F8FE31 		strb	r3, [r4, #510]
 636:/opt/XMClib/XMC_Peripheral_Library_v2.1.16/XMCLib/src/xmc_usbd.c **** 
 3023              		.loc 1 636 0
 3024 0386 0220     		movs	r0, #2
 3025 0388 8847     		blx	r1
 3026              	.LVL328:
 639:/opt/XMClib/XMC_Peripheral_Library_v2.1.16/XMCLib/src/xmc_usbd.c ****   gusbcfg.b.usbtrdtim = 9U; /* default value for LS/FS */
 3027              		.loc 1 639 0
 3028 038a D4F8A021 		ldr	r2, [r4, #416]
 3029 038e D368     		ldr	r3, [r2, #12]
 640:/opt/XMClib/XMC_Peripheral_Library_v2.1.16/XMCLib/src/xmc_usbd.c ****   xmc_device.global_register->gusbcfg = gusbcfg.d32;
 3030              		.loc 1 640 0
 3031 0390 0921     		movs	r1, #9
 3032 0392 C5F3074A 		ubfx	r10, r5, #16, #8
 3033 0396 61F38D23 		bfi	r3, r1, #10, #4
 3034              	.LVL329:
 3035              	.LBE224:
 3036              	.LBE223:
 919:/opt/XMClib/XMC_Peripheral_Library_v2.1.16/XMCLib/src/xmc_usbd.c ****   {
 3037              		.loc 1 919 0
 3038 039a 1AF0040F 		tst	r10, #4
 3039              	.LBB230:
 3040              	.LBB229:
 3041              	.LBB225:
 3042              	.LBB226:
 970:/opt/XMClib/XMC_Peripheral_Library_v2.1.16/XMCLib/src/xmc_usbd.c ****   switch(event)
 3043              		.loc 1 970 0
 3044 039e 4FF40051 		mov	r1, #8192
 3045              	.LBE226:
 3046              	.LBE225:
 641:/opt/XMClib/XMC_Peripheral_Library_v2.1.16/XMCLib/src/xmc_usbd.c **** 
 3047              		.loc 1 641 0
 3048 03a2 D360     		str	r3, [r2, #12]
 3049              	.LVL330:
 3050              	.LBB228:
 3051              	.LBB227:
1003:/opt/XMClib/XMC_Peripheral_Library_v2.1.16/XMCLib/src/xmc_usbd.c **** }
 3052              		.loc 1 1003 0
 3053 03a4 5161     		str	r1, [r2, #20]
 3054              	.LVL331:
 3055              	.LBE227:
 3056              	.LBE228:
 3057              	.LBE229:
 3058              	.LBE230:
 919:/opt/XMClib/XMC_Peripheral_Library_v2.1.16/XMCLib/src/xmc_usbd.c ****   {
 3059              		.loc 1 919 0
 3060 03a6 3FF485AE 		beq	.L220
 3061              	.LVL332:
 3062              	.L330:
 3063              	.LBB231:
 3064              	.LBB232:
 759:/opt/XMClib/XMC_Peripheral_Library_v2.1.16/XMCLib/src/xmc_usbd.c ****   
 3065              		.loc 1 759 0
 3066 03aa D4F8A431 		ldr	r3, [r4, #420]
 3067              	.LVL333:
 3068 03ae 9A69     		ldr	r2, [r3, #24]
 3069              	.LVL334:
 761:/opt/XMClib/XMC_Peripheral_Library_v2.1.16/XMCLib/src/xmc_usbd.c ****   
 3070              		.loc 1 761 0
 3071 03b0 1B69     		ldr	r3, [r3, #16]
 3072 03b2 0093     		str	r3, [sp]
 3073              	.LVL335:
 3074 03b4 93B2     		uxth	r3, r2
 3075              	.LVL336:
 767:/opt/XMClib/XMC_Peripheral_Library_v2.1.16/XMCLib/src/xmc_usbd.c ****   {
 3076              		.loc 1 767 0
 3077 03b6 002B     		cmp	r3, #0
 3078 03b8 00F0B480 		beq	.L221
 765:/opt/XMClib/XMC_Peripheral_Library_v2.1.16/XMCLib/src/xmc_usbd.c ****   
 3079              		.loc 1 765 0
 3080 03bc 0026     		movs	r6, #0
 776:/opt/XMClib/XMC_Peripheral_Library_v2.1.16/XMCLib/src/xmc_usbd.c ****                      0x1U) << 7U) | (uint32_t)diepmsk.d32);
 3081              		.loc 1 776 0
 3082 03be CDE902BA 		strd	fp, r10, [sp, #8]
 767:/opt/XMClib/XMC_Peripheral_Library_v2.1.16/XMCLib/src/xmc_usbd.c ****   {
 3083              		.loc 1 767 0
 3084 03c2 B646     		mov	lr, r6
 776:/opt/XMClib/XMC_Peripheral_Library_v2.1.16/XMCLib/src/xmc_usbd.c ****                      0x1U) << 7U) | (uint32_t)diepmsk.d32);
 3085              		.loc 1 776 0
 3086 03c4 9B46     		mov	fp, r3
 3087              	.LVL337:
 3088              	.L233:
 771:/opt/XMClib/XMC_Peripheral_Library_v2.1.16/XMCLib/src/xmc_usbd.c ****     {
 3089              		.loc 1 771 0
 3090 03c6 DD07     		lsls	r5, r3, #31
 3091 03c8 40F1A380 		bpl	.L222
 3092              	.LVL338:
 776:/opt/XMClib/XMC_Peripheral_Library_v2.1.16/XMCLib/src/xmc_usbd.c ****                      0x1U) << 7U) | (uint32_t)diepmsk.d32);
 3093              		.loc 1 776 0
 3094 03cc 3423     		movs	r3, #52
 3095              	.LVL339:
 774:/opt/XMClib/XMC_Peripheral_Library_v2.1.16/XMCLib/src/xmc_usbd.c ****       diepint.d32 = inepint &
 3096              		.loc 1 774 0
 3097 03ce 0EF16A07 		add	r7, lr, #106
 776:/opt/XMClib/XMC_Peripheral_Library_v2.1.16/XMCLib/src/xmc_usbd.c ****                      0x1U) << 7U) | (uint32_t)diepmsk.d32);
 3098              		.loc 1 776 0
 3099 03d2 03FB0EF2 		mul	r2, r3, lr
 3100 03d6 D4F8A411 		ldr	r1, [r4, #420]
 3101              	.LVL340:
 774:/opt/XMClib/XMC_Peripheral_Library_v2.1.16/XMCLib/src/xmc_usbd.c ****       diepint.d32 = inepint &
 3102              		.loc 1 774 0
 3103 03da 54F82730 		ldr	r3, [r4, r7, lsl #2]
 776:/opt/XMClib/XMC_Peripheral_Library_v2.1.16/XMCLib/src/xmc_usbd.c ****                      0x1U) << 7U) | (uint32_t)diepmsk.d32);
 3104              		.loc 1 776 0
 3105 03de 14F80280 		ldrb	r8, [r4, r2]	@ zero_extendqisi2
 774:/opt/XMClib/XMC_Peripheral_Library_v2.1.16/XMCLib/src/xmc_usbd.c ****       diepint.d32 = inepint &
 3106              		.loc 1 774 0
 3107 03e2 D3F808C0 		ldr	ip, [r3, #8]
 3108              	.LVL341:
 776:/opt/XMClib/XMC_Peripheral_Library_v2.1.16/XMCLib/src/xmc_usbd.c ****                      0x1U) << 7U) | (uint32_t)diepmsk.d32);
 3109              		.loc 1 776 0
 3110 03e6 4D6B     		ldr	r5, [r1, #52]
 777:/opt/XMClib/XMC_Peripheral_Library_v2.1.16/XMCLib/src/xmc_usbd.c ****       if(obj->usbd_transfer_mode == XMC_USBD_USE_DMA)
 3111              		.loc 1 777 0
 3112 03e8 0098     		ldr	r0, [sp]
 776:/opt/XMClib/XMC_Peripheral_Library_v2.1.16/XMCLib/src/xmc_usbd.c ****                      0x1U) << 7U) | (uint32_t)diepmsk.d32);
 3113              		.loc 1 776 0
 3114 03ea 0191     		str	r1, [sp, #4]
 3115 03ec 08F00F08 		and	r8, r8, #15
 3116 03f0 25FA08F5 		lsr	r5, r5, r8
 777:/opt/XMClib/XMC_Peripheral_Library_v2.1.16/XMCLib/src/xmc_usbd.c ****       if(obj->usbd_transfer_mode == XMC_USBD_USE_DMA)
 3117              		.loc 1 777 0
 3118 03f4 ED01     		lsls	r5, r5, #7
 3119 03f6 EDB2     		uxtb	r5, r5
 3120 03f8 0543     		orrs	r5, r5, r0
 778:/opt/XMClib/XMC_Peripheral_Library_v2.1.16/XMCLib/src/xmc_usbd.c ****       {
 3121              		.loc 1 778 0
 3122 03fa 99F80D10 		ldrb	r1, [r9, #13]	@ zero_extendqisi2
 775:/opt/XMClib/XMC_Peripheral_Library_v2.1.16/XMCLib/src/xmc_usbd.c ****       ((((uint32_t)((uint32_t)xmc_device.device_register->dtknqr4_fifoemptymsk >> ep->address_u.add
 3123              		.loc 1 775 0
 3124 03fe 05EA0C05 		and	r5, r5, ip
 3125              	.LVL342:
 776:/opt/XMClib/XMC_Peripheral_Library_v2.1.16/XMCLib/src/xmc_usbd.c ****                      0x1U) << 7U) | (uint32_t)diepmsk.d32);
 3126              		.loc 1 776 0
 3127 0402 2244     		add	r2, r2, r4
 3128 0404 05F0010C 		and	ip, r5, #1
 3129              	.LVL343:
 778:/opt/XMClib/XMC_Peripheral_Library_v2.1.16/XMCLib/src/xmc_usbd.c ****       {
 3130              		.loc 1 778 0
 3131 0408 09BB     		cbnz	r1, .L223
 780:/opt/XMClib/XMC_Peripheral_Library_v2.1.16/XMCLib/src/xmc_usbd.c ****       }
 3132              		.loc 1 780 0
 3133 040a 1969     		ldr	r1, [r3, #16]
 3134              	.LVL344:
 792:/opt/XMClib/XMC_Peripheral_Library_v2.1.16/XMCLib/src/xmc_usbd.c ****       {
 3135              		.loc 1 792 0
 3136 040c BCF1000F 		cmp	ip, #0
 3137 0410 7ED0     		beq	.L225
 797:/opt/XMClib/XMC_Peripheral_Library_v2.1.16/XMCLib/src/xmc_usbd.c ****           {
 3138              		.loc 1 797 0
 3139 0412 31F06043 		bics	r3, r1, #-536870912
 3140 0416 06D1     		bne	.L230
 3141              	.LBB233:
 799:/opt/XMClib/XMC_Peripheral_Library_v2.1.16/XMCLib/src/xmc_usbd.c ****             ep->xferCount += Bytes;
 3142              		.loc 1 799 0
 3143 0418 D2E90A10 		ldrd	r1, r0, [r2, #40]
 3144              	.LVL345:
 801:/opt/XMClib/XMC_Peripheral_Library_v2.1.16/XMCLib/src/xmc_usbd.c ****           }
 3145              		.loc 1 801 0
 3146 041c 536A     		ldr	r3, [r2, #36]
 800:/opt/XMClib/XMC_Peripheral_Library_v2.1.16/XMCLib/src/xmc_usbd.c ****             ep->xferBuffer += Bytes;
 3147              		.loc 1 800 0
 3148 041e D162     		str	r1, [r2, #44]
 799:/opt/XMClib/XMC_Peripheral_Library_v2.1.16/XMCLib/src/xmc_usbd.c ****             ep->xferCount += Bytes;
 3149              		.loc 1 799 0
 3150 0420 091A     		subs	r1, r1, r0
 3151              	.LVL346:
 801:/opt/XMClib/XMC_Peripheral_Library_v2.1.16/XMCLib/src/xmc_usbd.c ****           }
 3152              		.loc 1 801 0
 3153 0422 1944     		add	r1, r1, r3
 3154              	.LVL347:
 3155 0424 5162     		str	r1, [r2, #36]
 3156              	.LVL348:
 3157              	.L230:
 3158              	.LBE233:
 804:/opt/XMClib/XMC_Peripheral_Library_v2.1.16/XMCLib/src/xmc_usbd.c ****         {
 3159              		.loc 1 804 0
 3160 0426 3423     		movs	r3, #52
 3161 0428 03FB0E41 		mla	r1, r3, lr, r4
 3162 042c 0A6B     		ldr	r2, [r1, #48]
 3163 042e 8B6A     		ldr	r3, [r1, #40]
 3164 0430 9A42     		cmp	r2, r3
 3165 0432 66D1     		bne	.L231
 806:/opt/XMClib/XMC_Peripheral_Library_v2.1.16/XMCLib/src/xmc_usbd.c ****           if(obj->usbd_transfer_mode == XMC_USBD_USE_FIFO)
 3166              		.loc 1 806 0
 3167 0434 4B68     		ldr	r3, [r1, #4]
 3168 0436 6FF3C303 		bfc	r3, #3, #1
 3169 043a 4B60     		str	r3, [r1, #4]
 3170              	.LVL349:
 3171              	.L232:
 813:/opt/XMClib/XMC_Peripheral_Library_v2.1.16/XMCLib/src/xmc_usbd.c ****         }
 3172              		.loc 1 813 0
 3173 043c D4F80432 		ldr	r3, [r4, #516]
 3174 0440 0221     		movs	r1, #2
 3175 0442 46F08000 		orr	r0, r6, #128
 3176 0446 9847     		blx	r3
 3177              	.LVL350:
 3178 0448 54F82730 		ldr	r3, [r4, r7, lsl #2]
 3179 044c 60E0     		b	.L225
 3180              	.LVL351:
 3181              	.L223:
 782:/opt/XMClib/XMC_Peripheral_Library_v2.1.16/XMCLib/src/xmc_usbd.c ****       {
 3182              		.loc 1 782 0
 3183 044e 0129     		cmp	r1, #1
 3184 0450 4BD1     		bne	.L226
 784:/opt/XMClib/XMC_Peripheral_Library_v2.1.16/XMCLib/src/xmc_usbd.c ****         {
 3185              		.loc 1 784 0
 3186 0452 2806     		lsls	r0, r5, #24
 3187 0454 49D5     		bpl	.L226
 3188              	.LVL352:
 3189              	.LBB234:
 3190              	.LBB235:
 3191              	.LBB236:
 267:/opt/XMClib/XMC_Peripheral_Library_v2.1.16/XMCLib/src/xmc_usbd.c ****   /* calculate the length and the amount of dwords to copy based on the fifo status */
 3192              		.loc 1 267 0
 3193 0456 08F16A0A 		add	r10, r8, #106
 269:/opt/XMClib/XMC_Peripheral_Library_v2.1.16/XMCLib/src/xmc_usbd.c ****   if (!byte_count)
 3194              		.loc 1 269 0
 3195 045a D06A     		ldr	r0, [r2, #44]
 3196 045c 926A     		ldr	r2, [r2, #40]
 3197              	.LVL353:
 267:/opt/XMClib/XMC_Peripheral_Library_v2.1.16/XMCLib/src/xmc_usbd.c ****   /* calculate the length and the amount of dwords to copy based on the fifo status */
 3198              		.loc 1 267 0
 3199 045e 54F82AA0 		ldr	r10, [r4, r10, lsl #2]
 269:/opt/XMClib/XMC_Peripheral_Library_v2.1.16/XMCLib/src/xmc_usbd.c ****   if (!byte_count)
 3200              		.loc 1 269 0
 3201 0462 0490     		str	r0, [sp, #16]
 270:/opt/XMClib/XMC_Peripheral_Library_v2.1.16/XMCLib/src/xmc_usbd.c ****   {
 3202              		.loc 1 270 0
 3203 0464 121A     		subs	r2, r2, r0
 3204              	.LVL354:
 267:/opt/XMClib/XMC_Peripheral_Library_v2.1.16/XMCLib/src/xmc_usbd.c ****   /* calculate the length and the amount of dwords to copy based on the fifo status */
 3205              		.loc 1 267 0
 3206 0466 DAF818A0 		ldr	r10, [r10, #24]
 270:/opt/XMClib/XMC_Peripheral_Library_v2.1.16/XMCLib/src/xmc_usbd.c ****   {
 3207              		.loc 1 270 0
 3208 046a 0592     		str	r2, [sp, #20]
 3209 046c 2FD0     		beq	.L227
 277:/opt/XMClib/XMC_Peripheral_Library_v2.1.16/XMCLib/src/xmc_usbd.c ****     if (word_count > (uint32_t)freeSpace.b.txfspcavail )
 3210              		.loc 1 277 0
 3211 046e 0332     		adds	r2, r2, #3
 3212              	.LVL355:
 3213 0470 1FFA8AF0 		uxth	r0, r10
 3214 0474 4FEA920A 		lsr	r10, r2, #2
 3215              	.LVL356:
 278:/opt/XMClib/XMC_Peripheral_Library_v2.1.16/XMCLib/src/xmc_usbd.c ****     {
 3216              		.loc 1 278 0
 3217 0478 5045     		cmp	r0, r10
 3218 047a 0246     		mov	r2, r0
 3219 047c 02D2     		bcs	.L228
 3220              	.LVL357:
 281:/opt/XMClib/XMC_Peripheral_Library_v2.1.16/XMCLib/src/xmc_usbd.c ****     }
 3221              		.loc 1 281 0
 3222 047e 8000     		lsls	r0, r0, #2
 3223 0480 0590     		str	r0, [sp, #20]
 3224              	.LVL358:
 3225 0482 9246     		mov	r10, r2
 3226              	.LVL359:
 3227              	.L228:
 285:/opt/XMClib/XMC_Peripheral_Library_v2.1.16/XMCLib/src/xmc_usbd.c ****     {
 3228              		.loc 1 285 0
 3229 0484 BAF1000F 		cmp	r10, #0
 3230 0488 21D0     		beq	.L227
 3231 048a 3422     		movs	r2, #52
 3232 048c 02FB0E40 		mla	r0, r2, lr, r4
 266:/opt/XMClib/XMC_Peripheral_Library_v2.1.16/XMCLib/src/xmc_usbd.c ****   freeSpace.d32 = xmc_device.endpoint_in_register[ep->address_u.address_st.number]->dtxfsts;
 3233              		.loc 1 266 0
 3234 0490 08F17808 		add	r8, r8, #120
 3235              	.LVL360:
 3236 0494 0490     		str	r0, [sp, #16]
 3237 0496 54F82820 		ldr	r2, [r4, r8, lsl #2]
 3238 049a 0790     		str	r0, [sp, #28]
 3239 049c 406A     		ldr	r0, [r0, #36]
 3240 049e 0690     		str	r0, [sp, #24]
 3241 04a0 00EB8A0A 		add	r10, r0, r10, lsl #2
 3242              	.LVL361:
 285:/opt/XMClib/XMC_Peripheral_Library_v2.1.16/XMCLib/src/xmc_usbd.c ****     {
 3243              		.loc 1 285 0
 3244 04a4 CDE908E3 		strd	lr, r3, [sp, #32]
 3245 04a8 0198     		ldr	r0, [sp, #4]
 3246 04aa DDF81080 		ldr	r8, [sp, #16]
 3247              	.LVL362:
 3248 04ae 9646     		mov	lr, r2
 3249              	.LVL363:
 3250 04b0 069A     		ldr	r2, [sp, #24]
 3251              	.LVL364:
 3252              	.L229:
 287:/opt/XMClib/XMC_Peripheral_Library_v2.1.16/XMCLib/src/xmc_usbd.c ****       i++;
 3253              		.loc 1 287 0
 3254 04b2 52F8043B 		ldr	r3, [r2], #4
 3255 04b6 CEF80030 		str	r3, [lr]
 285:/opt/XMClib/XMC_Peripheral_Library_v2.1.16/XMCLib/src/xmc_usbd.c ****     {
 3256              		.loc 1 285 0
 3257 04ba 5245     		cmp	r2, r10
 3258 04bc C8F82420 		str	r2, [r8, #36]
 3259 04c0 F7D1     		bne	.L229
 3260 04c2 079A     		ldr	r2, [sp, #28]
 3261 04c4 0190     		str	r0, [sp, #4]
 3262 04c6 DDE908E3 		ldrd	lr, r3, [sp, #32]
 3263 04ca D26A     		ldr	r2, [r2, #44]
 3264 04cc 0492     		str	r2, [sp, #16]
 3265              	.LVL365:
 3266              	.L227:
 3267              	.LBE236:
 3268              	.LBE235:
 788:/opt/XMClib/XMC_Peripheral_Library_v2.1.16/XMCLib/src/xmc_usbd.c ****           ep->xferBuffer += bytes;
 3269              		.loc 1 788 0
 3270 04ce 3422     		movs	r2, #52
 3271 04d0 02FB0E4A 		mla	r10, r2, lr, r4
 3272 04d4 049A     		ldr	r2, [sp, #16]
 3273 04d6 0598     		ldr	r0, [sp, #20]
 3274 04d8 9046     		mov	r8, r2
 789:/opt/XMClib/XMC_Peripheral_Library_v2.1.16/XMCLib/src/xmc_usbd.c ****         }
 3275              		.loc 1 789 0
 3276 04da DAF82420 		ldr	r2, [r10, #36]
 788:/opt/XMClib/XMC_Peripheral_Library_v2.1.16/XMCLib/src/xmc_usbd.c ****           ep->xferBuffer += bytes;
 3277              		.loc 1 788 0
 3278 04de 8044     		add	r8, r8, r0
 789:/opt/XMClib/XMC_Peripheral_Library_v2.1.16/XMCLib/src/xmc_usbd.c ****         }
 3279              		.loc 1 789 0
 3280 04e0 0244     		add	r2, r2, r0
 788:/opt/XMClib/XMC_Peripheral_Library_v2.1.16/XMCLib/src/xmc_usbd.c ****           ep->xferBuffer += bytes;
 3281              		.loc 1 788 0
 3282 04e2 CAF82C80 		str	r8, [r10, #44]
 789:/opt/XMClib/XMC_Peripheral_Library_v2.1.16/XMCLib/src/xmc_usbd.c ****         }
 3283              		.loc 1 789 0
 3284 04e6 CAF82420 		str	r2, [r10, #36]
 3285              	.L226:
 3286              	.LBE234:
 792:/opt/XMClib/XMC_Peripheral_Library_v2.1.16/XMCLib/src/xmc_usbd.c ****       {
 3287              		.loc 1 792 0
 3288 04ea BCF1000F 		cmp	ip, #0
 3289 04ee 0FD0     		beq	.L225
 804:/opt/XMClib/XMC_Peripheral_Library_v2.1.16/XMCLib/src/xmc_usbd.c ****         {
 3290              		.loc 1 804 0
 3291 04f0 3423     		movs	r3, #52
 3292 04f2 03FB0E4C 		mla	ip, r3, lr, r4
 3293 04f6 DCF83020 		ldr	r2, [ip, #48]
 3294 04fa DCF82830 		ldr	r3, [ip, #40]
 3295 04fe 9A42     		cmp	r2, r3
 3296 0500 22D0     		beq	.L333
 3297              	.L231:
 818:/opt/XMClib/XMC_Peripheral_Library_v2.1.16/XMCLib/src/xmc_usbd.c ****         }
 3298              		.loc 1 818 0
 3299 0502 3423     		movs	r3, #52
 3300 0504 03FB0E40 		mla	r0, r3, lr, r4
 3301 0508 FFF7FEFF 		bl	XMC_USBD_lStartWriteXfer
 3302              	.LVL366:
 3303 050c 54F82730 		ldr	r3, [r4, r7, lsl #2]
 3304              	.L225:
 3305              	.LVL367:
 3306              	.LBB237:
 3307              	.LBB238:
1023:/opt/XMClib/XMC_Peripheral_Library_v2.1.16/XMCLib/src/xmc_usbd.c **** }
 3308              		.loc 1 1023 0
 3309 0510 9D60     		str	r5, [r3, #8]
 3310              	.LVL368:
 3311              	.L222:
 3312              	.LBE238:
 3313              	.LBE237:
 825:/opt/XMClib/XMC_Peripheral_Library_v2.1.16/XMCLib/src/xmc_usbd.c ****   }
 3314              		.loc 1 825 0
 3315 0512 0136     		adds	r6, r6, #1
 3316              	.LVL369:
 3317 0514 F6B2     		uxtb	r6, r6
 3318              	.LVL370:
 767:/opt/XMClib/XMC_Peripheral_Library_v2.1.16/XMCLib/src/xmc_usbd.c ****   {
 3319              		.loc 1 767 0
 3320 0516 5BFA06F3 		asrs	r3, fp, r6
 3321 051a B646     		mov	lr, r6
 3322 051c 7FF453AF 		bne	.L233
 3323 0520 DDE902BA 		ldrd	fp, r10, [sp, #8]
 3324              	.LVL371:
 3325              	.L221:
 3326              	.LBB239:
 3327              	.LBB240:
1003:/opt/XMClib/XMC_Peripheral_Library_v2.1.16/XMCLib/src/xmc_usbd.c **** }
 3328              		.loc 1 1003 0
 3329 0524 D4F8A031 		ldr	r3, [r4, #416]
 3330 0528 0022     		movs	r2, #0
 3331 052a 5A61     		str	r2, [r3, #20]
 3332              	.LVL372:
 3333 052c C2E5     		b	.L220
 3334              	.LVL373:
 3335              	.L332:
 3336              	.LBE240:
 3337              	.LBE239:
 3338              	.LBE232:
 3339              	.LBE231:
 3340              	.LBB242:
 3341              	.LBB199:
 710:/opt/XMClib/XMC_Peripheral_Library_v2.1.16/XMCLib/src/xmc_usbd.c ****       {
 3342              		.loc 1 710 0
 3343 052e BBF1000F 		cmp	fp, #0
 3344 0532 7FF43FAE 		bne	.L242
 3345 0536 54E6     		b	.L240
 3346              	.L337:
 3347              		.align	2
 3348              	.L336:
 3349 0538 C4010000 		.word	xmc_device+452
 3350 053c 40001000 		.word	1048640
 3351 0540 50001000 		.word	1048656
 3352 0544 60001000 		.word	1048672
 3353              	.LVL374:
 3354              	.L333:
 3355              	.LBE199:
 3356              	.LBE242:
 3357              	.LBB243:
 3358              	.LBB241:
 806:/opt/XMClib/XMC_Peripheral_Library_v2.1.16/XMCLib/src/xmc_usbd.c ****           if(obj->usbd_transfer_mode == XMC_USBD_USE_FIFO)
 3359              		.loc 1 806 0
 3360 0548 DCF80430 		ldr	r3, [ip, #4]
 807:/opt/XMClib/XMC_Peripheral_Library_v2.1.16/XMCLib/src/xmc_usbd.c ****           {
 3361              		.loc 1 807 0
 3362 054c 0129     		cmp	r1, #1
 806:/opt/XMClib/XMC_Peripheral_Library_v2.1.16/XMCLib/src/xmc_usbd.c ****           if(obj->usbd_transfer_mode == XMC_USBD_USE_FIFO)
 3363              		.loc 1 806 0
 3364 054e 6FF3C303 		bfc	r3, #3, #1
 3365 0552 CCF80430 		str	r3, [ip, #4]
 807:/opt/XMClib/XMC_Peripheral_Library_v2.1.16/XMCLib/src/xmc_usbd.c ****           {
 3366              		.loc 1 807 0
 3367 0556 7FF471AF 		bne	.L232
 811:/opt/XMClib/XMC_Peripheral_Library_v2.1.16/XMCLib/src/xmc_usbd.c ****           }
 3368              		.loc 1 811 0
 3369 055a 019A     		ldr	r2, [sp, #4]
 3370 055c 536B     		ldr	r3, [r2, #52]
 3371 055e 01FA0EF1 		lsl	r1, r1, lr
 3372 0562 23EA0101 		bic	r1, r3, r1
 810:/opt/XMClib/XMC_Peripheral_Library_v2.1.16/XMCLib/src/xmc_usbd.c ****             (uint32_t)(xmc_device.device_register->dtknqr4_fifoemptymsk & ~(((uint32_t)1U << ep_num
 3373              		.loc 1 810 0
 3374 0566 5163     		str	r1, [r2, #52]
 3375 0568 68E7     		b	.L232
 3376              	.LVL375:
 3377              	.L208:
 3378              	.LBE241:
 3379              	.LBE243:
 3380              	.LBB244:
 3381              	.LBB189:
 847:/opt/XMClib/XMC_Peripheral_Library_v2.1.16/XMCLib/src/xmc_usbd.c ****       break;
 3382              		.loc 1 847 0
 3383 056a C0F30A11 		ubfx	r1, r0, #4, #11
 3384 056e 00F00F00 		and	r0, r0, #15
 3385              	.LVL376:
 3386 0572 FFF7FEFF 		bl	XMC_USBD_lReadFifo
 3387              	.LVL377:
 3388 0576 D4F8A031 		ldr	r3, [r4, #416]
 3389 057a C7E5     		b	.L207
 3390              	.LVL378:
 3391              	.L243:
 3392 057c 04EB8A0A 		add	r10, r4, r10, lsl #2
 3393              	.LBE189:
 3394              	.LBE244:
 3395              	.LBB245:
 3396              	.LBB200:
 726:/opt/XMClib/XMC_Peripheral_Library_v2.1.16/XMCLib/src/xmc_usbd.c ****         }
 3397              		.loc 1 726 0
 3398 0580 FFF7FEFF 		bl	XMC_USBD_lStartReadXfer
 3399              	.LVL379:
 3400 0584 DAF80430 		ldr	r3, [r10, #4]
 3401 0588 2BE6     		b	.L240
 3402              	.LBE200:
 3403              	.LBE245:
 3404              		.cfi_endproc
 3405              	.LFE177:
 3407 058a 00BF     		.section	.text.XMC_USBD_Enable,"ax",%progbits
 3408              		.align	1
 3409              		.p2align 2,,3
 3410              		.global	XMC_USBD_Enable
 3411              		.syntax unified
 3412              		.thumb
 3413              		.thumb_func
 3414              		.fpu fpv4-sp-d16
 3416              	XMC_USBD_Enable:
 3417              	.LFB178:
 942:/opt/XMClib/XMC_Peripheral_Library_v2.1.16/XMCLib/src/xmc_usbd.c **** #if defined(CLOCK_GATING_SUPPORTED)
 3418              		.loc 1 942 0
 3419              		.cfi_startproc
 3420              		@ args = 0, pretend = 0, frame = 0
 3421              		@ frame_needed = 0, uses_anonymous_args = 0
 3422 0000 08B5     		push	{r3, lr}
 3423              	.LCFI33:
 3424              		.cfi_def_cfa_offset 8
 3425              		.cfi_offset 3, -8
 3426              		.cfi_offset 14, -4
 947:/opt/XMClib/XMC_Peripheral_Library_v2.1.16/XMCLib/src/xmc_usbd.c ****   XMC_SCU_POWER_EnableUsb();
 3427              		.loc 1 947 0
 3428 0002 0348     		ldr	r0, .L340
 3429 0004 FFF7FEFF 		bl	XMC_SCU_RESET_DeassertPeripheralReset
 3430              	.LVL380:
 949:/opt/XMClib/XMC_Peripheral_Library_v2.1.16/XMCLib/src/xmc_usbd.c **** 
 3431              		.loc 1 949 0
 3432 0008 BDE80840 		pop	{r3, lr}
 3433              	.LCFI34:
 3434              		.cfi_restore 14
 3435              		.cfi_restore 3
 3436              		.cfi_def_cfa_offset 0
 948:/opt/XMClib/XMC_Peripheral_Library_v2.1.16/XMCLib/src/xmc_usbd.c **** }
 3437              		.loc 1 948 0
 3438 000c FFF7FEBF 		b	XMC_SCU_POWER_EnableUsb
 3439              	.LVL381:
 3440              	.L341:
 3441              		.align	2
 3442              	.L340:
 3443 0010 80000020 		.word	536871040
 3444              		.cfi_endproc
 3445              	.LFE178:
 3447              		.section	.text.XMC_USBD_Disable,"ax",%progbits
 3448              		.align	1
 3449              		.p2align 2,,3
 3450              		.global	XMC_USBD_Disable
 3451              		.syntax unified
 3452              		.thumb
 3453              		.thumb_func
 3454              		.fpu fpv4-sp-d16
 3456              	XMC_USBD_Disable:
 3457              	.LFB179:
 955:/opt/XMClib/XMC_Peripheral_Library_v2.1.16/XMCLib/src/xmc_usbd.c ****   /* Clear Reset and power up */
 3458              		.loc 1 955 0
 3459              		.cfi_startproc
 3460              		@ args = 0, pretend = 0, frame = 0
 3461              		@ frame_needed = 0, uses_anonymous_args = 0
 3462 0000 08B5     		push	{r3, lr}
 3463              	.LCFI35:
 3464              		.cfi_def_cfa_offset 8
 3465              		.cfi_offset 3, -8
 3466              		.cfi_offset 14, -4
 957:/opt/XMClib/XMC_Peripheral_Library_v2.1.16/XMCLib/src/xmc_usbd.c **** #if defined(CLOCK_GATING_SUPPORTED)
 3467              		.loc 1 957 0
 3468 0002 0348     		ldr	r0, .L344
 3469 0004 FFF7FEFF 		bl	XMC_SCU_RESET_AssertPeripheralReset
 3470              	.LVL382:
 962:/opt/XMClib/XMC_Peripheral_Library_v2.1.16/XMCLib/src/xmc_usbd.c **** 
 3471              		.loc 1 962 0
 3472 0008 BDE80840 		pop	{r3, lr}
 3473              	.LCFI36:
 3474              		.cfi_restore 14
 3475              		.cfi_restore 3
 3476              		.cfi_def_cfa_offset 0
 961:/opt/XMClib/XMC_Peripheral_Library_v2.1.16/XMCLib/src/xmc_usbd.c **** }
 3477              		.loc 1 961 0
 3478 000c FFF7FEBF 		b	XMC_SCU_POWER_DisableUsb
 3479              	.LVL383:
 3480              	.L345:
 3481              		.align	2
 3482              	.L344:
 3483 0010 80000020 		.word	536871040
 3484              		.cfi_endproc
 3485              	.LFE179:
 3487              		.section	.text.XMC_USBD_ClearEvent,"ax",%progbits
 3488              		.align	1
 3489              		.p2align 2,,3
 3490              		.global	XMC_USBD_ClearEvent
 3491              		.syntax unified
 3492              		.thumb
 3493              		.thumb_func
 3494              		.fpu fpv4-sp-d16
 3496              	XMC_USBD_ClearEvent:
 3497              	.LFB180:
 968:/opt/XMClib/XMC_Peripheral_Library_v2.1.16/XMCLib/src/xmc_usbd.c ****   gintsts_data_t clear;
 3498              		.loc 1 968 0
 3499              		.cfi_startproc
 3500              		@ args = 0, pretend = 0, frame = 0
 3501              		@ frame_needed = 0, uses_anonymous_args = 0
 3502              		@ link register save eliminated.
 3503              	.LVL384:
 971:/opt/XMClib/XMC_Peripheral_Library_v2.1.16/XMCLib/src/xmc_usbd.c ****   {
 3504              		.loc 1 971 0
 3505 0000 0D28     		cmp	r0, #13
 3506 0002 3FD8     		bhi	.L357
 3507 0004 DFE800F0 		tbb	[pc, r0]
 3508              	.L349:
 3509 0008 30       		.byte	(.L348-.L349)/2
 3510 0009 3E       		.byte	(.L357-.L349)/2
 3511 000a 3E       		.byte	(.L357-.L349)/2
 3512 000b 3E       		.byte	(.L357-.L349)/2
 3513 000c 37       		.byte	(.L350-.L349)/2
 3514 000d 3E       		.byte	(.L357-.L349)/2
 3515 000e 0E       		.byte	(.L351-.L349)/2
 3516 000f 07       		.byte	(.L352-.L349)/2
 3517 0010 07       		.byte	(.L352-.L349)/2
 3518 0011 1C       		.byte	(.L353-.L349)/2
 3519 0012 22       		.byte	(.L354-.L349)/2
 3520 0013 29       		.byte	(.L355-.L349)/2
 3521 0014 3E       		.byte	(.L357-.L349)/2
 3522 0015 15       		.byte	(.L356-.L349)/2
 3523              		.p2align 1
 3524              	.L352:
 983:/opt/XMClib/XMC_Peripheral_Library_v2.1.16/XMCLib/src/xmc_usbd.c **** 	  break;
 3525              		.loc 1 983 0
 3526 0016 4FF00042 		mov	r2, #-2147483648
 3527              	.L347:
1003:/opt/XMClib/XMC_Peripheral_Library_v2.1.16/XMCLib/src/xmc_usbd.c **** }
 3528              		.loc 1 1003 0
 3529 001a 1B4B     		ldr	r3, .L358
 3530 001c D3F8A031 		ldr	r3, [r3, #416]
 3531 0020 5A61     		str	r2, [r3, #20]
1004:/opt/XMClib/XMC_Peripheral_Library_v2.1.16/XMCLib/src/xmc_usbd.c **** 
 3532              		.loc 1 1004 0
 3533 0022 7047     		bx	lr
 3534              	.L351:
1003:/opt/XMClib/XMC_Peripheral_Library_v2.1.16/XMCLib/src/xmc_usbd.c **** }
 3535              		.loc 1 1003 0
 3536 0024 184B     		ldr	r3, .L358
 3537 0026 D3F8A031 		ldr	r3, [r3, #416]
 980:/opt/XMClib/XMC_Peripheral_Library_v2.1.16/XMCLib/src/xmc_usbd.c **** 	  break;
 3538              		.loc 1 980 0
 3539 002a 4FF40062 		mov	r2, #2048
1003:/opt/XMClib/XMC_Peripheral_Library_v2.1.16/XMCLib/src/xmc_usbd.c **** }
 3540              		.loc 1 1003 0
 3541 002e 5A61     		str	r2, [r3, #20]
1004:/opt/XMClib/XMC_Peripheral_Library_v2.1.16/XMCLib/src/xmc_usbd.c **** 
 3542              		.loc 1 1004 0
 3543 0030 7047     		bx	lr
 3544              	.L356:
1003:/opt/XMClib/XMC_Peripheral_Library_v2.1.16/XMCLib/src/xmc_usbd.c **** }
 3545              		.loc 1 1003 0
 3546 0032 154B     		ldr	r3, .L358
 3547 0034 D3F8A031 		ldr	r3, [r3, #416]
 998:/opt/XMClib/XMC_Peripheral_Library_v2.1.16/XMCLib/src/xmc_usbd.c **** 	  break;
 3548              		.loc 1 998 0
 3549 0038 4FF40022 		mov	r2, #524288
1003:/opt/XMClib/XMC_Peripheral_Library_v2.1.16/XMCLib/src/xmc_usbd.c **** }
 3550              		.loc 1 1003 0
 3551 003c 5A61     		str	r2, [r3, #20]
1004:/opt/XMClib/XMC_Peripheral_Library_v2.1.16/XMCLib/src/xmc_usbd.c **** 
 3552              		.loc 1 1004 0
 3553 003e 7047     		bx	lr
 3554              	.L353:
1003:/opt/XMClib/XMC_Peripheral_Library_v2.1.16/XMCLib/src/xmc_usbd.c **** }
 3555              		.loc 1 1003 0
 3556 0040 114B     		ldr	r3, .L358
 3557 0042 D3F8A031 		ldr	r3, [r3, #416]
 989:/opt/XMClib/XMC_Peripheral_Library_v2.1.16/XMCLib/src/xmc_usbd.c **** 	  break;
 3558              		.loc 1 989 0
 3559 0046 0822     		movs	r2, #8
1003:/opt/XMClib/XMC_Peripheral_Library_v2.1.16/XMCLib/src/xmc_usbd.c **** }
 3560              		.loc 1 1003 0
 3561 0048 5A61     		str	r2, [r3, #20]
1004:/opt/XMClib/XMC_Peripheral_Library_v2.1.16/XMCLib/src/xmc_usbd.c **** 
 3562              		.loc 1 1004 0
 3563 004a 7047     		bx	lr
 3564              	.L354:
1003:/opt/XMClib/XMC_Peripheral_Library_v2.1.16/XMCLib/src/xmc_usbd.c **** }
 3565              		.loc 1 1003 0
 3566 004c 0E4B     		ldr	r3, .L358
 3567 004e D3F8A031 		ldr	r3, [r3, #416]
 992:/opt/XMClib/XMC_Peripheral_Library_v2.1.16/XMCLib/src/xmc_usbd.c **** 	  break;
 3568              		.loc 1 992 0
 3569 0052 4FF48062 		mov	r2, #1024
1003:/opt/XMClib/XMC_Peripheral_Library_v2.1.16/XMCLib/src/xmc_usbd.c **** }
 3570              		.loc 1 1003 0
 3571 0056 5A61     		str	r2, [r3, #20]
1004:/opt/XMClib/XMC_Peripheral_Library_v2.1.16/XMCLib/src/xmc_usbd.c **** 
 3572              		.loc 1 1004 0
 3573 0058 7047     		bx	lr
 3574              	.L355:
1003:/opt/XMClib/XMC_Peripheral_Library_v2.1.16/XMCLib/src/xmc_usbd.c **** }
 3575              		.loc 1 1003 0
 3576 005a 0B4B     		ldr	r3, .L358
 3577 005c D3F8A031 		ldr	r3, [r3, #416]
 995:/opt/XMClib/XMC_Peripheral_Library_v2.1.16/XMCLib/src/xmc_usbd.c **** 	  break;
 3578              		.loc 1 995 0
 3579 0060 4FF40052 		mov	r2, #8192
1003:/opt/XMClib/XMC_Peripheral_Library_v2.1.16/XMCLib/src/xmc_usbd.c **** }
 3580              		.loc 1 1003 0
 3581 0064 5A61     		str	r2, [r3, #20]
1004:/opt/XMClib/XMC_Peripheral_Library_v2.1.16/XMCLib/src/xmc_usbd.c **** 
 3582              		.loc 1 1004 0
 3583 0066 7047     		bx	lr
 3584              	.L348:
1003:/opt/XMClib/XMC_Peripheral_Library_v2.1.16/XMCLib/src/xmc_usbd.c **** }
 3585              		.loc 1 1003 0
 3586 0068 074B     		ldr	r3, .L358
 3587 006a D3F8A031 		ldr	r3, [r3, #416]
 974:/opt/XMClib/XMC_Peripheral_Library_v2.1.16/XMCLib/src/xmc_usbd.c **** 	  break;
 3588              		.loc 1 974 0
 3589 006e 4FF08042 		mov	r2, #1073741824
1003:/opt/XMClib/XMC_Peripheral_Library_v2.1.16/XMCLib/src/xmc_usbd.c **** }
 3590              		.loc 1 1003 0
 3591 0072 5A61     		str	r2, [r3, #20]
1004:/opt/XMClib/XMC_Peripheral_Library_v2.1.16/XMCLib/src/xmc_usbd.c **** 
 3592              		.loc 1 1004 0
 3593 0074 7047     		bx	lr
 3594              	.L350:
1003:/opt/XMClib/XMC_Peripheral_Library_v2.1.16/XMCLib/src/xmc_usbd.c **** }
 3595              		.loc 1 1003 0
 3596 0076 044B     		ldr	r3, .L358
 3597 0078 D3F8A031 		ldr	r3, [r3, #416]
 977:/opt/XMClib/XMC_Peripheral_Library_v2.1.16/XMCLib/src/xmc_usbd.c **** 	  break;
 3598              		.loc 1 977 0
 3599 007c 4FF48052 		mov	r2, #4096
1003:/opt/XMClib/XMC_Peripheral_Library_v2.1.16/XMCLib/src/xmc_usbd.c **** }
 3600              		.loc 1 1003 0
 3601 0080 5A61     		str	r2, [r3, #20]
1004:/opt/XMClib/XMC_Peripheral_Library_v2.1.16/XMCLib/src/xmc_usbd.c **** 
 3602              		.loc 1 1004 0
 3603 0082 7047     		bx	lr
 3604              	.L357:
 971:/opt/XMClib/XMC_Peripheral_Library_v2.1.16/XMCLib/src/xmc_usbd.c ****   {
 3605              		.loc 1 971 0
 3606 0084 0022     		movs	r2, #0
 3607 0086 C8E7     		b	.L347
 3608              	.L359:
 3609              		.align	2
 3610              	.L358:
 3611 0088 00000000 		.word	xmc_device
 3612              		.cfi_endproc
 3613              	.LFE180:
 3615              		.section	.text.XMC_USBD_ClearEventINEP,"ax",%progbits
 3616              		.align	1
 3617              		.p2align 2,,3
 3618              		.global	XMC_USBD_ClearEventINEP
 3619              		.syntax unified
 3620              		.thumb
 3621              		.thumb_func
 3622              		.fpu fpv4-sp-d16
 3624              	XMC_USBD_ClearEventINEP:
 3625              	.LFB182:
1020:/opt/XMClib/XMC_Peripheral_Library_v2.1.16/XMCLib/src/xmc_usbd.c ****   diepint_data_t clear;
 3626              		.loc 1 1020 0
 3627              		.cfi_startproc
 3628              		@ args = 0, pretend = 0, frame = 0
 3629              		@ frame_needed = 0, uses_anonymous_args = 0
 3630              		@ link register save eliminated.
 3631              	.LVL385:
1023:/opt/XMClib/XMC_Peripheral_Library_v2.1.16/XMCLib/src/xmc_usbd.c **** }
 3632              		.loc 1 1023 0
 3633 0000 6A31     		adds	r1, r1, #106
 3634              	.LVL386:
 3635 0002 024B     		ldr	r3, .L361
 3636 0004 53F82130 		ldr	r3, [r3, r1, lsl #2]
 3637              	.LVL387:
 3638 0008 9860     		str	r0, [r3, #8]
 3639              	.LVL388:
1024:/opt/XMClib/XMC_Peripheral_Library_v2.1.16/XMCLib/src/xmc_usbd.c **** 
 3640              		.loc 1 1024 0
 3641 000a 7047     		bx	lr
 3642              	.L362:
 3643              		.align	2
 3644              	.L361:
 3645 000c 00000000 		.word	xmc_device
 3646              		.cfi_endproc
 3647              	.LFE182:
 3649              		.section	.text.XMC_USBD_ClearEventOUTEP,"ax",%progbits
 3650              		.align	1
 3651              		.p2align 2,,3
 3652              		.global	XMC_USBD_ClearEventOUTEP
 3653              		.syntax unified
 3654              		.thumb
 3655              		.thumb_func
 3656              		.fpu fpv4-sp-d16
 3658              	XMC_USBD_ClearEventOUTEP:
 3659              	.LFB183:
1030:/opt/XMClib/XMC_Peripheral_Library_v2.1.16/XMCLib/src/xmc_usbd.c ****   doepint_data_t clear;
 3660              		.loc 1 1030 0
 3661              		.cfi_startproc
 3662              		@ args = 0, pretend = 0, frame = 0
 3663              		@ frame_needed = 0, uses_anonymous_args = 0
 3664              		@ link register save eliminated.
 3665              	.LVL389:
1033:/opt/XMClib/XMC_Peripheral_Library_v2.1.16/XMCLib/src/xmc_usbd.c **** }
 3666              		.loc 1 1033 0
 3667 0000 034B     		ldr	r3, .L364
 3668 0002 03EB8101 		add	r1, r3, r1, lsl #2
 3669              	.LVL390:
 3670 0006 D1F8C431 		ldr	r3, [r1, #452]
 3671 000a 9860     		str	r0, [r3, #8]
 3672              	.LVL391:
1034:/opt/XMClib/XMC_Peripheral_Library_v2.1.16/XMCLib/src/xmc_usbd.c **** 
 3673              		.loc 1 1034 0
 3674 000c 7047     		bx	lr
 3675              	.L365:
 3676 000e 00BF     		.align	2
 3677              	.L364:
 3678 0010 00000000 		.word	xmc_device
 3679              		.cfi_endproc
 3680              	.LFE183:
 3682              		.section	.text.XMC_USBD_EnableEventOUTEP,"ax",%progbits
 3683              		.align	1
 3684              		.p2align 2,,3
 3685              		.global	XMC_USBD_EnableEventOUTEP
 3686              		.syntax unified
 3687              		.thumb
 3688              		.thumb_func
 3689              		.fpu fpv4-sp-d16
 3691              	XMC_USBD_EnableEventOUTEP:
 3692              	.LFB184:
1040:/opt/XMClib/XMC_Peripheral_Library_v2.1.16/XMCLib/src/xmc_usbd.c **** 	doepint_data_t doepint;
 3693              		.loc 1 1040 0
 3694              		.cfi_startproc
 3695              		@ args = 0, pretend = 0, frame = 0
 3696              		@ frame_needed = 0, uses_anonymous_args = 0
 3697              		@ link register save eliminated.
 3698              	.LVL392:
1043:/opt/XMClib/XMC_Peripheral_Library_v2.1.16/XMCLib/src/xmc_usbd.c **** }
 3699              		.loc 1 1043 0
 3700 0000 034B     		ldr	r3, .L367
 3701 0002 D3F8A421 		ldr	r2, [r3, #420]
 3702 0006 5369     		ldr	r3, [r2, #20]
 3703 0008 1843     		orrs	r0, r0, r3
 3704              	.LVL393:
 3705 000a 5061     		str	r0, [r2, #20]
 3706              	.LVL394:
1044:/opt/XMClib/XMC_Peripheral_Library_v2.1.16/XMCLib/src/xmc_usbd.c **** 
 3707              		.loc 1 1044 0
 3708 000c 7047     		bx	lr
 3709              	.L368:
 3710 000e 00BF     		.align	2
 3711              	.L367:
 3712 0010 00000000 		.word	xmc_device
 3713              		.cfi_endproc
 3714              	.LFE184:
 3716              		.section	.text.XMC_USBD_EnableEventINEP,"ax",%progbits
 3717              		.align	1
 3718              		.p2align 2,,3
 3719              		.global	XMC_USBD_EnableEventINEP
 3720              		.syntax unified
 3721              		.thumb
 3722              		.thumb_func
 3723              		.fpu fpv4-sp-d16
 3725              	XMC_USBD_EnableEventINEP:
 3726              	.LFB185:
1050:/opt/XMClib/XMC_Peripheral_Library_v2.1.16/XMCLib/src/xmc_usbd.c **** 	diepint_data_t diepint;
 3727              		.loc 1 1050 0
 3728              		.cfi_startproc
 3729              		@ args = 0, pretend = 0, frame = 0
 3730              		@ frame_needed = 0, uses_anonymous_args = 0
 3731              		@ link register save eliminated.
 3732              	.LVL395:
1053:/opt/XMClib/XMC_Peripheral_Library_v2.1.16/XMCLib/src/xmc_usbd.c **** }
 3733              		.loc 1 1053 0
 3734 0000 034B     		ldr	r3, .L370
 3735 0002 D3F8A421 		ldr	r2, [r3, #420]
 3736 0006 1369     		ldr	r3, [r2, #16]
 3737 0008 1843     		orrs	r0, r0, r3
 3738              	.LVL396:
 3739 000a 1061     		str	r0, [r2, #16]
 3740              	.LVL397:
1054:/opt/XMClib/XMC_Peripheral_Library_v2.1.16/XMCLib/src/xmc_usbd.c **** 
 3741              		.loc 1 1054 0
 3742 000c 7047     		bx	lr
 3743              	.L371:
 3744 000e 00BF     		.align	2
 3745              	.L370:
 3746 0010 00000000 		.word	xmc_device
 3747              		.cfi_endproc
 3748              	.LFE185:
 3750              		.global	Driver_USBD0
 3751              		.comm	usbd_init,4,4
 3752              		.comm	xmc_device,520,4
 3753              		.global	XMC_USBD_EP_IN_BUFFERSIZE
 3754              		.global	XMC_USBD_EP_OUT_BUFFERSIZE
 3755              		.section	.rodata
 3756              		.align	2
 3759              	Driver_USBD0:
 3760 0000 00000000 		.word	XMC_USBD_GetCapabilities
 3761 0004 00000000 		.word	XMC_USBD_Init
 3762 0008 00000000 		.word	XMC_USBD_Uninitialize
 3763 000c 00000000 		.word	XMC_USBD_DeviceConnect
 3764 0010 00000000 		.word	XMC_USBD_DeviceDisconnect
 3765 0014 00000000 		.word	XMC_USBD_DeviceGetState
 3766 0018 00000000 		.word	XMC_USBD_DeviceSetAddress
 3767 001c 00000000 		.word	XMC_USBD_EndpointConfigure
 3768 0020 00000000 		.word	XMC_USBD_EndpointUnconfigure
 3769 0024 00000000 		.word	XMC_USBD_EndpointStall
 3770 0028 00000000 		.word	XMC_USBD_EndpointReadStart
 3771 002c 00000000 		.word	XMC_USBD_EndpointRead
 3772 0030 00000000 		.word	XMC_USBD_EndpointWrite
 3773 0034 00000000 		.word	XMC_USBD_EndpointAbort
 3774 0038 00000000 		.word	XMC_USBD_GetFrameNumber
 3775 003c 00000000 		.word	XMC_USBD_IsEnumDone
 3776              		.bss
 3777              		.align	2
 3778              		.set	.LANCHOR1,. + 0
 3781              	XMC_USBD_EP_IN_BUFFERSIZE:
 3782 0000 00000000 		.space	28
 3782      00000000 
 3782      00000000 
 3782      00000000 
 3782      00000000 
 3785              	XMC_USBD_EP_OUT_BUFFERSIZE:
 3786 001c 00000000 		.space	28
 3786      00000000 
 3786      00000000 
 3786      00000000 
 3786      00000000 
 3787              		.section	USB_RAM,"aw",%progbits
 3788              		.align	2
 3789              		.set	.LANCHOR0,. + 0
 3792              	XMC_USBD_EP_IN_BUFFER:
 3793 0000 00000000 		.space	1792
 3793      00000000 
 3793      00000000 
 3793      00000000 
 3793      00000000 
 3796              	XMC_USBD_EP_OUT_BUFFER:
 3797 0700 00000000 		.space	1792
 3797      00000000 
 3797      00000000 
 3797      00000000 
 3797      00000000 
 3798              		.text
 3799              	.Letext0:
 3800              		.file 2 "/usr/arm-none-eabi/include/machine/_default_types.h"
 3801              		.file 3 "/usr/arm-none-eabi/include/sys/_stdint.h"
 3802              		.file 4 "/usr/arm-none-eabi/include/sys/lock.h"
 3803              		.file 5 "/usr/arm-none-eabi/include/sys/_types.h"
 3804              		.file 6 "/usr/lib/gcc/arm-none-eabi/7.3.1/include/stddef.h"
 3805              		.file 7 "/usr/arm-none-eabi/include/sys/reent.h"
 3806              		.file 8 "/opt/XMClib/XMC_Peripheral_Library_v2.1.16/CMSIS/Include/core_cm4.h"
 3807              		.file 9 "/opt/XMClib/XMC_Peripheral_Library_v2.1.16/CMSIS/Infineon/XMC4500_series/Include/system_X
 3808              		.file 10 "/opt/XMClib/XMC_Peripheral_Library_v2.1.16/CMSIS/Infineon/XMC4500_series/Include/XMC4500
 3809              		.file 11 "/usr/arm-none-eabi/include/stdlib.h"
 3810              		.file 12 "/opt/XMClib/XMC_Peripheral_Library_v2.1.16/XMCLib/inc/xmc_usbd_regs.h"
 3811              		.file 13 "/opt/XMClib/XMC_Peripheral_Library_v2.1.16/XMCLib/inc/xmc4_scu.h"
 3812              		.file 14 "/opt/XMClib/XMC_Peripheral_Library_v2.1.16/XMCLib/inc/xmc_usbd.h"
 3813              		.file 15 "<built-in>"
DEFINED SYMBOLS
                            *ABS*:0000000000000000 xmc_usbd.c
     /tmp/ccfUDcqe.s:17     .text.XMC_USBD_lStartReadXfer:0000000000000000 $t
     /tmp/ccfUDcqe.s:24     .text.XMC_USBD_lStartReadXfer:0000000000000000 XMC_USBD_lStartReadXfer
     /tmp/ccfUDcqe.s:140    .text.XMC_USBD_lStartReadXfer:0000000000000088 $d
                            *COM*:0000000000000004 usbd_init
                            *COM*:0000000000000208 xmc_device
     /tmp/ccfUDcqe.s:146    .text.XMC_USBD_lStartWriteXfer:0000000000000000 $t
     /tmp/ccfUDcqe.s:153    .text.XMC_USBD_lStartWriteXfer:0000000000000000 XMC_USBD_lStartWriteXfer
     /tmp/ccfUDcqe.s:297    .text.XMC_USBD_lStartWriteXfer:00000000000000c0 $d
     /tmp/ccfUDcqe.s:303    .text.XMC_USBD_GetCapabilities:0000000000000000 $t
     /tmp/ccfUDcqe.s:311    .text.XMC_USBD_GetCapabilities:0000000000000000 XMC_USBD_GetCapabilities
     /tmp/ccfUDcqe.s:326    .text.XMC_USBD_DeviceConnect:0000000000000000 $t
     /tmp/ccfUDcqe.s:334    .text.XMC_USBD_DeviceConnect:0000000000000000 XMC_USBD_DeviceConnect
     /tmp/ccfUDcqe.s:356    .text.XMC_USBD_DeviceConnect:0000000000000014 $d
     /tmp/ccfUDcqe.s:361    .text.XMC_USBD_DeviceDisconnect:0000000000000000 $t
     /tmp/ccfUDcqe.s:369    .text.XMC_USBD_DeviceDisconnect:0000000000000000 XMC_USBD_DeviceDisconnect
     /tmp/ccfUDcqe.s:391    .text.XMC_USBD_DeviceDisconnect:0000000000000014 $d
     /tmp/ccfUDcqe.s:396    .text.XMC_USBD_DeviceGetState:0000000000000000 $t
     /tmp/ccfUDcqe.s:404    .text.XMC_USBD_DeviceGetState:0000000000000000 XMC_USBD_DeviceGetState
     /tmp/ccfUDcqe.s:518    .text.XMC_USBD_DeviceGetState:0000000000000068 $d
     /tmp/ccfUDcqe.s:525    .text.XMC_USBD_EndpointReadStart:0000000000000000 $t
     /tmp/ccfUDcqe.s:533    .text.XMC_USBD_EndpointReadStart:0000000000000000 XMC_USBD_EndpointReadStart
     /tmp/ccfUDcqe.s:604    .text.XMC_USBD_EndpointReadStart:0000000000000048 $d
     /tmp/ccfUDcqe.s:609    .text.XMC_USBD_DeviceSetAddress:0000000000000000 $t
     /tmp/ccfUDcqe.s:617    .text.XMC_USBD_DeviceSetAddress:0000000000000000 XMC_USBD_DeviceSetAddress
     /tmp/ccfUDcqe.s:644    .text.XMC_USBD_DeviceSetAddress:0000000000000014 $d
     /tmp/ccfUDcqe.s:649    .text.XMC_USBD_EndpointStall:0000000000000000 $t
     /tmp/ccfUDcqe.s:657    .text.XMC_USBD_EndpointStall:0000000000000000 XMC_USBD_EndpointStall
     /tmp/ccfUDcqe.s:768    .text.XMC_USBD_EndpointStall:000000000000007c $d
     /tmp/ccfUDcqe.s:773    .text.XMC_USBD_EndpointAbort:0000000000000000 $t
     /tmp/ccfUDcqe.s:781    .text.XMC_USBD_EndpointAbort:0000000000000000 XMC_USBD_EndpointAbort
     /tmp/ccfUDcqe.s:832    .text.XMC_USBD_EndpointAbort:000000000000003c $d
     /tmp/ccfUDcqe.s:837    .text.XMC_USBD_EndpointUnconfigure:0000000000000000 $t
     /tmp/ccfUDcqe.s:845    .text.XMC_USBD_EndpointUnconfigure:0000000000000000 XMC_USBD_EndpointUnconfigure
     /tmp/ccfUDcqe.s:1023   .text.XMC_USBD_EndpointUnconfigure:00000000000000f4 $d
     /tmp/ccfUDcqe.s:1029   .text.XMC_USBD_GetFrameNumber:0000000000000000 $t
     /tmp/ccfUDcqe.s:1037   .text.XMC_USBD_GetFrameNumber:0000000000000000 XMC_USBD_GetFrameNumber
     /tmp/ccfUDcqe.s:1056   .text.XMC_USBD_GetFrameNumber:0000000000000010 $d
     /tmp/ccfUDcqe.s:1061   .text.XMC_USBD_IsEnumDone:0000000000000000 $t
     /tmp/ccfUDcqe.s:1069   .text.XMC_USBD_IsEnumDone:0000000000000000 XMC_USBD_IsEnumDone
     /tmp/ccfUDcqe.s:1088   .text.XMC_USBD_IsEnumDone:0000000000000018 $d
     /tmp/ccfUDcqe.s:1093   .text.XMC_USBD_Uninitialize:0000000000000000 $t
     /tmp/ccfUDcqe.s:1101   .text.XMC_USBD_Uninitialize:0000000000000000 XMC_USBD_Uninitialize
     /tmp/ccfUDcqe.s:1134   .text.XMC_USBD_Uninitialize:0000000000000020 $d
     /tmp/ccfUDcqe.s:1139   .text.XMC_USBD_EndpointConfigure:0000000000000000 $t
     /tmp/ccfUDcqe.s:1147   .text.XMC_USBD_EndpointConfigure:0000000000000000 XMC_USBD_EndpointConfigure
     /tmp/ccfUDcqe.s:1577   .text.XMC_USBD_EndpointConfigure:0000000000000260 $d
     /tmp/ccfUDcqe.s:1585   .text.XMC_USBD_Init:0000000000000000 $t
     /tmp/ccfUDcqe.s:1593   .text.XMC_USBD_Init:0000000000000000 XMC_USBD_Init
     /tmp/ccfUDcqe.s:1843   .text.XMC_USBD_Init:0000000000000138 $d
     /tmp/ccfUDcqe.s:1855   .text.XMC_USBD_EndpointRead:0000000000000000 $t
     /tmp/ccfUDcqe.s:1863   .text.XMC_USBD_EndpointRead:0000000000000000 XMC_USBD_EndpointRead
     /tmp/ccfUDcqe.s:1922   .text.XMC_USBD_EndpointRead:0000000000000038 $d
     /tmp/ccfUDcqe.s:1927   .text.XMC_USBD_EndpointWrite:0000000000000000 $t
     /tmp/ccfUDcqe.s:1935   .text.XMC_USBD_EndpointWrite:0000000000000000 XMC_USBD_EndpointWrite
     /tmp/ccfUDcqe.s:2021   .text.XMC_USBD_EndpointWrite:000000000000005c $d
     /tmp/ccfUDcqe.s:2026   .text.XMC_USBD_lReadFifo:0000000000000000 $t
     /tmp/ccfUDcqe.s:2033   .text.XMC_USBD_lReadFifo:0000000000000000 XMC_USBD_lReadFifo
     /tmp/ccfUDcqe.s:2153   .text.XMC_USBD_lReadFifo:0000000000000094 $d
     /tmp/ccfUDcqe.s:2158   .text.XMC_USBD_lDeviceActive:0000000000000000 $t
     /tmp/ccfUDcqe.s:2166   .text.XMC_USBD_lDeviceActive:0000000000000000 XMC_USBD_lDeviceActive
     /tmp/ccfUDcqe.s:2253   .text.XMC_USBD_lDeviceActive:0000000000000044 $d
     /tmp/ccfUDcqe.s:2258   .text.XMC_USBD_IRQHandler:0000000000000000 $t
     /tmp/ccfUDcqe.s:2266   .text.XMC_USBD_IRQHandler:0000000000000000 XMC_USBD_IRQHandler
     /tmp/ccfUDcqe.s:2757   .text.XMC_USBD_IRQHandler:0000000000000254 $d
     /tmp/ccfUDcqe.s:2765   .text.XMC_USBD_IRQHandler:0000000000000258 $t
     /tmp/ccfUDcqe.s:3349   .text.XMC_USBD_IRQHandler:0000000000000538 $d
     /tmp/ccfUDcqe.s:3360   .text.XMC_USBD_IRQHandler:0000000000000548 $t
     /tmp/ccfUDcqe.s:3408   .text.XMC_USBD_Enable:0000000000000000 $t
     /tmp/ccfUDcqe.s:3416   .text.XMC_USBD_Enable:0000000000000000 XMC_USBD_Enable
     /tmp/ccfUDcqe.s:3443   .text.XMC_USBD_Enable:0000000000000010 $d
     /tmp/ccfUDcqe.s:3448   .text.XMC_USBD_Disable:0000000000000000 $t
     /tmp/ccfUDcqe.s:3456   .text.XMC_USBD_Disable:0000000000000000 XMC_USBD_Disable
     /tmp/ccfUDcqe.s:3483   .text.XMC_USBD_Disable:0000000000000010 $d
     /tmp/ccfUDcqe.s:3488   .text.XMC_USBD_ClearEvent:0000000000000000 $t
     /tmp/ccfUDcqe.s:3496   .text.XMC_USBD_ClearEvent:0000000000000000 XMC_USBD_ClearEvent
     /tmp/ccfUDcqe.s:3509   .text.XMC_USBD_ClearEvent:0000000000000008 $d
     /tmp/ccfUDcqe.s:3523   .text.XMC_USBD_ClearEvent:0000000000000016 $t
     /tmp/ccfUDcqe.s:3611   .text.XMC_USBD_ClearEvent:0000000000000088 $d
     /tmp/ccfUDcqe.s:3616   .text.XMC_USBD_ClearEventINEP:0000000000000000 $t
     /tmp/ccfUDcqe.s:3624   .text.XMC_USBD_ClearEventINEP:0000000000000000 XMC_USBD_ClearEventINEP
     /tmp/ccfUDcqe.s:3645   .text.XMC_USBD_ClearEventINEP:000000000000000c $d
     /tmp/ccfUDcqe.s:3650   .text.XMC_USBD_ClearEventOUTEP:0000000000000000 $t
     /tmp/ccfUDcqe.s:3658   .text.XMC_USBD_ClearEventOUTEP:0000000000000000 XMC_USBD_ClearEventOUTEP
     /tmp/ccfUDcqe.s:3678   .text.XMC_USBD_ClearEventOUTEP:0000000000000010 $d
     /tmp/ccfUDcqe.s:3683   .text.XMC_USBD_EnableEventOUTEP:0000000000000000 $t
     /tmp/ccfUDcqe.s:3691   .text.XMC_USBD_EnableEventOUTEP:0000000000000000 XMC_USBD_EnableEventOUTEP
     /tmp/ccfUDcqe.s:3712   .text.XMC_USBD_EnableEventOUTEP:0000000000000010 $d
     /tmp/ccfUDcqe.s:3717   .text.XMC_USBD_EnableEventINEP:0000000000000000 $t
     /tmp/ccfUDcqe.s:3725   .text.XMC_USBD_EnableEventINEP:0000000000000000 XMC_USBD_EnableEventINEP
     /tmp/ccfUDcqe.s:3746   .text.XMC_USBD_EnableEventINEP:0000000000000010 $d
     /tmp/ccfUDcqe.s:3759   .rodata:0000000000000000 Driver_USBD0
     /tmp/ccfUDcqe.s:3781   .bss:0000000000000000 XMC_USBD_EP_IN_BUFFERSIZE
     /tmp/ccfUDcqe.s:3785   .bss:000000000000001c XMC_USBD_EP_OUT_BUFFERSIZE
     /tmp/ccfUDcqe.s:3756   .rodata:0000000000000000 $d
     /tmp/ccfUDcqe.s:3777   .bss:0000000000000000 $d
     /tmp/ccfUDcqe.s:3788   USB_RAM:0000000000000000 $d
     /tmp/ccfUDcqe.s:3792   USB_RAM:0000000000000000 XMC_USBD_EP_IN_BUFFER
     /tmp/ccfUDcqe.s:3796   USB_RAM:0000000000000700 XMC_USBD_EP_OUT_BUFFER
                           .group:0000000000000000 wm4.0.33cb493f6332016dc29bb220a2be3d23
                           .group:0000000000000000 wm4.stddef.h.39.99b5021e28f91cdb161c889e07266673
                           .group:0000000000000000 wm4._newlib_version.h.4.875b979a44719054cd750d0952ad3fd6
                           .group:0000000000000000 wm4.features.h.33.5bd1eea2d80518b50f7af0b5ce6750e0
                           .group:0000000000000000 wm4._default_types.h.15.247e5cd201eca3442cbf5404108c4935
                           .group:0000000000000000 wm4._intsup.h.10.cce27fed8484c08a33f522034c30d2b5
                           .group:0000000000000000 wm4._stdint.h.10.c24fa3af3bc1706662bb5593a907e841
                           .group:0000000000000000 wm4.stdint.h.23.d53047a68f4a85177f80b422d52785ed
                           .group:0000000000000000 wm4.stdbool.h.29.07dce69c3b78884144b7f7bd19483461
                           .group:0000000000000000 wm4.newlib.h.8.f6e543eac3f2f65163ba2ffe3b04987b
                           .group:0000000000000000 wm4.ieeefp.h.77.220d9cccac42cd58761758bee2df4ce6
                           .group:0000000000000000 wm4.config.h.220.6cac6a9685cfce5e83c17784171638d9
                           .group:0000000000000000 wm4._ansi.h.31.de524f58584151836e90d8620a16f8e8
                           .group:0000000000000000 wm4.lock.h.2.1461d1fff82dffe8bfddc23307f6484f
                           .group:0000000000000000 wm4._types.h.125.5cf8a495f1f7ef36777ad868a1e32068
                           .group:0000000000000000 wm4.stddef.h.161.5349cb105733e8777bfb0cf53c4e3f34
                           .group:0000000000000000 wm4._types.h.184.03611d4f6b5bec9997bcf4279eceba07
                           .group:0000000000000000 wm4.reent.h.17.90c2574d4acdcfce933db5cb09ff35fe
                           .group:0000000000000000 wm4.cdefs.h.47.14fad0b327eb9dcf106599b738d85132
                           .group:0000000000000000 wm4.string.h.15.dab3980bf35408a4c507182805e2de3a
                           .group:0000000000000000 wm4.stddef.h.161.19e15733342b50ead2919490b095303e
                           .group:0000000000000000 wm4.xmc_device.h.61.ba2d082e12f51240746cffdd60d42b81
                           .group:0000000000000000 wm4.XMC4500.h.55.9aa45b9b5790506b2dcb963e4e7adeaf
                           .group:0000000000000000 wm4.core_cm4.h.32.6c6eb1c8daeca23ce7ba79c8e8120d52
                           .group:0000000000000000 wm4.cmsis_gcc.h.26.91b63349961c35637933e4fba51b867b
                           .group:0000000000000000 wm4.core_cm4.h.172.fdd5a388a160bb6ff767b7d7ee212268
                           .group:0000000000000000 wm4.system_XMC4500.h.42.99124977c10ca8844a71949adbeabd70
                           .group:0000000000000000 wm4.XMC4500.h.208.b340195df97f067735c4c769ba59985a
                           .group:0000000000000000 wm4.xmc_device.h.1460.8860499b404961ffcfbb8d1fefcb2146
                           .group:0000000000000000 wm4.xmc_common.h.92.3f4336a80569affab05a81145b87c2fc
                           .group:0000000000000000 wm4.stdlib.h.13.4ed386f5c1a80d71e72172885d946ef2
                           .group:0000000000000000 wm4.alloca.h.8.dfc0c703c47ec3e69746825b17d9e66d
                           .group:0000000000000000 wm4.stdlib.h.56.d4493cd3736e51e9d56335045f26df45
                           .group:0000000000000000 wm4.xmc_usbd_regs.h.80.57c6c85fa0ecbc9f8327ce445aebb9bc
                           .group:0000000000000000 wm4.xmc4_scu.h.83.0449f5880ac071460ec1a8072311ea51
                           .group:0000000000000000 wm4.xmc_usbd.h.122.ce57a9e6a9da48ee33ece02813c49593

UNDEFINED SYMBOLS
memset
XMC_SCU_RESET_DeassertPeripheralReset
XMC_SCU_POWER_EnableUsb
memcpy
XMC_SCU_RESET_AssertPeripheralReset
XMC_SCU_POWER_DisableUsb
