   1              		.cpu cortex-m4
   2              		.eabi_attribute 27, 1
   3              		.eabi_attribute 20, 1
   4              		.eabi_attribute 21, 1
   5              		.eabi_attribute 23, 3
   6              		.eabi_attribute 24, 1
   7              		.eabi_attribute 25, 1
   8              		.eabi_attribute 26, 1
   9              		.eabi_attribute 30, 1
  10              		.eabi_attribute 34, 1
  11              		.eabi_attribute 18, 4
  12              		.file	"main.c"
  13              		.text
  14              	.Ltext0:
  15              		.cfi_sections	.debug_frame
  16              		.section	.text.main,"ax",%progbits
  17              		.align	1
  18              		.global	main
  19              		.syntax unified
  20              		.thumb
  21              		.thumb_func
  22              		.fpu fpv4-sp-d16
  24              	main:
  25              	.LFB193:
  26              		.file 1 "main.c"
   1:main.c        **** /* Main source file for assignment 2 part A, which implements shitty homebrewn crypto together with
   2:main.c        ****  * a nasty little stack based buffer overflow
   3:main.c        ****  *
   4:main.c        ****  * Copyright 2018 TUM
   5:main.c        ****  * Created: 2018-11-15 Florian Wilde <florian.wilde@tum.de>
   6:main.c        ****  **************************************************************************************************
   7:main.c        **** 
   8:main.c        **** #include "VirtualSerial.h"
   9:main.c        **** #include "packetizer.h"
  10:main.c        **** #include "crypto.h"
  11:main.c        **** #include "sodium.h"
  12:main.c        **** #include "randombytes_salsa20XMC_random.h"
  13:main.c        **** 
  14:main.c        **** 
  15:main.c        **** int main(void) {
  27              		.loc 1 15 0
  28              		.cfi_startproc
  29              		@ args = 0, pretend = 0, frame = 56
  30              		@ frame_needed = 0, uses_anonymous_args = 0
  31 0000 70B5     		push	{r4, r5, r6, lr}
  32              	.LCFI0:
  33              		.cfi_def_cfa_offset 16
  34              		.cfi_offset 4, -16
  35              		.cfi_offset 5, -12
  36              		.cfi_offset 6, -8
  37              		.cfi_offset 14, -4
  38 0002 90B0     		sub	sp, sp, #64
  39              	.LCFI1:
  40              		.cfi_def_cfa_offset 80
  41              		.loc 1 15 0
  42 0004 294B     		ldr	r3, .L12
  43 0006 1B68     		ldr	r3, [r3]
  44 0008 0F93     		str	r3, [sp, #60]
  16:main.c        **** 
  17:main.c        ****   uint8_t key[32] = {0xc1, 0x00, 0x09, 0x0e, 0x12, 0xc0, 0x98, 0x16, 0x83, 0x06, 0x00, 0x10, 0x0a, 
  45              		.loc 1 17 0
  46 000a 07AC     		add	r4, sp, #28
  47 000c 284D     		ldr	r5, .L12+4
  48 000e 0FCD     		ldmia	r5!, {r0, r1, r2, r3}
  49 0010 0FC4     		stmia	r4!, {r0, r1, r2, r3}
  50 0012 95E80F00 		ldm	r5, {r0, r1, r2, r3}
  51 0016 84E80F00 		stm	r4, {r0, r1, r2, r3}
  18:main.c        ****   pt_s plaintext = { 0 };
  52              		.loc 1 18 0
  53 001a 0023     		movs	r3, #0
  54 001c 0493     		str	r3, [sp, #16]
  55 001e 0593     		str	r3, [sp, #20]
  56 0020 0693     		str	r3, [sp, #24]
  19:main.c        ****   ct_s ciphertext = { 0 };
  57              		.loc 1 19 0
  58 0022 0293     		str	r3, [sp, #8]
  59 0024 0393     		str	r3, [sp, #12]
  20:main.c        **** 
  21:main.c        ****   USB_Init();
  60              		.loc 1 21 0
  61 0026 FFF7FEFF 		bl	USB_Init
  62              	.LVL0:
  22:main.c        **** 
  23:main.c        ****   while(1) {
  24:main.c        ****     /* Consumes incoming data and parses it until we received a valid packet.
  25:main.c        ****        If so, it will fill the plaintextJob struct with the appropriate information. */
  26:main.c        ****     if(packetizerReceive(&plaintext) == 0) {
  27:main.c        ****       /* If the sender did not sent a nonce, generate one */
  28:main.c        ****       if(plaintext.nonce == NULL) {
  29:main.c        ****         plaintext.nonce = malloc(CRYPTO_NONCE_BYTES);
  30:main.c        ****         for(size_t i = 0; i < CRYPTO_NONCE_BYTES; i++) { 
  31:main.c        **** 	  plaintext.nonce[i] = randombytes_random() & UINT8_MAX;
  32:main.c        ****         }
  33:main.c        ****       }
  34:main.c        ****       /* Now encrypt the plaintext */
  35:main.c        ****       randombytes_set_implementation(&randombytes_salsa20XMC_implementation);
  63              		.loc 1 35 0
  64 002a 224E     		ldr	r6, .L12+8
  36:main.c        ****       if(sodium_init() == 0) {
  37:main.c        **** 	ciphertext.text = (unsigned char *) sodium_malloc(plaintext.textLen + crypto_secretbox_MACBYTES);
  38:main.c        ****         if(crypto_secretbox_easy(ciphertext.text, plaintext.text, plaintext.textLen, plaintext.nonc
  65              		.loc 1 38 0
  66 002c 0025     		movs	r5, #0
  67 002e 14E0     		b	.L2
  68              	.L11:
  29:main.c        ****         for(size_t i = 0; i < CRYPTO_NONCE_BYTES; i++) { 
  69              		.loc 1 29 0
  70 0030 1820     		movs	r0, #24
  71 0032 FFF7FEFF 		bl	malloc
  72              	.LVL1:
  73 0036 0690     		str	r0, [sp, #24]
  74              	.LVL2:
  75              	.LBB2:
  30:main.c        **** 	  plaintext.nonce[i] = randombytes_random() & UINT8_MAX;
  76              		.loc 1 30 0
  77 0038 0024     		movs	r4, #0
  78              	.LVL3:
  79              	.L4:
  31:main.c        ****         }
  80              		.loc 1 31 0 discriminator 3
  81 003a FFF7FEFF 		bl	randombytes_random
  82              	.LVL4:
  83 003e 069B     		ldr	r3, [sp, #24]
  84 0040 1855     		strb	r0, [r3, r4]
  30:main.c        **** 	  plaintext.nonce[i] = randombytes_random() & UINT8_MAX;
  85              		.loc 1 30 0 discriminator 3
  86 0042 0134     		adds	r4, r4, #1
  87              	.LVL5:
  88 0044 182C     		cmp	r4, #24
  89 0046 F8D1     		bne	.L4
  90 0048 0FE0     		b	.L3
  91              	.LVL6:
  92              	.L5:
  93              	.LBE2:
  39:main.c        ****           ciphertext.textLen = getCiphertextLength(plaintext.textLen) + crypto_secretbox_MACBYTES;
  40:main.c        ****           /* Finally, if encryption was successful, send ciphertext back in a packet */
  41:main.c        ****           packetizerSend(&ciphertext);
  42:main.c        ****         }
  43:main.c        ****       }
  44:main.c        ****       /* Free all buffers that were allocated in the meantime */
  45:main.c        ****       free(plaintext.text);
  94              		.loc 1 45 0
  95 004a 0498     		ldr	r0, [sp, #16]
  96 004c FFF7FEFF 		bl	free
  97              	.LVL7:
  46:main.c        ****       plaintext.text = NULL;
  98              		.loc 1 46 0
  99 0050 0495     		str	r5, [sp, #16]
  47:main.c        ****       free(ciphertext.text);
 100              		.loc 1 47 0
 101 0052 0298     		ldr	r0, [sp, #8]
 102 0054 FFF7FEFF 		bl	free
 103              	.LVL8:
  48:main.c        ****       ciphertext.text = NULL;
 104              		.loc 1 48 0
 105 0058 0295     		str	r5, [sp, #8]
 106              	.L2:
  26:main.c        ****       /* If the sender did not sent a nonce, generate one */
 107              		.loc 1 26 0
 108 005a 04A8     		add	r0, sp, #16
 109 005c FFF7FEFF 		bl	packetizerReceive
 110              	.LVL9:
 111 0060 0028     		cmp	r0, #0
 112 0062 FAD1     		bne	.L2
  28:main.c        ****         plaintext.nonce = malloc(CRYPTO_NONCE_BYTES);
 113              		.loc 1 28 0
 114 0064 069B     		ldr	r3, [sp, #24]
 115 0066 002B     		cmp	r3, #0
 116 0068 E2D0     		beq	.L11
 117              	.L3:
  35:main.c        ****       if(sodium_init() == 0) {
 118              		.loc 1 35 0
 119 006a 3046     		mov	r0, r6
 120 006c FFF7FEFF 		bl	randombytes_set_implementation
 121              	.LVL10:
  36:main.c        **** 	ciphertext.text = (unsigned char *) sodium_malloc(plaintext.textLen + crypto_secretbox_MACBYTES);
 122              		.loc 1 36 0
 123 0070 FFF7FEFF 		bl	sodium_init
 124              	.LVL11:
 125 0074 0028     		cmp	r0, #0
 126 0076 E8D1     		bne	.L5
  37:main.c        ****         if(crypto_secretbox_easy(ciphertext.text, plaintext.text, plaintext.textLen, plaintext.nonc
 127              		.loc 1 37 0
 128 0078 0598     		ldr	r0, [sp, #20]
 129 007a 1030     		adds	r0, r0, #16
 130 007c FFF7FEFF 		bl	sodium_malloc
 131              	.LVL12:
 132 0080 0290     		str	r0, [sp, #8]
  38:main.c        ****           ciphertext.textLen = getCiphertextLength(plaintext.textLen) + crypto_secretbox_MACBYTES;
 133              		.loc 1 38 0
 134 0082 07AB     		add	r3, sp, #28
 135 0084 0193     		str	r3, [sp, #4]
 136 0086 069B     		ldr	r3, [sp, #24]
 137 0088 0093     		str	r3, [sp]
 138 008a 059A     		ldr	r2, [sp, #20]
 139 008c 2B46     		mov	r3, r5
 140 008e 0499     		ldr	r1, [sp, #16]
 141 0090 FFF7FEFF 		bl	crypto_secretbox_easy
 142              	.LVL13:
 143 0094 0028     		cmp	r0, #0
 144 0096 D8D1     		bne	.L5
  39:main.c        ****           /* Finally, if encryption was successful, send ciphertext back in a packet */
 145              		.loc 1 39 0
 146 0098 0598     		ldr	r0, [sp, #20]
 147 009a FFF7FEFF 		bl	getCiphertextLength
 148              	.LVL14:
 149 009e 1030     		adds	r0, r0, #16
 150 00a0 0390     		str	r0, [sp, #12]
  41:main.c        ****         }
 151              		.loc 1 41 0
 152 00a2 02A8     		add	r0, sp, #8
 153 00a4 FFF7FEFF 		bl	packetizerSend
 154              	.LVL15:
 155 00a8 CFE7     		b	.L5
 156              	.L13:
 157 00aa 00BF     		.align	2
 158              	.L12:
 159 00ac 00000000 		.word	__stack_chk_guard
 160 00b0 00000000 		.word	.LANCHOR0
 161 00b4 00000000 		.word	randombytes_salsa20XMC_implementation
 162              		.cfi_endproc
 163              	.LFE193:
 165              		.section	.rodata
 166              		.align	2
 167              		.set	.LANCHOR0,. + 0
 168              	.LC0:
 169 0000 C1       		.byte	-63
 170 0001 00       		.byte	0
 171 0002 09       		.byte	9
 172 0003 0E       		.byte	14
 173 0004 12       		.byte	18
 174 0005 C0       		.byte	-64
 175 0006 98       		.byte	-104
 176 0007 16       		.byte	22
 177 0008 83       		.byte	-125
 178 0009 06       		.byte	6
 179 000a 00       		.byte	0
 180 000b 10       		.byte	16
 181 000c 0A       		.byte	10
 182 000d 00       		.byte	0
 183 000e 00       		.byte	0
 184 000f 00       		.byte	0
 185 0010 C1       		.byte	-63
 186 0011 00       		.byte	0
 187 0012 09       		.byte	9
 188 0013 0E       		.byte	14
 189 0014 12       		.byte	18
 190 0015 C0       		.byte	-64
 191 0016 98       		.byte	-104
 192 0017 16       		.byte	22
 193 0018 83       		.byte	-125
 194 0019 06       		.byte	6
 195 001a 00       		.byte	0
 196 001b 10       		.byte	16
 197 001c 0A       		.byte	10
 198 001d 00       		.byte	0
 199 001e 00       		.byte	0
 200 001f 00       		.byte	0
 201              		.text
 202              	.Letext0:
 203              		.file 2 "/usr/arm-none-eabi/include/machine/_default_types.h"
 204              		.file 3 "/usr/arm-none-eabi/include/sys/_stdint.h"
 205              		.file 4 "/usr/lib/gcc/arm-none-eabi/7.3.1/include/stddef.h"
 206              		.file 5 "/usr/arm-none-eabi/include/sys/lock.h"
 207              		.file 6 "/usr/arm-none-eabi/include/sys/_types.h"
 208              		.file 7 "/usr/arm-none-eabi/include/sys/reent.h"
 209              		.file 8 "/opt/XMClib/XMC_Peripheral_Library_v2.1.16/CMSIS/Include/core_cm4.h"
 210              		.file 9 "/opt/XMClib/XMC_Peripheral_Library_v2.1.16/CMSIS/Infineon/XMC4500_series/Include/system_X
 211              		.file 10 "/opt/XMClib/XMC_Peripheral_Library_v2.1.16/CMSIS/Infineon/XMC4500_series/Include/XMC4500
 212              		.file 11 "/usr/arm-none-eabi/include/stdlib.h"
 213              		.file 12 "/opt/XMClib/XMC_Peripheral_Library_v2.1.16/XMCLib/inc/xmc_usbd_regs.h"
 214              		.file 13 "/opt/XMClib/XMC_Peripheral_Library_v2.1.16/XMCLib/inc/xmc_usbd.h"
 215              		.file 14 "/opt/XMClib/XMC_Peripheral_Library_v2.1.16/ThirdPartyLibraries/USBlib/USB/Core/XMC4000/U
 216              		.file 15 "/opt/XMClib/XMC_Peripheral_Library_v2.1.16/ThirdPartyLibraries/USBlib/USB/Core/XMC4000/.
 217              		.file 16 "/opt/XMClib/XMC_Peripheral_Library_v2.1.16/ThirdPartyLibraries/USBlib/USB/Core/XMC4000/.
 218              		.file 17 "/opt/XMClib/XMC_Peripheral_Library_v2.1.16/ThirdPartyLibraries/USBlib/USB/Core/XMC4000/.
 219              		.file 18 "/opt/XMClib/XMC_Peripheral_Library_v2.1.16/ThirdPartyLibraries/USBlib/USB/Core/USBTask.h
 220              		.file 19 "/opt/XMClib/XMC_Peripheral_Library_v2.1.16/ThirdPartyLibraries/USBlib/USB/Class/Device/.
 221              		.file 20 "/opt/XMClib/XMC_Peripheral_Library_v2.1.16/ThirdPartyLibraries/USBlib/USB/Class/Device/C
 222              		.file 21 "VirtualSerial.h"
 223              		.file 22 "packetizer.h"
 224              		.file 23 "sodium/randombytes.h"
 225              		.file 24 "sodium/randombytes_salsa20_random.h"
 226              		.file 25 "sodium/randombytes_sysrandom.h"
 227              		.file 26 "randombytes_salsa20XMC_random.h"
 228              		.file 27 "sodium/core.h"
 229              		.file 28 "sodium/utils.h"
 230              		.file 29 "sodium/crypto_secretbox.h"
 231              		.file 30 "crypto.h"